///////////////////////////////////////////////////////////////////////////////
//                                                                            /
// IAR C/C++ Compiler V8.10.3.10338/W32 for 8051        22/Apr/2017  09:08:42 /
// Copyright 2004-2011 IAR Systems AB.                                        /
//                                                                            /
//    Core               =  plain                                             /
//    Code model         =  banked                                            /
//    Data model         =  large                                             /
//    Calling convention =  xdata reentrant                                   /
//    Constant location  =  data_rom                                          /
//    Dptr setup         =  1,16                                              /
//    Source file        =  E:\淘宝店\PT100\下位机工程\Projects\zstack\ZIGBEE /
//                          \ZIGBEE\Source\SPI_TFT.c                          /
//    Command line       =  -f E:\淘宝店\PT100\下位机工程\Projects\zstack\ZIG /
//                          BEE\ZIGBEE\CC2530DB\..\..\..\Tools\CC2530DB\f8wCo /
//                          ord.cfg (-DCPU32MHZ -DROOT=__near_func            /
//                          -DMAC_CFG_APP_PENDING_QUEUE=TRUE                  /
//                          -DZDO_COORDINATOR -DRTR_NWK -DBLINK_LEDS) -f      /
//                          E:\淘宝店\PT100\下位机工程\Projects\zstack\ZIGBEE /
//                          \ZIGBEE\CC2530DB\..\..\..\Tools\CC2530DB\f8wConfi /
//                          g.cfg (-DSECURE=0 -DZG_SECURE_DYNAMIC=0           /
//                          -DREFLECTOR -DDEFAULT_CHANLIST=0x00000800         /
//                          -DZDAPP_CONFIG_PAN_ID=0xFFF1                      /
//                          -DNWK_START_DELAY=100 -DEXTENDED_JOINING_RANDOM_M /
//                          ASK=0x007F -DBEACON_REQUEST_DELAY=100             /
//                          -DBEACON_REQ_DELAY_MASK=0x00FF                    /
//                          -DROUTE_EXPIRY_TIME=30 -DAPSC_ACK_WAIT_DURATION_P /
//                          OLLED=3000 -DNWK_INDIRECT_MSG_TIMEOUT=7           /
//                          -DMAX_RREQ_ENTRIES=8 -DAPSC_MAX_FRAME_RETRIES=3   /
//                          -DNWK_MAX_DATA_RETRIES=2                          /
//                          -DMAX_POLL_FAILURE_RETRIES=2 -DMAX_BCAST=9        /
//                          -DAPS_MAX_GROUPS=16 -DMAX_RTG_ENTRIES=40          /
//                          -DNWK_MAX_BINDING_ENTRIES=4                       /
//                          -DMAX_BINDING_CLUSTER_IDS=4                       /
//                          "-DDEFAULT_KEY={0x01, 0x03, 0x05, 0x07, 0x09,     /
//                          0x0B, 0x0D, 0x0F, 0x00, 0x02, 0x04, 0x06, 0x08,   /
//                          0x0A, 0x0C, 0x0D}" -DMAC_MAX_FRAME_SIZE=116       /
//                          "-DCONST=const __code" -DGENERIC=__generic        /
//                          -DRFD_RCVC_ALWAYS_ON=FALSE -DPOLL_RATE=1000       /
//                          -DQUEUED_POLL_RATE=100 -DRESPONSE_POLL_RATE=100)  /
//                          -DREJOIN_POLL_RATE=440 E:\淘宝店\PT100\下位机工程 /
//                          \Projects\zstack\ZIGBEE\ZIGBEE\Source\SPI_TFT.c   /
//                          -D ZIGBEEPRO -D ZTOOL_P1 -D xMT_TASK -D           /
//                          xMT_SYS_FUNC -D REFECTOR -D xMT_ZDO_FUNC -D       /
//                          NV_INT -D NV_RESTORE -lC                          /
//                          E:\淘宝店\PT100\下位机工程\Projects\zstack\ZIGBEE /
//                          \ZIGBEE\CC2530DB\CoordinatorEB-Pro\List\ -lA      /
//                          E:\淘宝店\PT100\下位机工程\Projects\zstack\ZIGBEE /
//                          \ZIGBEE\CC2530DB\CoordinatorEB-Pro\List\          /
//                          --diag_suppress Pe001,Pa010 -o                    /
//                          E:\淘宝店\PT100\下位机工程\Projects\zstack\ZIGBEE /
//                          \ZIGBEE\CC2530DB\CoordinatorEB-Pro\Obj\ -e        /
//                          --debug --core=plain --dptr=16,1                  /
//                          --data_model=large --code_model=banked            /
//                          --calling_convention=xdata_reentrant              /
//                          --place_constants=data_rom --nr_virtual_regs 16   /
//                          -I E:\淘宝店\PT100\下位机工程\Projects\zstack\ZIG /
//                          BEE\ZIGBEE\CC2530DB\ -I                           /
//                          E:\淘宝店\PT100\下位机工程\Projects\zstack\ZIGBEE /
//                          \ZIGBEE\CC2530DB\..\SOURCE\ -I                    /
//                          E:\淘宝店\PT100\下位机工程\Projects\zstack\ZIGBEE /
//                          \ZIGBEE\CC2530DB\..\..\..\ZMAIN\TI2530DB\ -I      /
//                          E:\淘宝店\PT100\下位机工程\Projects\zstack\ZIGBEE /
//                          \ZIGBEE\CC2530DB\..\..\..\..\..\COMPONENTS\MT\    /
//                          -I E:\淘宝店\PT100\下位机工程\Projects\zstack\ZIG /
//                          BEE\ZIGBEE\CC2530DB\..\..\..\..\..\COMPONENTS\HAL /
//                          \INCLUDE\ -I E:\淘宝店\PT100\下位机工程\Projects\ /
//                          zstack\ZIGBEE\ZIGBEE\CC2530DB\..\..\..\..\..\COMP /
//                          ONENTS\HAL\TARGET\CC2530EB\ -I                    /
//                          E:\淘宝店\PT100\下位机工程\Projects\zstack\ZIGBEE /
//                          \ZIGBEE\CC2530DB\..\..\..\..\..\COMPONENTS\OSAL\M /
//                          CU\CCSOC\ -I E:\淘宝店\PT100\下位机工程\Projects\ /
//                          zstack\ZIGBEE\ZIGBEE\CC2530DB\..\..\..\..\..\COMP /
//                          ONENTS\OSAL\INCLUDE\ -I                           /
//                          E:\淘宝店\PT100\下位机工程\Projects\zstack\ZIGBEE /
//                          \ZIGBEE\CC2530DB\..\..\..\..\..\COMPONENTS\STACK\ /
//                          AF\ -I E:\淘宝店\PT100\下位机工程\Projects\zstack /
//                          \ZIGBEE\ZIGBEE\CC2530DB\..\..\..\..\..\COMPONENTS /
//                          \STACK\NWK\ -I E:\淘宝店\PT100\下位机工程\Project /
//                          s\zstack\ZIGBEE\ZIGBEE\CC2530DB\..\..\..\..\..\CO /
//                          MPONENTS\STACK\SEC\ -I E:\淘宝店\PT100\下位机工程 /
//                          \Projects\zstack\ZIGBEE\ZIGBEE\CC2530DB\..\..\..\ /
//                          ..\..\COMPONENTS\STACK\SAPI\ -I                   /
//                          E:\淘宝店\PT100\下位机工程\Projects\zstack\ZIGBEE /
//                          \ZIGBEE\CC2530DB\..\..\..\..\..\COMPONENTS\STACK\ /
//                          SYS\ -I E:\淘宝店\PT100\下位机工程\Projects\zstac /
//                          k\ZIGBEE\ZIGBEE\CC2530DB\..\..\..\..\..\COMPONENT /
//                          S\STACK\ZDO\ -I E:\淘宝店\PT100\下位机工程\Projec /
//                          ts\zstack\ZIGBEE\ZIGBEE\CC2530DB\..\..\..\..\..\C /
//                          OMPONENTS\ZMAC\F8W\ -I E:\淘宝店\PT100\下位机工程 /
//                          \Projects\zstack\ZIGBEE\ZIGBEE\CC2530DB\..\..\..\ /
//                          ..\..\COMPONENTS\ZMAC\ -I                         /
//                          E:\淘宝店\PT100\下位机工程\Projects\zstack\ZIGBEE /
//                          \ZIGBEE\CC2530DB\..\..\..\..\..\COMPONENTS\SERVIC /
//                          ES\SADDR\ -I E:\淘宝店\PT100\下位机工程\Projects\ /
//                          zstack\ZIGBEE\ZIGBEE\CC2530DB\..\..\..\..\..\COMP /
//                          ONENTS\SERVICES\SDATA\ -I                         /
//                          E:\淘宝店\PT100\下位机工程\Projects\zstack\ZIGBEE /
//                          \ZIGBEE\CC2530DB\..\..\..\..\..\COMPONENTS\MAC\IN /
//                          CLUDE\ -I E:\淘宝店\PT100\下位机工程\Projects\zst /
//                          ack\ZIGBEE\ZIGBEE\CC2530DB\..\..\..\..\..\COMPONE /
//                          NTS\MAC\HIGH_LEVEL\ -I E:\淘宝店\PT100\下位机工程 /
//                          \Projects\zstack\ZIGBEE\ZIGBEE\CC2530DB\..\..\..\ /
//                          ..\..\COMPONENTS\MAC\LOW_LEVEL\srf04\ -I          /
//                          E:\淘宝店\PT100\下位机工程\Projects\zstack\ZIGBEE /
//                          \ZIGBEE\CC2530DB\..\..\..\..\..\COMPONENTS\MAC\LO /
//                          W_LEVEL\srf04\SINGLE_CHIP\ -Ohz                   /
//                          --require_prototypes                              /
//    List file          =  E:\淘宝店\PT100\下位机工程\Projects\zstack\ZIGBEE /
//                          \ZIGBEE\CC2530DB\CoordinatorEB-Pro\List\SPI_TFT.s /
//                          51                                                /
//                                                                            /
//                                                                            /
///////////////////////////////////////////////////////////////////////////////

        NAME SPI_TFT

        RTMODEL "__SystemLibrary", "CLib"
        RTMODEL "__calling_convention", "xdata_reentrant"
        RTMODEL "__code_model", "banked"
        RTMODEL "__core", "plain"
        RTMODEL "__data_model", "large"
        RTMODEL "__dptr_size", "16"
        RTMODEL "__extended_stack", "disabled"
        RTMODEL "__location_for_constants", "data"
        RTMODEL "__number_of_dptrs", "1"
        RTMODEL "__rt_version", "1"

        RSEG DOVERLAY:DATA:NOROOT(0)
        RSEG IOVERLAY:IDATA:NOROOT(0)
        RSEG ISTACK:IDATA:NOROOT(0)
        RSEG PSTACK:XDATA:NOROOT(0)
        RSEG XSTACK:XDATA:NOROOT(0)

        EXTERN ?BANKED_ENTER_XDATA
        EXTERN ?BANKED_LEAVE_XDATA
        EXTERN ?BDISPATCH
        EXTERN ?BRET
        EXTERN ?DEALLOC_XSTACK8
        EXTERN ?PUSH_XSTACK_I_TWO
        EXTERN ?US_SHR
        EXTERN ?V0
        EXTERN ?XSTACK_DISP0_8
        EXTERN __INIT_XDATA_I

        PUBLIC ??DrawHorizonLine?relay
        FUNCTION ??DrawHorizonLine?relay,0203H
        PUBLIC ??DrawPixel?relay
        FUNCTION ??DrawPixel?relay,0203H
        PUBLIC ??DrawRect?relay
        FUNCTION ??DrawRect?relay,0203H
        PUBLIC ??DrawRectFill?relay
        FUNCTION ??DrawRectFill?relay,0203H
        PUBLIC ??DrawVerticalLine?relay
        FUNCTION ??DrawVerticalLine?relay,0203H
        PUBLIC ??InitLcd?relay
        FUNCTION ??InitLcd?relay,0203H
        PUBLIC ??LCD_WriteData_16Bit?relay
        FUNCTION ??LCD_WriteData_16Bit?relay,0203H
        PUBLIC ??LCD_clear?relay
        FUNCTION ??LCD_clear?relay,0203H
        FUNCTION ??LCD_set_window?relay,0203H
        FUNCTION ??LCD_write_EN?relay,0203H
        PUBLIC ??LCD_write_EN_string?relay
        FUNCTION ??LCD_write_EN_string?relay,0203H
        FUNCTION ??LCD_write_byte?relay,0203H
        PUBLIC ??Lcd_Reset?relay
        FUNCTION ??Lcd_Reset?relay,0203H
        PUBLIC ??Lcd_WriteData?relay
        FUNCTION ??Lcd_WriteData?relay,0203H
        PUBLIC ??Lcd_WriteIndex?relay
        FUNCTION ??Lcd_WriteIndex?relay,0203H
        PUBLIC ??SPI_Init?relay
        FUNCTION ??SPI_Init?relay,0203H
        PUBLIC ??SPI_WriteData?relay
        FUNCTION ??SPI_WriteData?relay,0203H
        PUBLIC ??SendByte?relay
        FUNCTION ??SendByte?relay,0203H
        PUBLIC ASCII7x14
        PUBLIC Color
        PUBLIC Color_BK
        PUBLIC DrawHorizonLine
        FUNCTION DrawHorizonLine,021203H
        ARGFRAME XSTACK, 20, STACK
        ARGFRAME IOVERLAY, 0, STATIC
        ARGFRAME DOVERLAY, 0, STATIC
        LOCFRAME XSTACK, 18, STACK
        PUBLIC DrawPixel
        FUNCTION DrawPixel,021203H
        ARGFRAME XSTACK, 2, STACK
        LOCFRAME XSTACK, 9, STACK
        PUBLIC DrawRect
        FUNCTION DrawRect,021203H
        ARGFRAME XSTACK, 6, STACK
        LOCFRAME XSTACK, 20, STACK
        PUBLIC DrawRectFill
        FUNCTION DrawRectFill,021203H
        ARGFRAME XSTACK, 6, STACK
        LOCFRAME XSTACK, 20, STACK
        PUBLIC DrawVerticalLine
        FUNCTION DrawVerticalLine,021203H
        ARGFRAME XSTACK, 20, STACK
        ARGFRAME IOVERLAY, 0, STATIC
        ARGFRAME DOVERLAY, 0, STATIC
        LOCFRAME XSTACK, 18, STACK
        PUBLIC InitLcd
        FUNCTION InitLcd,021203H
        ARGFRAME XSTACK, 0, STACK
        LOCFRAME ISTACK, 2, STACK
        PUBLIC LCD_WriteData_16Bit
        FUNCTION LCD_WriteData_16Bit,021203H
        ARGFRAME XSTACK, 0, STACK
        LOCFRAME XSTACK, 9, STACK
        PUBLIC LCD_clear
        FUNCTION LCD_clear,021203H
        ARGFRAME XSTACK, 0, STACK
        ARGFRAME IOVERLAY, 0, STATIC
        ARGFRAME DOVERLAY, 0, STATIC
        LOCFRAME XSTACK, 16, STACK
        FUNCTION LCD_set_window,021203H
        ARGFRAME XSTACK, 20, STACK
        ARGFRAME IOVERLAY, 0, STATIC
        ARGFRAME DOVERLAY, 0, STATIC
        LOCFRAME XSTACK, 14, STACK
        FUNCTION LCD_write_EN,021203H
        ARGFRAME XSTACK, 13, STACK
        ARGFRAME IOVERLAY, 0, STATIC
        ARGFRAME DOVERLAY, 0, STATIC
        LOCFRAME XSTACK, 14, STACK
        PUBLIC LCD_write_EN_string
        FUNCTION LCD_write_EN_string,021203H
        ARGFRAME XSTACK, 0, STACK
        LOCFRAME XSTACK, 13, STACK
        FUNCTION LCD_write_byte,021203H
        ARGFRAME XSTACK, 16, STACK
        ARGFRAME IOVERLAY, 0, STATIC
        ARGFRAME DOVERLAY, 0, STATIC
        LOCFRAME XSTACK, 9, STACK
        PUBLIC Lcd_Reset
        FUNCTION Lcd_Reset,021203H
        ARGFRAME XSTACK, 0, STACK
        ARGFRAME IOVERLAY, 0, STATIC
        ARGFRAME DOVERLAY, 0, STATIC
        LOCFRAME ISTACK, 2, STACK
        PUBLIC Lcd_WriteData
        FUNCTION Lcd_WriteData,021203H
        ARGFRAME XSTACK, 9, STACK
        ARGFRAME IOVERLAY, 0, STATIC
        ARGFRAME DOVERLAY, 0, STATIC
        LOCFRAME XSTACK, 9, STACK
        PUBLIC Lcd_WriteIndex
        FUNCTION Lcd_WriteIndex,021203H
        ARGFRAME XSTACK, 9, STACK
        ARGFRAME IOVERLAY, 0, STATIC
        ARGFRAME DOVERLAY, 0, STATIC
        LOCFRAME XSTACK, 9, STACK
        PUBWEAK P0DIR
        PUBWEAK P0SEL
        PUBWEAK P1DIR
        PUBWEAK P1SEL
        PUBWEAK PERCFG
        PUBLIC SPI_Init
        FUNCTION SPI_Init,0203H
        ARGFRAME XSTACK, 0, STACK
        PUBLIC SPI_WriteData
        FUNCTION SPI_WriteData,0203H
        ARGFRAME XSTACK, 9, STACK
        ARGFRAME IOVERLAY, 0, STATIC
        ARGFRAME DOVERLAY, 0, STATIC
        PUBLIC SendByte
        FUNCTION SendByte,0203H
        ARGFRAME XSTACK, 16, STACK
        ARGFRAME IOVERLAY, 0, STATIC
        ARGFRAME DOVERLAY, 0, STATIC
        PUBWEAK U1BAUD
        PUBWEAK U1GCR
        PUBWEAK _A_P0
        PUBWEAK _A_P1
        PUBWEAK _A_U1CSR
        
        CFI Names cfiNames0
        CFI StackFrame CFA_SP SP IDATA
        CFI StackFrame CFA_PSP16 PSP16 XDATA
        CFI StackFrame CFA_XSP16 XSP16 XDATA
        CFI StaticOverlayFrame CFA_IOVERLAY IOVERLAY
        CFI StaticOverlayFrame CFA_DOVERLAY DOVERLAY
        CFI Resource `PSW.CY`:1, `B.BR0`:1, `B.BR1`:1, `B.BR2`:1, `B.BR3`:1
        CFI Resource `B.BR4`:1, `B.BR5`:1, `B.BR6`:1, `B.BR7`:1, `VB.BR8`:1
        CFI Resource `VB.BR9`:1, `VB.BR10`:1, `VB.BR11`:1, `VB.BR12`:1
        CFI Resource `VB.BR13`:1, `VB.BR14`:1, `VB.BR15`:1, VB:8, B:8, A:8
        CFI Resource PSW:8, DPL0:8, DPH0:8, R0:8, R1:8, R2:8, R3:8, R4:8, R5:8
        CFI Resource R6:8, R7:8, V0:8, V1:8, V2:8, V3:8, V4:8, V5:8, V6:8, V7:8
        CFI Resource V8:8, V9:8, V10:8, V11:8, V12:8, V13:8, V14:8, V15:8, SP:8
        CFI Resource PSPH:8, PSPL:8, PSP16:16, XSPH:8, XSPL:8, XSP16:16
        CFI VirtualResource ?RET:24
        CFI Resource ?BRET_EXT:8
        CFI VirtualResource ?RET_HIGH:8, ?RET_LOW:8
        CFI ResourceParts PSP16 PSPH, PSPL
        CFI ResourceParts XSP16 XSPH, XSPL
        CFI ResourceParts ?RET ?BRET_EXT, ?RET_HIGH, ?RET_LOW
        CFI EndNames cfiNames0
        
        CFI Common cfiCommon0 Using cfiNames0
        CFI CodeAlign 1
        CFI DataAlign -1
        CFI ReturnAddress ?RET CODE
        CFI CFA_DOVERLAY Used
        CFI CFA_IOVERLAY Used
        CFI CFA_SP SP+-3
        CFI CFA_PSP16 PSP16+0
        CFI CFA_XSP16 XSP16+0
        CFI `PSW.CY` SameValue
        CFI `B.BR0` SameValue
        CFI `B.BR1` SameValue
        CFI `B.BR2` SameValue
        CFI `B.BR3` SameValue
        CFI `B.BR4` SameValue
        CFI `B.BR5` SameValue
        CFI `B.BR6` SameValue
        CFI `B.BR7` SameValue
        CFI `VB.BR8` SameValue
        CFI `VB.BR9` SameValue
        CFI `VB.BR10` SameValue
        CFI `VB.BR11` SameValue
        CFI `VB.BR12` SameValue
        CFI `VB.BR13` SameValue
        CFI `VB.BR14` SameValue
        CFI `VB.BR15` SameValue
        CFI VB SameValue
        CFI B Undefined
        CFI A Undefined
        CFI PSW SameValue
        CFI DPL0 SameValue
        CFI DPH0 SameValue
        CFI R0 Undefined
        CFI R1 Undefined
        CFI R2 Undefined
        CFI R3 Undefined
        CFI R4 Undefined
        CFI R5 Undefined
        CFI R6 SameValue
        CFI R7 SameValue
        CFI V0 SameValue
        CFI V1 SameValue
        CFI V2 SameValue
        CFI V3 SameValue
        CFI V4 SameValue
        CFI V5 SameValue
        CFI V6 SameValue
        CFI V7 SameValue
        CFI V8 SameValue
        CFI V9 SameValue
        CFI V10 SameValue
        CFI V11 SameValue
        CFI V12 SameValue
        CFI V13 SameValue
        CFI V14 SameValue
        CFI V15 SameValue
        CFI PSPH Undefined
        CFI PSPL Undefined
        CFI XSPH Undefined
        CFI XSPL Undefined
        CFI ?RET Concat
        CFI ?BRET_EXT Frame(CFA_SP, 3)
        CFI ?RET_HIGH Frame(CFA_SP, 2)
        CFI ?RET_LOW Frame(CFA_SP, 1)
        CFI EndCommon cfiCommon0
        
        
        CFI Common cfiCommon1 Using cfiNames0
        CFI CodeAlign 1
        CFI DataAlign -1
        CFI ReturnAddress ?RET CODE
        CFI CFA_DOVERLAY Used
        CFI CFA_IOVERLAY Used
        CFI CFA_SP SP+-2
        CFI CFA_PSP16 PSP16+0
        CFI CFA_XSP16 XSP16+0
        CFI `PSW.CY` SameValue
        CFI `B.BR0` SameValue
        CFI `B.BR1` SameValue
        CFI `B.BR2` SameValue
        CFI `B.BR3` SameValue
        CFI `B.BR4` SameValue
        CFI `B.BR5` SameValue
        CFI `B.BR6` SameValue
        CFI `B.BR7` SameValue
        CFI `VB.BR8` SameValue
        CFI `VB.BR9` SameValue
        CFI `VB.BR10` SameValue
        CFI `VB.BR11` SameValue
        CFI `VB.BR12` SameValue
        CFI `VB.BR13` SameValue
        CFI `VB.BR14` SameValue
        CFI `VB.BR15` SameValue
        CFI VB SameValue
        CFI B SameValue
        CFI A SameValue
        CFI PSW SameValue
        CFI DPL0 SameValue
        CFI DPH0 SameValue
        CFI R0 SameValue
        CFI R1 SameValue
        CFI R2 SameValue
        CFI R3 SameValue
        CFI R4 SameValue
        CFI R5 SameValue
        CFI R6 SameValue
        CFI R7 SameValue
        CFI V0 SameValue
        CFI V1 SameValue
        CFI V2 SameValue
        CFI V3 SameValue
        CFI V4 SameValue
        CFI V5 SameValue
        CFI V6 SameValue
        CFI V7 SameValue
        CFI V8 SameValue
        CFI V9 SameValue
        CFI V10 SameValue
        CFI V11 SameValue
        CFI V12 SameValue
        CFI V13 SameValue
        CFI V14 SameValue
        CFI V15 SameValue
        CFI PSPH Undefined
        CFI PSPL Undefined
        CFI XSPH Undefined
        CFI XSPL Undefined
        CFI ?RET Concat
        CFI ?BRET_EXT SameValue
        CFI ?RET_HIGH Frame(CFA_SP, 2)
        CFI ?RET_LOW Frame(CFA_SP, 1)
        CFI EndCommon cfiCommon1
        
DelayMS             SYMBOL "DelayMS"
??DelayMS?relay     SYMBOL "?relay", DelayMS
DrawHorizonLine     SYMBOL "DrawHorizonLine"
??DrawHorizonLine?relay SYMBOL "?relay", DrawHorizonLine
DrawPixel           SYMBOL "DrawPixel"
??DrawPixel?relay   SYMBOL "?relay", DrawPixel
DrawRect            SYMBOL "DrawRect"
??DrawRect?relay    SYMBOL "?relay", DrawRect
DrawRectFill        SYMBOL "DrawRectFill"
??DrawRectFill?relay SYMBOL "?relay", DrawRectFill
DrawVerticalLine    SYMBOL "DrawVerticalLine"
??DrawVerticalLine?relay SYMBOL "?relay", DrawVerticalLine
InitLcd             SYMBOL "InitLcd"
??InitLcd?relay     SYMBOL "?relay", InitLcd
LCD_WriteData_16Bit SYMBOL "LCD_WriteData_16Bit"
??LCD_WriteData_16Bit?relay SYMBOL "?relay", LCD_WriteData_16Bit
LCD_clear           SYMBOL "LCD_clear"
??LCD_clear?relay   SYMBOL "?relay", LCD_clear
LCD_write_EN_string SYMBOL "LCD_write_EN_string"
??LCD_write_EN_string?relay SYMBOL "?relay", LCD_write_EN_string
Lcd_Reset           SYMBOL "Lcd_Reset"
??Lcd_Reset?relay   SYMBOL "?relay", Lcd_Reset
Lcd_WriteData       SYMBOL "Lcd_WriteData"
??Lcd_WriteData?relay SYMBOL "?relay", Lcd_WriteData
Lcd_WriteIndex      SYMBOL "Lcd_WriteIndex"
??Lcd_WriteIndex?relay SYMBOL "?relay", Lcd_WriteIndex
SPI_Init            SYMBOL "SPI_Init"
??SPI_Init?relay    SYMBOL "?relay", SPI_Init
SPI_WriteData       SYMBOL "SPI_WriteData"
??SPI_WriteData?relay SYMBOL "?relay", SPI_WriteData
SendByte            SYMBOL "SendByte"
??SendByte?relay    SYMBOL "?relay", SendByte

        EXTERN DelayMS
        FUNCTION DelayMS,0202H
        ARGFRAME ISTACK, 2, STACK
        ARGFRAME PSTACK, 0, STACK
        ARGFRAME XSTACK, 0, STACK
        ARGFRAME IOVERLAY, 0, STATIC
        ARGFRAME DOVERLAY, 0, STATIC
        EXTERN ??DelayMS?relay
        FUNCTION ??DelayMS?relay,00H

// E:\淘宝店\PT100\下位机工程\Projects\zstack\ZIGBEE\ZIGBEE\Source\SPI_TFT.c
//    1 #include <ioCC2530.h>

        ASEGN SFR_AN:DATA:NOROOT,080H
// union <unnamed> volatile __sfr _A_P0
_A_P0:
        DATA8
        DS 1

        ASEGN SFR_AN:DATA:NOROOT,090H
// union <unnamed> volatile __sfr _A_P1
_A_P1:
        DATA8
        DS 1

        ASEGN SFR_AN:DATA:NOROOT,0f1H
// unsigned char volatile __sfr PERCFG
PERCFG:
        DATA8
        DS 1

        ASEGN SFR_AN:DATA:NOROOT,0f3H
// unsigned char volatile __sfr P0SEL
P0SEL:
        DATA8
        DS 1

        ASEGN SFR_AN:DATA:NOROOT,0f4H
// unsigned char volatile __sfr P1SEL
P1SEL:
        DATA8
        DS 1

        ASEGN SFR_AN:DATA:NOROOT,0f8H
// union <unnamed> volatile __sfr _A_U1CSR
_A_U1CSR:
        DATA8
        DS 1

        ASEGN SFR_AN:DATA:NOROOT,0faH
// unsigned char volatile __sfr U1BAUD
U1BAUD:
        DATA8
        DS 1

        ASEGN SFR_AN:DATA:NOROOT,0fcH
// unsigned char volatile __sfr U1GCR
U1GCR:
        DATA8
        DS 1

        ASEGN SFR_AN:DATA:NOROOT,0fdH
// unsigned char volatile __sfr P0DIR
P0DIR:
        DATA8
        DS 1

        ASEGN SFR_AN:DATA:NOROOT,0feH
// unsigned char volatile __sfr P1DIR
P1DIR:
        DATA8
        DS 1
//    2 #include "SPI_TFT.H"
//    3 #include "Font.H"

        RSEG CODE_C:CODE:REORDER:NOROOT(0)
        DATA8
// unsigned char const __code ASCII7x14[92][14]
ASCII7x14:
        DB 0
        DB 0
        DB 0
        DB 0
        DB 0
        DB 0
        DB 0
        DB 0
        DB 0
        DB 0
        DB 0
        DB 0
        DB 0
        DB 0
        DB 0
        DB 0
        DB 16
        DB 16
        DB 16
        DB 16
        DB 16
        DB 16
        DB 0
        DB 0
        DB 48
        DB 48
        DB 0
        DB 0
        DB 0
        DB 20
        DB 40
        DB 80
        DB 0
        DB 0
        DB 0
        DB 0
        DB 0
        DB 0
        DB 0
        DB 0
        DB 0
        DB 0
        DB 0
        DB 0
        DB 0
        DB 40
        DB 40
        DB 252
        DB 40
        DB 72
        DB 80
        DB 252
        DB 80
        DB 80
        DB 0
        DB 0
        DB 0
        DB 0
        DB 16
        DB 56
        DB 84
        DB 84
        DB 48
        DB 24
        DB 20
        DB 84
        DB 84
        DB 56
        DB 16
        DB 0
        DB 0
        DB 0
        DB 0
        DB 68
        DB 168
        DB 168
        DB 176
        DB 84
        DB 26
        DB 42
        DB 42
        DB 68
        DB 0
        DB 0
        DB 0
        DB 0
        DB 0
        DB 32
        DB 80
        DB 80
        DB 96
        DB 172
        DB 168
        DB 152
        DB 146
        DB 124
        DB 0
        DB 0
        DB 0
        DB 96
        DB 96
        DB 32
        DB 192
        DB 0
        DB 0
        DB 0
        DB 0
        DB 0
        DB 0
        DB 0
        DB 0
        DB 0
        DB 0
        DB 4
        DB 8
        DB 8
        DB 16
        DB 16
        DB 16
        DB 16
        DB 16
        DB 16
        DB 8
        DB 8
        DB 4
        DB 0
        DB 0
        DB 0
        DB 64
        DB 32
        DB 16
        DB 8
        DB 4
        DB 8
        DB 16
        DB 32
        DB 64
        DB 0
        DB 0
        DB 0
        DB 0
        DB 0
        DB 0
        DB 16
        DB 16
        DB 214
        DB 56
        DB 56
        DB 214
        DB 16
        DB 16
        DB 0
        DB 0
        DB 0
        DB 0
        DB 0
        DB 0
        DB 16
        DB 16
        DB 16
        DB 254
        DB 16
        DB 16
        DB 16
        DB 0
        DB 0
        DB 0
        DB 0
        DB 0
        DB 0
        DB 0
        DB 0
        DB 0
        DB 0
        DB 0
        DB 0
        DB 0
        DB 0
        DB 96
        DB 96
        DB 32
        DB 192
        DB 0
        DB 0
        DB 0
        DB 0
        DB 0
        DB 0
        DB 252
        DB 0
        DB 0
        DB 0
        DB 0
        DB 0
        DB 0
        DB 0
        DB 0
        DB 0
        DB 0
        DB 0
        DB 0
        DB 0
        DB 0
        DB 0
        DB 0
        DB 0
        DB 96
        DB 96
        DB 0
        DB 0
        DB 0
        DB 2
        DB 4
        DB 4
        DB 4
        DB 8
        DB 8
        DB 16
        DB 16
        DB 32
        DB 32
        DB 32
        DB 64
        DB 0
        DB 0
        DB 0
        DB 0
        DB 48
        DB 72
        DB 132
        DB 132
        DB 132
        DB 132
        DB 132
        DB 72
        DB 48
        DB 0
        DB 0
        DB 0
        DB 0
        DB 0
        DB 16
        DB 112
        DB 16
        DB 16
        DB 16
        DB 16
        DB 16
        DB 16
        DB 124
        DB 0
        DB 0
        DB 0
        DB 0
        DB 0
        DB 56
        DB 68
        DB 68
        DB 4
        DB 8
        DB 16
        DB 32
        DB 68
        DB 124
        DB 0
        DB 0
        DB 0
        DB 0
        DB 0
        DB 56
        DB 68
        DB 68
        DB 24
        DB 4
        DB 4
        DB 68
        DB 68
        DB 56
        DB 0
        DB 0
        DB 0
        DB 0
        DB 8
        DB 8
        DB 24
        DB 40
        DB 72
        DB 72
        DB 136
        DB 124
        DB 8
        DB 28
        DB 0
        DB 0
        DB 0
        DB 0
        DB 0
        DB 124
        DB 64
        DB 64
        DB 120
        DB 68
        DB 4
        DB 68
        DB 68
        DB 56
        DB 0
        DB 0
        DB 0
        DB 0
        DB 0
        DB 60
        DB 68
        DB 128
        DB 184
        DB 196
        DB 132
        DB 132
        DB 132
        DB 120
        DB 0
        DB 0
        DB 0
        DB 0
        DB 0
        DB 124
        DB 68
        DB 72
        DB 8
        DB 16
        DB 16
        DB 16
        DB 16
        DB 16
        DB 0
        DB 0
        DB 0
        DB 0
        DB 0
        DB 120
        DB 132
        DB 132
        DB 72
        DB 120
        DB 132
        DB 132
        DB 132
        DB 120
        DB 0
        DB 0
        DB 0
        DB 0
        DB 0
        DB 120
        DB 132
        DB 132
        DB 132
        DB 140
        DB 116
        DB 4
        DB 136
        DB 240
        DB 0
        DB 0
        DB 0
        DB 0
        DB 0
        DB 0
        DB 0
        DB 48
        DB 48
        DB 0
        DB 0
        DB 0
        DB 48
        DB 48
        DB 0
        DB 0
        DB 0
        DB 0
        DB 0
        DB 0
        DB 0
        DB 0
        DB 16
        DB 0
        DB 0
        DB 0
        DB 0
        DB 16
        DB 16
        DB 32
        DB 0
        DB 0
        DB 4
        DB 8
        DB 16
        DB 32
        DB 64
        DB 32
        DB 16
        DB 8
        DB 4
        DB 0
        DB 0
        DB 0
        DB 0
        DB 0
        DB 0
        DB 0
        DB 0
        DB 252
        DB 0
        DB 0
        DB 252
        DB 0
        DB 0
        DB 0
        DB 0
        DB 0
        DB 0
        DB 0
        DB 64
        DB 32
        DB 16
        DB 8
        DB 4
        DB 8
        DB 16
        DB 32
        DB 64
        DB 0
        DB 0
        DB 0
        DB 0
        DB 0
        DB 120
        DB 132
        DB 132
        DB 132
        DB 8
        DB 16
        DB 16
        DB 0
        DB 48
        DB 48
        DB 0
        DB 0
        DB 0
        DB 0
        DB 0
        DB 56
        DB 68
        DB 154
        DB 170
        DB 170
        DB 170
        DB 180
        DB 66
        DB 60
        DB 0
        DB 0
        DB 0
        DB 0
        DB 0
        DB 16
        DB 16
        DB 40
        DB 40
        DB 40
        DB 56
        DB 68
        DB 68
        DB 238
        DB 0
        DB 0
        DB 0
        DB 0
        DB 0
        DB 248
        DB 68
        DB 68
        DB 120
        DB 68
        DB 68
        DB 68
        DB 68
        DB 248
        DB 0
        DB 0
        DB 0
        DB 0
        DB 0
        DB 60
        DB 68
        DB 132
        DB 128
        DB 128
        DB 128
        DB 128
        DB 68
        DB 56
        DB 0
        DB 0
        DB 0
        DB 0
        DB 0
        DB 240
        DB 72
        DB 68
        DB 68
        DB 68
        DB 68
        DB 68
        DB 72
        DB 240
        DB 0
        DB 0
        DB 0
        DB 0
        DB 0
        DB 252
        DB 68
        DB 64
        DB 72
        DB 120
        DB 72
        DB 64
        DB 68
        DB 252
        DB 0
        DB 0
        DB 0
        DB 0
        DB 0
        DB 252
        DB 66
        DB 64
        DB 72
        DB 120
        DB 72
        DB 64
        DB 64
        DB 224
        DB 0
        DB 0
        DB 0
        DB 0
        DB 0
        DB 60
        DB 68
        DB 132
        DB 128
        DB 128
        DB 142
        DB 132
        DB 68
        DB 56
        DB 0
        DB 0
        DB 0
        DB 0
        DB 0
        DB 238
        DB 68
        DB 68
        DB 68
        DB 124
        DB 68
        DB 68
        DB 68
        DB 238
        DB 0
        DB 0
        DB 0
        DB 0
        DB 0
        DB 124
        DB 16
        DB 16
        DB 16
        DB 16
        DB 16
        DB 16
        DB 16
        DB 124
        DB 0
        DB 0
        DB 0
        DB 0
        DB 0
        DB 124
        DB 16
        DB 16
        DB 16
        DB 16
        DB 16
        DB 16
        DB 16
        DB 16
        DB 144
        DB 224
        DB 0
        DB 0
        DB 0
        DB 238
        DB 68
        DB 72
        DB 80
        DB 112
        DB 72
        DB 72
        DB 68
        DB 238
        DB 0
        DB 0
        DB 0
        DB 0
        DB 0
        DB 224
        DB 64
        DB 64
        DB 64
        DB 64
        DB 64
        DB 64
        DB 68
        DB 252
        DB 0
        DB 0
        DB 0
        DB 0
        DB 0
        DB 238
        DB 108
        DB 108
        DB 108
        DB 84
        DB 84
        DB 84
        DB 84
        DB 214
        DB 0
        DB 0
        DB 0
        DB 0
        DB 0
        DB 238
        DB 100
        DB 100
        DB 84
        DB 84
        DB 84
        DB 76
        DB 76
        DB 228
        DB 0
        DB 0
        DB 0
        DB 0
        DB 0
        DB 48
        DB 72
        DB 132
        DB 132
        DB 132
        DB 132
        DB 132
        DB 72
        DB 48
        DB 0
        DB 0
        DB 0
        DB 0
        DB 0
        DB 248
        DB 68
        DB 68
        DB 68
        DB 120
        DB 64
        DB 64
        DB 64
        DB 224
        DB 0
        DB 0
        DB 0
        DB 0
        DB 0
        DB 48
        DB 72
        DB 132
        DB 132
        DB 132
        DB 132
        DB 180
        DB 72
        DB 56
        DB 12
        DB 0
        DB 0
        DB 0
        DB 0
        DB 248
        DB 68
        DB 68
        DB 120
        DB 80
        DB 72
        DB 72
        DB 68
        DB 230
        DB 0
        DB 0
        DB 0
        DB 0
        DB 0
        DB 60
        DB 68
        DB 64
        DB 32
        DB 24
        DB 4
        DB 4
        DB 68
        DB 120
        DB 0
        DB 0
        DB 0
        DB 0
        DB 0
        DB 254
        DB 146
        DB 16
        DB 16
        DB 16
        DB 16
        DB 16
        DB 16
        DB 56
        DB 0
        DB 0
        DB 0
        DB 0
        DB 0
        DB 238
        DB 68
        DB 68
        DB 68
        DB 68
        DB 68
        DB 68
        DB 68
        DB 56
        DB 0
        DB 0
        DB 0
        DB 0
        DB 0
        DB 238
        DB 68
        DB 68
        DB 40
        DB 40
        DB 40
        DB 40
        DB 16
        DB 16
        DB 0
        DB 0
        DB 0
        DB 0
        DB 0
        DB 214
        DB 84
        DB 84
        DB 84
        DB 84
        DB 108
        DB 40
        DB 40
        DB 40
        DB 0
        DB 0
        DB 0
        DB 0
        DB 0
        DB 238
        DB 68
        DB 40
        DB 40
        DB 16
        DB 40
        DB 40
        DB 68
        DB 238
        DB 0
        DB 0
        DB 0
        DB 0
        DB 0
        DB 238
        DB 68
        DB 40
        DB 40
        DB 16
        DB 16
        DB 16
        DB 16
        DB 56
        DB 0
        DB 0
        DB 0
        DB 0
        DB 0
        DB 124
        DB 136
        DB 8
        DB 16
        DB 32
        DB 32
        DB 64
        DB 68
        DB 252
        DB 0
        DB 0
        DB 0
        DB 28
        DB 16
        DB 16
        DB 16
        DB 16
        DB 16
        DB 16
        DB 16
        DB 16
        DB 16
        DB 16
        DB 28
        DB 0
        DB 0
        DB 112
        DB 16
        DB 16
        DB 16
        DB 16
        DB 16
        DB 16
        DB 16
        DB 16
        DB 16
        DB 16
        DB 112
        DB 0
        DB 0
        DB 112
        DB 16
        DB 16
        DB 16
        DB 16
        DB 16
        DB 16
        DB 16
        DB 16
        DB 16
        DB 16
        DB 112
        DB 0
        DB 0
        DB 16
        DB 40
        DB 0
        DB 0
        DB 0
        DB 0
        DB 0
        DB 0
        DB 0
        DB 0
        DB 0
        DB 0
        DB 0
        DB 0
        DB 0
        DB 0
        DB 0
        DB 0
        DB 0
        DB 0
        DB 0
        DB 0
        DB 0
        DB 0
        DB 0
        DB 0
        DB 254
        DB 0
        DB 96
        DB 96
        DB 32
        DB 192
        DB 0
        DB 0
        DB 0
        DB 0
        DB 0
        DB 0
        DB 0
        DB 0
        DB 0
        DB 0
        DB 0
        DB 0
        DB 0
        DB 0
        DB 0
        DB 56
        DB 68
        DB 28
        DB 36
        DB 68
        DB 62
        DB 0
        DB 0
        DB 0
        DB 0
        DB 0
        DB 192
        DB 64
        DB 64
        DB 120
        DB 68
        DB 68
        DB 68
        DB 68
        DB 120
        DB 0
        DB 0
        DB 0
        DB 0
        DB 0
        DB 0
        DB 0
        DB 0
        DB 60
        DB 68
        DB 64
        DB 64
        DB 68
        DB 56
        DB 0
        DB 0
        DB 0
        DB 0
        DB 0
        DB 12
        DB 4
        DB 4
        DB 60
        DB 68
        DB 68
        DB 68
        DB 68
        DB 62
        DB 0
        DB 0
        DB 0
        DB 0
        DB 0
        DB 0
        DB 0
        DB 0
        DB 56
        DB 68
        DB 124
        DB 64
        DB 68
        DB 56
        DB 0
        DB 0
        DB 0
        DB 0
        DB 0
        DB 28
        DB 36
        DB 32
        DB 248
        DB 32
        DB 32
        DB 32
        DB 32
        DB 120
        DB 0
        DB 0
        DB 0
        DB 0
        DB 0
        DB 0
        DB 0
        DB 0
        DB 60
        DB 72
        DB 72
        DB 48
        DB 64
        DB 120
        DB 68
        DB 56
        DB 0
        DB 0
        DB 0
        DB 192
        DB 64
        DB 64
        DB 88
        DB 100
        DB 68
        DB 68
        DB 68
        DB 238
        DB 0
        DB 0
        DB 0
        DB 0
        DB 0
        DB 16
        DB 0
        DB 0
        DB 112
        DB 16
        DB 16
        DB 16
        DB 16
        DB 124
        DB 0
        DB 0
        DB 0
        DB 0
        DB 0
        DB 8
        DB 0
        DB 0
        DB 56
        DB 8
        DB 8
        DB 8
        DB 8
        DB 8
        DB 8
        DB 112
        DB 0
        DB 0
        DB 0
        DB 192
        DB 64
        DB 64
        DB 92
        DB 72
        DB 80
        DB 112
        DB 72
        DB 236
        DB 0
        DB 0
        DB 0
        DB 0
        DB 0
        DB 112
        DB 16
        DB 16
        DB 16
        DB 16
        DB 16
        DB 16
        DB 16
        DB 124
        DB 0
        DB 0
        DB 0
        DB 0
        DB 0
        DB 0
        DB 0
        DB 0
        DB 248
        DB 84
        DB 84
        DB 84
        DB 84
        DB 214
        DB 0
        DB 0
        DB 0
        DB 0
        DB 0
        DB 0
        DB 0
        DB 0
        DB 216
        DB 100
        DB 68
        DB 68
        DB 68
        DB 238
        DB 0
        DB 0
        DB 0
        DB 0
        DB 0
        DB 0
        DB 0
        DB 0
        DB 56
        DB 68
        DB 68
        DB 68
        DB 68
        DB 56
        DB 0
        DB 0
        DB 0
        DB 0
        DB 0
        DB 0
        DB 0
        DB 0
        DB 248
        DB 68
        DB 68
        DB 68
        DB 68
        DB 120
        DB 64
        DB 224
        DB 0
        DB 0
        DB 0
        DB 0
        DB 0
        DB 0
        DB 60
        DB 68
        DB 68
        DB 68
        DB 68
        DB 60
        DB 4
        DB 14
        DB 0
        DB 0
        DB 0
        DB 0
        DB 0
        DB 0
        DB 236
        DB 48
        DB 32
        DB 32
        DB 32
        DB 248
        DB 0
        DB 0
        DB 0
        DB 0
        DB 0
        DB 0
        DB 0
        DB 0
        DB 60
        DB 68
        DB 48
        DB 8
        DB 68
        DB 120
        DB 0
        DB 0
        DB 0
        DB 0
        DB 0
        DB 0
        DB 16
        DB 16
        DB 124
        DB 16
        DB 16
        DB 16
        DB 16
        DB 12
        DB 0
        DB 0
        DB 0
        DB 0
        DB 0
        DB 0
        DB 0
        DB 0
        DB 204
        DB 68
        DB 68
        DB 68
        DB 68
        DB 62
        DB 0
        DB 0
        DB 0
        DB 0
        DB 0
        DB 0
        DB 0
        DB 0
        DB 238
        DB 68
        DB 40
        DB 40
        DB 40
        DB 16
        DB 0
        DB 0
        DB 0
        DB 0
        DB 0
        DB 0
        DB 0
        DB 0
        DB 214
        DB 84
        DB 84
        DB 84
        DB 40
        DB 40
        DB 0
        DB 0
        DB 0
        DB 0
        DB 0
        DB 0
        DB 0
        DB 0
        DB 220
        DB 72
        DB 48
        DB 48
        DB 72
        DB 236
        DB 0
        DB 0
        DB 0
        DB 0
        DB 0
        DB 0
        DB 0
        DB 0
        DB 238
        DB 68
        DB 40
        DB 40
        DB 16
        DB 16
        DB 32
        DB 224
        DB 0
        DB 0
        DB 0
        DB 0
        DB 0
        DB 0
        DB 124
        DB 72
        DB 16
        DB 16
        DB 36
        DB 124
        DB 0
        DB 0
        DB 16
        DB 16
        DB 16
        DB 16
        DB 16
        DB 16
        DB 16
        DB 16
        DB 16
        DB 16
        DB 16
        DB 16
        DB 16
        DB 16
//    4 
//    5 #define LCD_COMMAND 0x00
//    6 #define LCD_DATA    0x01
//    7 
//    8 #define LCD_MAX_BUF 25
//    9 
//   10 #define SOFTWARE_SPI
//   11 //#define HARDWARE_SPI  //LCD控制采用硬件SPI
//   12 
//   13 #define COL_SPACE   2   //字符间距
//   14 #define ROW_SPACE   4   //行间距
//   15 #define ALL_CNS     128
//   16 
//   17 // SPI TFT LCD端口定义
//   18 #define LCD_DC                 P0_0  // 数据/命令选择, L_R
//   19 #define LCD_SDA                P1_3  // 双向数据, L_D  P1_6   P1_3
//   20 #define LCD_SCL                P1_2  // 时钟, L_C P1_2  P1_5
//   21 //#define LCD_CS               P1_2  // 片选, L_S 将片选接地
//   22 #define LCD_RST                P1_7  // 控制lcd复位   
//   23 
//   24 //液晶控制口置1操作语句宏定义
//   25 //#define LCD_CS_SET  	(LCD_CS_CLRx01)   
//   26 #define	LCD_DC_SET  	(LCD_DC = 0x01)  
//   27 #define	LCD_SDA_SET  	(LCD_SDA = 0x01)    
//   28 #define	LCD_SCL_SET  	(LCD_SCL = 0x01)   
//   29 #define	LCD_RST_SET  	(LCD_RST = 0x01)  
//   30 
//   31 //液晶控制口置0操作语句宏定义
//   32 //#define LCD_CS_CLR  	(LCD_CS_CLRx00)    
//   33 #define	LCD_DC_CLR  	(LCD_DC = 0x00)  
//   34 #define	LCD_SDA_CLR  	(LCD_SDA = 0x00)     
//   35 #define	LCD_SCL_CLR  	(LCD_SCL = 0x00)
//   36 #define	LCD_RST_CLR  	(LCD_RST = 0x00)   
//   37 
//   38 
//   39 void SPI_Init(void);
//   40 void LCD_clear(unsigned int color);
//   41 void LCD_write_EN_string(unsigned char X,unsigned char Y,uint8 *s);
//   42 void SendByte(unsigned char Data);
//   43 void SPI_WriteData(unsigned char Data);
//   44 void Lcd_WriteData(unsigned char Data);
//   45 void Lcd_WriteIndex(unsigned char Index);
//   46 void LCD_WriteData_16Bit(unsigned short Data);
//   47 void Lcd_Reset(void);
//   48 
//   49 static void LCD_set_window(unsigned int X, unsigned int Y, 
//   50                            unsigned Width,unsigned int Height);
//   51 static void LCD_write_EN(unsigned int X, unsigned int Y, unsigned char c);
//   52 
//   53 
//   54 extern void DelayMS(unsigned int msec);
//   55 

        RSEG XDATA_I:XDATA:NOROOT(0)
//   56 unsigned int  Color    = YELLOW; // 前景颜色
Color:
        DATA16
        DS 2
        REQUIRE `?<Initializer for Color>`
        REQUIRE __INIT_XDATA_I

        RSEG XDATA_I:XDATA:NOROOT(0)
//   57 unsigned int  Color_BK = BLUE;   // 背景颜色
Color_BK:
        DATA16
        DS 2
        REQUIRE `?<Initializer for Color_BK>`
        REQUIRE __INIT_XDATA_I
//   58 
//   59 
//   60 
//   61 //向SPI总线传输一个8位数据

        RSEG BANKED_CODE:CODE:NOROOT(0)
//   62 void  SendByte(unsigned char Data)
SendByte:
        CFI Block cfiBlock0 Using cfiCommon0
        CFI Function SendByte
        CODE
//   63 {
        ; Saved register size: 0
        ; Auto size: 0
//   64   unsigned char i=0;
//   65   
//   66   for(i=8;i>0;i--)
        MOV     R0,#0x8
//   67   {
//   68     if(Data&0x80)	
??SendByte_0:
        MOV     A,R1
        MOV     C,0xE0 /* A   */.7
        JNC     ??SendByte_1
//   69       LCD_SDA_SET;//输出数据
        SETB    0x90.3
        SJMP    ??SendByte_2
//   70     else 
//   71       LCD_SDA_CLR;
??SendByte_1:
        CLR     0x90.3
//   72     
//   73     LCD_SCL_CLR;       
??SendByte_2:
        CLR     0x90.2
//   74     LCD_SCL_SET;
        SETB    0x90.2
//   75     Data<<=1; 
        CLR     C
        RLC     A
        MOV     R1,A
//   76   }
        DEC     R0
        MOV     A,R0
        JNZ     ??SendByte_0
//   77 }
        LJMP    ?BRET
        CFI EndBlock cfiBlock0
        REQUIRE _A_P1
//   78 
//   79 //向SPI总线传输一个8位数据

        RSEG BANKED_CODE:CODE:NOROOT(0)
//   80 void  SPI_WriteData(unsigned char Data)
SPI_WriteData:
        CFI Block cfiBlock1 Using cfiCommon0
        CFI Function SPI_WriteData
        CODE
//   81 {
        ; Saved register size: 0
        ; Auto size: 0
//   82   unsigned char i=0;
//   83   
//   84   for(i=8;i>0;i--)
        MOV     R0,#0x8
//   85   {
//   86     if(Data&0x80)	
??SPI_WriteData_0:
        MOV     A,R1
        MOV     C,0xE0 /* A   */.7
        JNC     ??SPI_WriteData_1
//   87       LCD_SDA_SET;//输出数据
        SETB    0x90.3
        SJMP    ??SPI_WriteData_2
//   88     else 
//   89       LCD_SDA_CLR;
??SPI_WriteData_1:
        CLR     0x90.3
//   90     
//   91     LCD_SCL_CLR;       
??SPI_WriteData_2:
        CLR     0x90.2
//   92     LCD_SCL_SET;
        SETB    0x90.2
//   93     Data<<=1; 
        CLR     C
        RLC     A
        MOV     R1,A
//   94   }
        DEC     R0
        MOV     A,R0
        JNZ     ??SPI_WriteData_0
//   95 }
        LJMP    ?BRET
        CFI EndBlock cfiBlock1
        REQUIRE _A_P1
//   96 
//   97 //向液晶屏写一个8位指令

        RSEG BANKED_CODE:CODE:NOROOT(0)
//   98 void Lcd_WriteIndex(unsigned char Index)
Lcd_WriteIndex:
        CFI Block cfiBlock2 Using cfiCommon0
        CFI Function Lcd_WriteIndex
        CODE
//   99 { 
        FUNCALL Lcd_WriteIndex, SPI_WriteData
        LOCFRAME ISTACK, 0, STACK
        LOCFRAME PSTACK, 0, STACK
        LOCFRAME XSTACK, 9, STACK
        LOCFRAME IOVERLAY, 0, STATIC
        LOCFRAME DOVERLAY, 0, STATIC
        ARGFRAME ISTACK, 0, STACK
        ARGFRAME PSTACK, 0, STACK
        ARGFRAME XSTACK, 9, STACK
        ARGFRAME IOVERLAY, 0, STATIC
        ARGFRAME DOVERLAY, 0, STATIC
        MOV     A,#-0x9
        LCALL   ?BANKED_ENTER_XDATA
        CFI DPH0 load(1, XDATA, add(CFA_XSP16, literal(-1)))
        CFI DPL0 load(1, XDATA, add(CFA_XSP16, literal(-2)))
        CFI ?BRET_EXT load(1, XDATA, add(CFA_XSP16, literal(-3)))
        CFI ?RET_HIGH load(1, XDATA, add(CFA_XSP16, literal(-4)))
        CFI ?RET_LOW load(1, XDATA, add(CFA_XSP16, literal(-5)))
        CFI R7 load(1, XDATA, add(CFA_XSP16, literal(-6)))
        CFI V0 load(1, XDATA, add(CFA_XSP16, literal(-7)))
        CFI VB load(1, XDATA, add(CFA_XSP16, literal(-8)))
        CFI R6 load(1, XDATA, add(CFA_XSP16, literal(-9)))
        CFI CFA_SP SP+0
        CFI CFA_XSP16 add(XSP16, 9)
        ; Saved register size: 9
        ; Auto size: 0
//  100   //LCD_CS_CLR;  //ALD del  SPI写命令时序开始
//  101   LCD_DC_CLR;
        CLR     0x80.0
//  102   SPI_WriteData(Index);
        ; Setup parameters for call to function SPI_WriteData
        SJMP    ?Subroutine1
        CFI EndBlock cfiBlock2
        REQUIRE _A_P0
//  103   //LCD_CS_SET;  //ALD del
//  104 }
//  105 
//  106 //向液晶屏写一个8位数据

        RSEG BANKED_CODE:CODE:NOROOT(0)
//  107 void Lcd_WriteData(unsigned char Data)
Lcd_WriteData:
        CFI Block cfiBlock3 Using cfiCommon0
        CFI Function Lcd_WriteData
        CODE
//  108 {
        FUNCALL Lcd_WriteData, SPI_WriteData
        LOCFRAME ISTACK, 0, STACK
        LOCFRAME PSTACK, 0, STACK
        LOCFRAME XSTACK, 9, STACK
        LOCFRAME IOVERLAY, 0, STATIC
        LOCFRAME DOVERLAY, 0, STATIC
        ARGFRAME ISTACK, 0, STACK
        ARGFRAME PSTACK, 0, STACK
        ARGFRAME XSTACK, 9, STACK
        ARGFRAME IOVERLAY, 0, STATIC
        ARGFRAME DOVERLAY, 0, STATIC
        MOV     A,#-0x9
        LCALL   ?BANKED_ENTER_XDATA
        CFI DPH0 load(1, XDATA, add(CFA_XSP16, literal(-1)))
        CFI DPL0 load(1, XDATA, add(CFA_XSP16, literal(-2)))
        CFI ?BRET_EXT load(1, XDATA, add(CFA_XSP16, literal(-3)))
        CFI ?RET_HIGH load(1, XDATA, add(CFA_XSP16, literal(-4)))
        CFI ?RET_LOW load(1, XDATA, add(CFA_XSP16, literal(-5)))
        CFI R7 load(1, XDATA, add(CFA_XSP16, literal(-6)))
        CFI V0 load(1, XDATA, add(CFA_XSP16, literal(-7)))
        CFI VB load(1, XDATA, add(CFA_XSP16, literal(-8)))
        CFI R6 load(1, XDATA, add(CFA_XSP16, literal(-9)))
        CFI CFA_SP SP+0
        CFI CFA_XSP16 add(XSP16, 9)
        ; Saved register size: 9
        ; Auto size: 0
//  109   //LCD_CS_CLR;  //ALD del
//  110   LCD_DC_SET;
        SETB    0x80.0
//  111   SPI_WriteData(Data);
        ; Setup parameters for call to function SPI_WriteData
        SJMP    ?Subroutine1
        CFI EndBlock cfiBlock3
        REQUIRE _A_P0
//  112   //LCD_CS_SET;  //ALD del 
//  113 }
//  114 
//  115 //向液晶屏写一个16位数据
//  116 

        RSEG BANKED_CODE:CODE:NOROOT(0)
//  117 void LCD_WriteData_16Bit(unsigned short Data)
LCD_WriteData_16Bit:
        CFI Block cfiBlock4 Using cfiCommon0
        CFI Function LCD_WriteData_16Bit
        CODE
//  118 {
        FUNCALL LCD_WriteData_16Bit, SPI_WriteData
        LOCFRAME ISTACK, 0, STACK
        LOCFRAME PSTACK, 0, STACK
        LOCFRAME XSTACK, 9, STACK
        LOCFRAME IOVERLAY, 0, STATIC
        LOCFRAME DOVERLAY, 0, STATIC
        ARGFRAME ISTACK, 0, STACK
        ARGFRAME PSTACK, 0, STACK
        ARGFRAME XSTACK, 9, STACK
        ARGFRAME IOVERLAY, 0, STATIC
        ARGFRAME DOVERLAY, 0, STATIC
        FUNCALL LCD_WriteData_16Bit, SPI_WriteData
        LOCFRAME ISTACK, 0, STACK
        LOCFRAME PSTACK, 0, STACK
        LOCFRAME XSTACK, 9, STACK
        LOCFRAME IOVERLAY, 0, STATIC
        LOCFRAME DOVERLAY, 0, STATIC
        ARGFRAME ISTACK, 0, STACK
        ARGFRAME PSTACK, 0, STACK
        ARGFRAME XSTACK, 9, STACK
        ARGFRAME IOVERLAY, 0, STATIC
        ARGFRAME DOVERLAY, 0, STATIC
        MOV     A,#-0x9
        LCALL   ?BANKED_ENTER_XDATA
        CFI DPH0 load(1, XDATA, add(CFA_XSP16, literal(-1)))
        CFI DPL0 load(1, XDATA, add(CFA_XSP16, literal(-2)))
        CFI ?BRET_EXT load(1, XDATA, add(CFA_XSP16, literal(-3)))
        CFI ?RET_HIGH load(1, XDATA, add(CFA_XSP16, literal(-4)))
        CFI ?RET_LOW load(1, XDATA, add(CFA_XSP16, literal(-5)))
        CFI R7 load(1, XDATA, add(CFA_XSP16, literal(-6)))
        CFI V0 load(1, XDATA, add(CFA_XSP16, literal(-7)))
        CFI VB load(1, XDATA, add(CFA_XSP16, literal(-8)))
        CFI R6 load(1, XDATA, add(CFA_XSP16, literal(-9)))
        CFI CFA_SP SP+0
        CFI CFA_XSP16 add(XSP16, 9)
        ; Saved register size: 9
        ; Auto size: 0
        MOV     A,R2
        MOV     R6,A
        MOV     A,R3
//  119   //LCD_CS_CLR;  //ALD del
//  120   LCD_DC_SET;
        SETB    0x80.0
//  121   SPI_WriteData(Data>>8); //写入高8位数据
        ; Setup parameters for call to function SPI_WriteData
        MOV     R1,A
        LCALL   ??SPI_WriteData?relay
//  122   SPI_WriteData(Data); 	  //写入低8位数据
        ; Setup parameters for call to function SPI_WriteData
        MOV     A,R6
        MOV     R1,A
        CFI EndBlock cfiBlock4
        REQUIRE ?Subroutine1
        REQUIRE _A_P0
        ; // Fall through to label ?Subroutine1
//  123   //LCD_CS_SET;  //ALD del 
//  124 }

        RSEG BANKED_CODE:CODE:NOROOT(0)
?Subroutine1:
        CFI Block cfiBlock5 Using cfiCommon0
        CFI NoFunction
        CFI CFA_SP SP+0
        CFI CFA_XSP16 add(XSP16, 9)
        CFI VB load(1, XDATA, add(CFA_XSP16, literal(-8)))
        CFI DPL0 load(1, XDATA, add(CFA_XSP16, literal(-2)))
        CFI DPH0 load(1, XDATA, add(CFA_XSP16, literal(-1)))
        CFI R6 load(1, XDATA, add(CFA_XSP16, literal(-9)))
        CFI R7 load(1, XDATA, add(CFA_XSP16, literal(-6)))
        CFI V0 load(1, XDATA, add(CFA_XSP16, literal(-7)))
        CFI ?BRET_EXT load(1, XDATA, add(CFA_XSP16, literal(-3)))
        CFI ?RET_HIGH load(1, XDATA, add(CFA_XSP16, literal(-4)))
        CFI ?RET_LOW load(1, XDATA, add(CFA_XSP16, literal(-5)))
        LCALL   ??SPI_WriteData?relay
        CFI EndBlock cfiBlock5
        REQUIRE ??Subroutine35_0
        ; // Fall through to label ??Subroutine35_0

        RSEG BANKED_CODE:CODE:NOROOT(0)
??Subroutine35_0:
        CFI Block cfiBlock6 Using cfiCommon0
        CFI NoFunction
        CFI CFA_SP SP+0
        CFI CFA_XSP16 add(XSP16, 9)
        CFI VB load(1, XDATA, add(CFA_XSP16, literal(-8)))
        CFI DPL0 load(1, XDATA, add(CFA_XSP16, literal(-2)))
        CFI DPH0 load(1, XDATA, add(CFA_XSP16, literal(-1)))
        CFI R6 load(1, XDATA, add(CFA_XSP16, literal(-9)))
        CFI R7 load(1, XDATA, add(CFA_XSP16, literal(-6)))
        CFI V0 load(1, XDATA, add(CFA_XSP16, literal(-7)))
        CFI ?BRET_EXT load(1, XDATA, add(CFA_XSP16, literal(-3)))
        CFI ?RET_HIGH load(1, XDATA, add(CFA_XSP16, literal(-4)))
        CFI ?RET_LOW load(1, XDATA, add(CFA_XSP16, literal(-5)))
        MOV     R7,#0x1
        LJMP    ?BANKED_LEAVE_XDATA
        CFI EndBlock cfiBlock6
//  125 
//  126 /****************************************************************************
//  127 * 名    称: LCD_write_byte()
//  128 * 功    能: 数据到LCD 
//  129 * 入口参数: data    ―写入的数据
//  130 *           command ―写数据/命令选择  
//  131 * 出口参数: 无 
//  132 ****************************************************************************/

        RSEG BANKED_CODE:CODE:NOROOT(0)
//  133 static void LCD_write_byte(unsigned char data, unsigned char command)
LCD_write_byte:
        CFI Block cfiBlock7 Using cfiCommon0
        CFI Function LCD_write_byte
        CODE
//  134 {
        FUNCALL LCD_write_byte, Lcd_WriteIndex
        LOCFRAME ISTACK, 0, STACK
        LOCFRAME PSTACK, 0, STACK
        LOCFRAME XSTACK, 9, STACK
        LOCFRAME IOVERLAY, 0, STATIC
        LOCFRAME DOVERLAY, 0, STATIC
        ARGFRAME ISTACK, 0, STACK
        ARGFRAME PSTACK, 0, STACK
        ARGFRAME XSTACK, 9, STACK
        ARGFRAME IOVERLAY, 0, STATIC
        ARGFRAME DOVERLAY, 0, STATIC
        FUNCALL LCD_write_byte, Lcd_WriteData
        LOCFRAME ISTACK, 0, STACK
        LOCFRAME PSTACK, 0, STACK
        LOCFRAME XSTACK, 9, STACK
        LOCFRAME IOVERLAY, 0, STATIC
        LOCFRAME DOVERLAY, 0, STATIC
        ARGFRAME ISTACK, 0, STACK
        ARGFRAME PSTACK, 0, STACK
        ARGFRAME XSTACK, 9, STACK
        ARGFRAME IOVERLAY, 0, STATIC
        ARGFRAME DOVERLAY, 0, STATIC
        MOV     A,#-0x9
        LCALL   ?BANKED_ENTER_XDATA
        CFI DPH0 load(1, XDATA, add(CFA_XSP16, literal(-1)))
        CFI DPL0 load(1, XDATA, add(CFA_XSP16, literal(-2)))
        CFI ?BRET_EXT load(1, XDATA, add(CFA_XSP16, literal(-3)))
        CFI ?RET_HIGH load(1, XDATA, add(CFA_XSP16, literal(-4)))
        CFI ?RET_LOW load(1, XDATA, add(CFA_XSP16, literal(-5)))
        CFI R7 load(1, XDATA, add(CFA_XSP16, literal(-6)))
        CFI V0 load(1, XDATA, add(CFA_XSP16, literal(-7)))
        CFI VB load(1, XDATA, add(CFA_XSP16, literal(-8)))
        CFI R6 load(1, XDATA, add(CFA_XSP16, literal(-9)))
        CFI CFA_SP SP+0
        CFI CFA_XSP16 add(XSP16, 9)
        ; Saved register size: 9
        ; Auto size: 0
        MOV     A,R2
//  135   ////LCD_CS_CLR ;// 使能LCD
//  136   if (command == 0)
        JNZ     ??LCD_write_byte_0
//  137     Lcd_WriteIndex(data); // 传送命令
        ; Setup parameters for call to function Lcd_WriteIndex
        LCALL   ??Lcd_WriteIndex?relay
        SJMP    ??LCD_write_byte_1
//  138   else
//  139     Lcd_WriteData(data) ; // 传送数据
??LCD_write_byte_0:
        ; Setup parameters for call to function Lcd_WriteData
        LCALL   ??Lcd_WriteData?relay
//  140   //SendByte(data);
//  141   //LCD_CS_SET; // 关闭LCD
//  142   //LCD_DC_SET;	
//  143 }
??LCD_write_byte_1:
        SJMP    ??Subroutine35_0
        CFI EndBlock cfiBlock7
//  144 
//  145 /****************************************************************************
//  146 * 名    称: SPI_Init()
//  147 * 功    能: 初始化硬件SPI接口
//  148 * 入口参数: 无
//  149 * 出口参数: 无
//  150 ****************************************************************************/

        RSEG BANKED_CODE:CODE:NOROOT(0)
//  151 void SPI_Init(void)
SPI_Init:
        CFI Block cfiBlock8 Using cfiCommon0
        CFI Function SPI_Init
        CODE
//  152 {
        ; Saved register size: 0
        ; Auto size: 0
//  153   PERCFG |= 0x02; //将UART1设置为SPI模式
        ORL     0xf1,#0x2
//  154   P1SEL  |= 0x60; //将P16/P15设置为SPI设备功能
        ORL     0xf4,#0x60
//  155   U1BAUD  = 0x00; 
        MOV     0xfa,#0x0
//  156   U1CSR   = 0x00;
        MOV     0xf8,#0x0
//  157   U1GCR   = 0xF3; //SPICLK=系统时钟/2, 主模式, MSB在前
        MOV     0xfc,#-0xd
//  158 }
        LJMP    ?BRET
        CFI EndBlock cfiBlock8
        REQUIRE PERCFG
        REQUIRE P1SEL
        REQUIRE U1BAUD
        REQUIRE _A_U1CSR
        REQUIRE U1GCR
//  159 
//  160 // 复位lcd

        RSEG BANKED_CODE:CODE:NOROOT(0)
//  161 void Lcd_Reset(void)
Lcd_Reset:
        CFI Block cfiBlock9 Using cfiCommon0
        CFI Function Lcd_Reset
        CODE
//  162 {
        FUNCALL Lcd_Reset, DelayMS
        LOCFRAME ISTACK, 2, STACK
        LOCFRAME PSTACK, 0, STACK
        LOCFRAME XSTACK, 0, STACK
        LOCFRAME IOVERLAY, 0, STATIC
        LOCFRAME DOVERLAY, 0, STATIC
        ARGFRAME ISTACK, 2, STACK
        ARGFRAME PSTACK, 0, STACK
        ARGFRAME XSTACK, 0, STACK
        ARGFRAME IOVERLAY, 0, STATIC
        ARGFRAME DOVERLAY, 0, STATIC
        FUNCALL Lcd_Reset, DelayMS
        LOCFRAME ISTACK, 2, STACK
        LOCFRAME PSTACK, 0, STACK
        LOCFRAME XSTACK, 0, STACK
        LOCFRAME IOVERLAY, 0, STATIC
        LOCFRAME DOVERLAY, 0, STATIC
        ARGFRAME ISTACK, 2, STACK
        ARGFRAME PSTACK, 0, STACK
        ARGFRAME XSTACK, 0, STACK
        ARGFRAME IOVERLAY, 0, STATIC
        ARGFRAME DOVERLAY, 0, STATIC
        PUSH    DPL
        CFI DPL0 Frame(CFA_SP, 4)
        CFI CFA_SP SP+-4
        PUSH    DPH
        CFI DPH0 Frame(CFA_SP, 5)
        CFI CFA_SP SP+-5
        ; Saved register size: 2
        ; Auto size: 0
//  163   LCD_RST_CLR;
        CLR     0x90.7
//  164   DelayMS(150);
        ; Setup parameters for call to function DelayMS
        MOV     R2,#-0x6a
        MOV     R3,#0x0
        LCALL   ??DelayMS?relay
//  165   LCD_RST_SET;
        SETB    0x90.7
//  166   DelayMS(50);
        ; Setup parameters for call to function DelayMS
        MOV     R2,#0x32
        MOV     R3,#0x0
        LCALL   ??DelayMS?relay
        CFI EndBlock cfiBlock9
//  167 }
        REQUIRE ?Subroutine0
        REQUIRE _A_P1
        ; // Fall through to label ?Subroutine0

        RSEG BANKED_CODE:CODE:NOROOT(0)
?Subroutine0:
        CFI Block cfiBlock10 Using cfiCommon0
        CFI NoFunction
        CFI CFA_SP SP+-5
        CFI DPL0 Frame(CFA_SP, 4)
        CFI DPH0 Frame(CFA_SP, 5)
        POP     DPH
        CFI CFA_SP SP+-4
        CFI DPH0 SameValue
        POP     DPL
        CFI CFA_SP SP+-3
        CFI DPL0 SameValue
        LJMP    ?BRET
        CFI EndBlock cfiBlock10
//  168 
//  169 //初始化SPI接口彩色TFT液晶，控制器为ST7735 

        RSEG BANKED_CODE:CODE:NOROOT(0)
//  170 void InitLcd(void)
InitLcd:
        CFI Block cfiBlock11 Using cfiCommon0
        CFI Function InitLcd
        CODE
//  171 {
        FUNCALL InitLcd, Lcd_Reset
        LOCFRAME ISTACK, 2, STACK
        LOCFRAME PSTACK, 0, STACK
        LOCFRAME XSTACK, 0, STACK
        LOCFRAME IOVERLAY, 0, STATIC
        LOCFRAME DOVERLAY, 0, STATIC
        ARGFRAME ISTACK, 2, STACK
        ARGFRAME PSTACK, 0, STACK
        ARGFRAME XSTACK, 0, STACK
        ARGFRAME IOVERLAY, 0, STATIC
        ARGFRAME DOVERLAY, 0, STATIC
        FUNCALL InitLcd, LCD_write_byte
        LOCFRAME ISTACK, 2, STACK
        LOCFRAME PSTACK, 0, STACK
        LOCFRAME XSTACK, 0, STACK
        LOCFRAME IOVERLAY, 0, STATIC
        LOCFRAME DOVERLAY, 0, STATIC
        ARGFRAME ISTACK, 2, STACK
        ARGFRAME PSTACK, 0, STACK
        ARGFRAME XSTACK, 0, STACK
        ARGFRAME IOVERLAY, 0, STATIC
        ARGFRAME DOVERLAY, 0, STATIC
        FUNCALL InitLcd, DelayMS
        LOCFRAME ISTACK, 2, STACK
        LOCFRAME PSTACK, 0, STACK
        LOCFRAME XSTACK, 0, STACK
        LOCFRAME IOVERLAY, 0, STATIC
        LOCFRAME DOVERLAY, 0, STATIC
        ARGFRAME ISTACK, 2, STACK
        ARGFRAME PSTACK, 0, STACK
        ARGFRAME XSTACK, 0, STACK
        ARGFRAME IOVERLAY, 0, STATIC
        ARGFRAME DOVERLAY, 0, STATIC
        FUNCALL InitLcd, LCD_write_byte
        LOCFRAME ISTACK, 2, STACK
        LOCFRAME PSTACK, 0, STACK
        LOCFRAME XSTACK, 0, STACK
        LOCFRAME IOVERLAY, 0, STATIC
        LOCFRAME DOVERLAY, 0, STATIC
        ARGFRAME ISTACK, 2, STACK
        ARGFRAME PSTACK, 0, STACK
        ARGFRAME XSTACK, 0, STACK
        ARGFRAME IOVERLAY, 0, STATIC
        ARGFRAME DOVERLAY, 0, STATIC
        FUNCALL InitLcd, LCD_write_byte
        LOCFRAME ISTACK, 2, STACK
        LOCFRAME PSTACK, 0, STACK
        LOCFRAME XSTACK, 0, STACK
        LOCFRAME IOVERLAY, 0, STATIC
        LOCFRAME DOVERLAY, 0, STATIC
        ARGFRAME ISTACK, 2, STACK
        ARGFRAME PSTACK, 0, STACK
        ARGFRAME XSTACK, 0, STACK
        ARGFRAME IOVERLAY, 0, STATIC
        ARGFRAME DOVERLAY, 0, STATIC
        FUNCALL InitLcd, LCD_write_byte
        LOCFRAME ISTACK, 2, STACK
        LOCFRAME PSTACK, 0, STACK
        LOCFRAME XSTACK, 0, STACK
        LOCFRAME IOVERLAY, 0, STATIC
        LOCFRAME DOVERLAY, 0, STATIC
        ARGFRAME ISTACK, 2, STACK
        ARGFRAME PSTACK, 0, STACK
        ARGFRAME XSTACK, 0, STACK
        ARGFRAME IOVERLAY, 0, STATIC
        ARGFRAME DOVERLAY, 0, STATIC
        FUNCALL InitLcd, LCD_write_byte
        LOCFRAME ISTACK, 2, STACK
        LOCFRAME PSTACK, 0, STACK
        LOCFRAME XSTACK, 0, STACK
        LOCFRAME IOVERLAY, 0, STATIC
        LOCFRAME DOVERLAY, 0, STATIC
        ARGFRAME ISTACK, 2, STACK
        ARGFRAME PSTACK, 0, STACK
        ARGFRAME XSTACK, 0, STACK
        ARGFRAME IOVERLAY, 0, STATIC
        ARGFRAME DOVERLAY, 0, STATIC
        FUNCALL InitLcd, LCD_write_byte
        LOCFRAME ISTACK, 2, STACK
        LOCFRAME PSTACK, 0, STACK
        LOCFRAME XSTACK, 0, STACK
        LOCFRAME IOVERLAY, 0, STATIC
        LOCFRAME DOVERLAY, 0, STATIC
        ARGFRAME ISTACK, 2, STACK
        ARGFRAME PSTACK, 0, STACK
        ARGFRAME XSTACK, 0, STACK
        ARGFRAME IOVERLAY, 0, STATIC
        ARGFRAME DOVERLAY, 0, STATIC
        FUNCALL InitLcd, LCD_write_byte
        LOCFRAME ISTACK, 2, STACK
        LOCFRAME PSTACK, 0, STACK
        LOCFRAME XSTACK, 0, STACK
        LOCFRAME IOVERLAY, 0, STATIC
        LOCFRAME DOVERLAY, 0, STATIC
        ARGFRAME ISTACK, 2, STACK
        ARGFRAME PSTACK, 0, STACK
        ARGFRAME XSTACK, 0, STACK
        ARGFRAME IOVERLAY, 0, STATIC
        ARGFRAME DOVERLAY, 0, STATIC
        FUNCALL InitLcd, LCD_write_byte
        LOCFRAME ISTACK, 2, STACK
        LOCFRAME PSTACK, 0, STACK
        LOCFRAME XSTACK, 0, STACK
        LOCFRAME IOVERLAY, 0, STATIC
        LOCFRAME DOVERLAY, 0, STATIC
        ARGFRAME ISTACK, 2, STACK
        ARGFRAME PSTACK, 0, STACK
        ARGFRAME XSTACK, 0, STACK
        ARGFRAME IOVERLAY, 0, STATIC
        ARGFRAME DOVERLAY, 0, STATIC
        FUNCALL InitLcd, LCD_write_byte
        LOCFRAME ISTACK, 2, STACK
        LOCFRAME PSTACK, 0, STACK
        LOCFRAME XSTACK, 0, STACK
        LOCFRAME IOVERLAY, 0, STATIC
        LOCFRAME DOVERLAY, 0, STATIC
        ARGFRAME ISTACK, 2, STACK
        ARGFRAME PSTACK, 0, STACK
        ARGFRAME XSTACK, 0, STACK
        ARGFRAME IOVERLAY, 0, STATIC
        ARGFRAME DOVERLAY, 0, STATIC
        FUNCALL InitLcd, LCD_write_byte
        LOCFRAME ISTACK, 2, STACK
        LOCFRAME PSTACK, 0, STACK
        LOCFRAME XSTACK, 0, STACK
        LOCFRAME IOVERLAY, 0, STATIC
        LOCFRAME DOVERLAY, 0, STATIC
        ARGFRAME ISTACK, 2, STACK
        ARGFRAME PSTACK, 0, STACK
        ARGFRAME XSTACK, 0, STACK
        ARGFRAME IOVERLAY, 0, STATIC
        ARGFRAME DOVERLAY, 0, STATIC
        FUNCALL InitLcd, LCD_write_byte
        LOCFRAME ISTACK, 2, STACK
        LOCFRAME PSTACK, 0, STACK
        LOCFRAME XSTACK, 0, STACK
        LOCFRAME IOVERLAY, 0, STATIC
        LOCFRAME DOVERLAY, 0, STATIC
        ARGFRAME ISTACK, 2, STACK
        ARGFRAME PSTACK, 0, STACK
        ARGFRAME XSTACK, 0, STACK
        ARGFRAME IOVERLAY, 0, STATIC
        ARGFRAME DOVERLAY, 0, STATIC
        FUNCALL InitLcd, LCD_write_byte
        LOCFRAME ISTACK, 2, STACK
        LOCFRAME PSTACK, 0, STACK
        LOCFRAME XSTACK, 0, STACK
        LOCFRAME IOVERLAY, 0, STATIC
        LOCFRAME DOVERLAY, 0, STATIC
        ARGFRAME ISTACK, 2, STACK
        ARGFRAME PSTACK, 0, STACK
        ARGFRAME XSTACK, 0, STACK
        ARGFRAME IOVERLAY, 0, STATIC
        ARGFRAME DOVERLAY, 0, STATIC
        FUNCALL InitLcd, LCD_write_byte
        LOCFRAME ISTACK, 2, STACK
        LOCFRAME PSTACK, 0, STACK
        LOCFRAME XSTACK, 0, STACK
        LOCFRAME IOVERLAY, 0, STATIC
        LOCFRAME DOVERLAY, 0, STATIC
        ARGFRAME ISTACK, 2, STACK
        ARGFRAME PSTACK, 0, STACK
        ARGFRAME XSTACK, 0, STACK
        ARGFRAME IOVERLAY, 0, STATIC
        ARGFRAME DOVERLAY, 0, STATIC
        FUNCALL InitLcd, LCD_write_byte
        LOCFRAME ISTACK, 2, STACK
        LOCFRAME PSTACK, 0, STACK
        LOCFRAME XSTACK, 0, STACK
        LOCFRAME IOVERLAY, 0, STATIC
        LOCFRAME DOVERLAY, 0, STATIC
        ARGFRAME ISTACK, 2, STACK
        ARGFRAME PSTACK, 0, STACK
        ARGFRAME XSTACK, 0, STACK
        ARGFRAME IOVERLAY, 0, STATIC
        ARGFRAME DOVERLAY, 0, STATIC
        FUNCALL InitLcd, LCD_write_byte
        LOCFRAME ISTACK, 2, STACK
        LOCFRAME PSTACK, 0, STACK
        LOCFRAME XSTACK, 0, STACK
        LOCFRAME IOVERLAY, 0, STATIC
        LOCFRAME DOVERLAY, 0, STATIC
        ARGFRAME ISTACK, 2, STACK
        ARGFRAME PSTACK, 0, STACK
        ARGFRAME XSTACK, 0, STACK
        ARGFRAME IOVERLAY, 0, STATIC
        ARGFRAME DOVERLAY, 0, STATIC
        FUNCALL InitLcd, LCD_write_byte
        LOCFRAME ISTACK, 2, STACK
        LOCFRAME PSTACK, 0, STACK
        LOCFRAME XSTACK, 0, STACK
        LOCFRAME IOVERLAY, 0, STATIC
        LOCFRAME DOVERLAY, 0, STATIC
        ARGFRAME ISTACK, 2, STACK
        ARGFRAME PSTACK, 0, STACK
        ARGFRAME XSTACK, 0, STACK
        ARGFRAME IOVERLAY, 0, STATIC
        ARGFRAME DOVERLAY, 0, STATIC
        FUNCALL InitLcd, LCD_write_byte
        LOCFRAME ISTACK, 2, STACK
        LOCFRAME PSTACK, 0, STACK
        LOCFRAME XSTACK, 0, STACK
        LOCFRAME IOVERLAY, 0, STATIC
        LOCFRAME DOVERLAY, 0, STATIC
        ARGFRAME ISTACK, 2, STACK
        ARGFRAME PSTACK, 0, STACK
        ARGFRAME XSTACK, 0, STACK
        ARGFRAME IOVERLAY, 0, STATIC
        ARGFRAME DOVERLAY, 0, STATIC
        FUNCALL InitLcd, LCD_write_byte
        LOCFRAME ISTACK, 2, STACK
        LOCFRAME PSTACK, 0, STACK
        LOCFRAME XSTACK, 0, STACK
        LOCFRAME IOVERLAY, 0, STATIC
        LOCFRAME DOVERLAY, 0, STATIC
        ARGFRAME ISTACK, 2, STACK
        ARGFRAME PSTACK, 0, STACK
        ARGFRAME XSTACK, 0, STACK
        ARGFRAME IOVERLAY, 0, STATIC
        ARGFRAME DOVERLAY, 0, STATIC
        FUNCALL InitLcd, LCD_write_byte
        LOCFRAME ISTACK, 2, STACK
        LOCFRAME PSTACK, 0, STACK
        LOCFRAME XSTACK, 0, STACK
        LOCFRAME IOVERLAY, 0, STATIC
        LOCFRAME DOVERLAY, 0, STATIC
        ARGFRAME ISTACK, 2, STACK
        ARGFRAME PSTACK, 0, STACK
        ARGFRAME XSTACK, 0, STACK
        ARGFRAME IOVERLAY, 0, STATIC
        ARGFRAME DOVERLAY, 0, STATIC
        FUNCALL InitLcd, LCD_write_byte
        LOCFRAME ISTACK, 2, STACK
        LOCFRAME PSTACK, 0, STACK
        LOCFRAME XSTACK, 0, STACK
        LOCFRAME IOVERLAY, 0, STATIC
        LOCFRAME DOVERLAY, 0, STATIC
        ARGFRAME ISTACK, 2, STACK
        ARGFRAME PSTACK, 0, STACK
        ARGFRAME XSTACK, 0, STACK
        ARGFRAME IOVERLAY, 0, STATIC
        ARGFRAME DOVERLAY, 0, STATIC
        FUNCALL InitLcd, LCD_write_byte
        LOCFRAME ISTACK, 2, STACK
        LOCFRAME PSTACK, 0, STACK
        LOCFRAME XSTACK, 0, STACK
        LOCFRAME IOVERLAY, 0, STATIC
        LOCFRAME DOVERLAY, 0, STATIC
        ARGFRAME ISTACK, 2, STACK
        ARGFRAME PSTACK, 0, STACK
        ARGFRAME XSTACK, 0, STACK
        ARGFRAME IOVERLAY, 0, STATIC
        ARGFRAME DOVERLAY, 0, STATIC
        FUNCALL InitLcd, LCD_write_byte
        LOCFRAME ISTACK, 2, STACK
        LOCFRAME PSTACK, 0, STACK
        LOCFRAME XSTACK, 0, STACK
        LOCFRAME IOVERLAY, 0, STATIC
        LOCFRAME DOVERLAY, 0, STATIC
        ARGFRAME ISTACK, 2, STACK
        ARGFRAME PSTACK, 0, STACK
        ARGFRAME XSTACK, 0, STACK
        ARGFRAME IOVERLAY, 0, STATIC
        ARGFRAME DOVERLAY, 0, STATIC
        FUNCALL InitLcd, LCD_write_byte
        LOCFRAME ISTACK, 2, STACK
        LOCFRAME PSTACK, 0, STACK
        LOCFRAME XSTACK, 0, STACK
        LOCFRAME IOVERLAY, 0, STATIC
        LOCFRAME DOVERLAY, 0, STATIC
        ARGFRAME ISTACK, 2, STACK
        ARGFRAME PSTACK, 0, STACK
        ARGFRAME XSTACK, 0, STACK
        ARGFRAME IOVERLAY, 0, STATIC
        ARGFRAME DOVERLAY, 0, STATIC
        FUNCALL InitLcd, LCD_write_byte
        LOCFRAME ISTACK, 2, STACK
        LOCFRAME PSTACK, 0, STACK
        LOCFRAME XSTACK, 0, STACK
        LOCFRAME IOVERLAY, 0, STATIC
        LOCFRAME DOVERLAY, 0, STATIC
        ARGFRAME ISTACK, 2, STACK
        ARGFRAME PSTACK, 0, STACK
        ARGFRAME XSTACK, 0, STACK
        ARGFRAME IOVERLAY, 0, STATIC
        ARGFRAME DOVERLAY, 0, STATIC
        FUNCALL InitLcd, LCD_write_byte
        LOCFRAME ISTACK, 2, STACK
        LOCFRAME PSTACK, 0, STACK
        LOCFRAME XSTACK, 0, STACK
        LOCFRAME IOVERLAY, 0, STATIC
        LOCFRAME DOVERLAY, 0, STATIC
        ARGFRAME ISTACK, 2, STACK
        ARGFRAME PSTACK, 0, STACK
        ARGFRAME XSTACK, 0, STACK
        ARGFRAME IOVERLAY, 0, STATIC
        ARGFRAME DOVERLAY, 0, STATIC
        FUNCALL InitLcd, LCD_write_byte
        LOCFRAME ISTACK, 2, STACK
        LOCFRAME PSTACK, 0, STACK
        LOCFRAME XSTACK, 0, STACK
        LOCFRAME IOVERLAY, 0, STATIC
        LOCFRAME DOVERLAY, 0, STATIC
        ARGFRAME ISTACK, 2, STACK
        ARGFRAME PSTACK, 0, STACK
        ARGFRAME XSTACK, 0, STACK
        ARGFRAME IOVERLAY, 0, STATIC
        ARGFRAME DOVERLAY, 0, STATIC
        FUNCALL InitLcd, LCD_write_byte
        LOCFRAME ISTACK, 2, STACK
        LOCFRAME PSTACK, 0, STACK
        LOCFRAME XSTACK, 0, STACK
        LOCFRAME IOVERLAY, 0, STATIC
        LOCFRAME DOVERLAY, 0, STATIC
        ARGFRAME ISTACK, 2, STACK
        ARGFRAME PSTACK, 0, STACK
        ARGFRAME XSTACK, 0, STACK
        ARGFRAME IOVERLAY, 0, STATIC
        ARGFRAME DOVERLAY, 0, STATIC
        FUNCALL InitLcd, LCD_write_byte
        LOCFRAME ISTACK, 2, STACK
        LOCFRAME PSTACK, 0, STACK
        LOCFRAME XSTACK, 0, STACK
        LOCFRAME IOVERLAY, 0, STATIC
        LOCFRAME DOVERLAY, 0, STATIC
        ARGFRAME ISTACK, 2, STACK
        ARGFRAME PSTACK, 0, STACK
        ARGFRAME XSTACK, 0, STACK
        ARGFRAME IOVERLAY, 0, STATIC
        ARGFRAME DOVERLAY, 0, STATIC
        FUNCALL InitLcd, LCD_write_byte
        LOCFRAME ISTACK, 2, STACK
        LOCFRAME PSTACK, 0, STACK
        LOCFRAME XSTACK, 0, STACK
        LOCFRAME IOVERLAY, 0, STATIC
        LOCFRAME DOVERLAY, 0, STATIC
        ARGFRAME ISTACK, 2, STACK
        ARGFRAME PSTACK, 0, STACK
        ARGFRAME XSTACK, 0, STACK
        ARGFRAME IOVERLAY, 0, STATIC
        ARGFRAME DOVERLAY, 0, STATIC
        FUNCALL InitLcd, LCD_write_byte
        LOCFRAME ISTACK, 2, STACK
        LOCFRAME PSTACK, 0, STACK
        LOCFRAME XSTACK, 0, STACK
        LOCFRAME IOVERLAY, 0, STATIC
        LOCFRAME DOVERLAY, 0, STATIC
        ARGFRAME ISTACK, 2, STACK
        ARGFRAME PSTACK, 0, STACK
        ARGFRAME XSTACK, 0, STACK
        ARGFRAME IOVERLAY, 0, STATIC
        ARGFRAME DOVERLAY, 0, STATIC
        FUNCALL InitLcd, LCD_write_byte
        LOCFRAME ISTACK, 2, STACK
        LOCFRAME PSTACK, 0, STACK
        LOCFRAME XSTACK, 0, STACK
        LOCFRAME IOVERLAY, 0, STATIC
        LOCFRAME DOVERLAY, 0, STATIC
        ARGFRAME ISTACK, 2, STACK
        ARGFRAME PSTACK, 0, STACK
        ARGFRAME XSTACK, 0, STACK
        ARGFRAME IOVERLAY, 0, STATIC
        ARGFRAME DOVERLAY, 0, STATIC
        FUNCALL InitLcd, LCD_write_byte
        LOCFRAME ISTACK, 2, STACK
        LOCFRAME PSTACK, 0, STACK
        LOCFRAME XSTACK, 0, STACK
        LOCFRAME IOVERLAY, 0, STATIC
        LOCFRAME DOVERLAY, 0, STATIC
        ARGFRAME ISTACK, 2, STACK
        ARGFRAME PSTACK, 0, STACK
        ARGFRAME XSTACK, 0, STACK
        ARGFRAME IOVERLAY, 0, STATIC
        ARGFRAME DOVERLAY, 0, STATIC
        FUNCALL InitLcd, LCD_write_byte
        LOCFRAME ISTACK, 2, STACK
        LOCFRAME PSTACK, 0, STACK
        LOCFRAME XSTACK, 0, STACK
        LOCFRAME IOVERLAY, 0, STATIC
        LOCFRAME DOVERLAY, 0, STATIC
        ARGFRAME ISTACK, 2, STACK
        ARGFRAME PSTACK, 0, STACK
        ARGFRAME XSTACK, 0, STACK
        ARGFRAME IOVERLAY, 0, STATIC
        ARGFRAME DOVERLAY, 0, STATIC
        FUNCALL InitLcd, LCD_write_byte
        LOCFRAME ISTACK, 2, STACK
        LOCFRAME PSTACK, 0, STACK
        LOCFRAME XSTACK, 0, STACK
        LOCFRAME IOVERLAY, 0, STATIC
        LOCFRAME DOVERLAY, 0, STATIC
        ARGFRAME ISTACK, 2, STACK
        ARGFRAME PSTACK, 0, STACK
        ARGFRAME XSTACK, 0, STACK
        ARGFRAME IOVERLAY, 0, STATIC
        ARGFRAME DOVERLAY, 0, STATIC
        FUNCALL InitLcd, LCD_write_byte
        LOCFRAME ISTACK, 2, STACK
        LOCFRAME PSTACK, 0, STACK
        LOCFRAME XSTACK, 0, STACK
        LOCFRAME IOVERLAY, 0, STATIC
        LOCFRAME DOVERLAY, 0, STATIC
        ARGFRAME ISTACK, 2, STACK
        ARGFRAME PSTACK, 0, STACK
        ARGFRAME XSTACK, 0, STACK
        ARGFRAME IOVERLAY, 0, STATIC
        ARGFRAME DOVERLAY, 0, STATIC
        FUNCALL InitLcd, LCD_write_byte
        LOCFRAME ISTACK, 2, STACK
        LOCFRAME PSTACK, 0, STACK
        LOCFRAME XSTACK, 0, STACK
        LOCFRAME IOVERLAY, 0, STATIC
        LOCFRAME DOVERLAY, 0, STATIC
        ARGFRAME ISTACK, 2, STACK
        ARGFRAME PSTACK, 0, STACK
        ARGFRAME XSTACK, 0, STACK
        ARGFRAME IOVERLAY, 0, STATIC
        ARGFRAME DOVERLAY, 0, STATIC
        FUNCALL InitLcd, LCD_write_byte
        LOCFRAME ISTACK, 2, STACK
        LOCFRAME PSTACK, 0, STACK
        LOCFRAME XSTACK, 0, STACK
        LOCFRAME IOVERLAY, 0, STATIC
        LOCFRAME DOVERLAY, 0, STATIC
        ARGFRAME ISTACK, 2, STACK
        ARGFRAME PSTACK, 0, STACK
        ARGFRAME XSTACK, 0, STACK
        ARGFRAME IOVERLAY, 0, STATIC
        ARGFRAME DOVERLAY, 0, STATIC
        FUNCALL InitLcd, LCD_write_byte
        LOCFRAME ISTACK, 2, STACK
        LOCFRAME PSTACK, 0, STACK
        LOCFRAME XSTACK, 0, STACK
        LOCFRAME IOVERLAY, 0, STATIC
        LOCFRAME DOVERLAY, 0, STATIC
        ARGFRAME ISTACK, 2, STACK
        ARGFRAME PSTACK, 0, STACK
        ARGFRAME XSTACK, 0, STACK
        ARGFRAME IOVERLAY, 0, STATIC
        ARGFRAME DOVERLAY, 0, STATIC
        FUNCALL InitLcd, LCD_write_byte
        LOCFRAME ISTACK, 2, STACK
        LOCFRAME PSTACK, 0, STACK
        LOCFRAME XSTACK, 0, STACK
        LOCFRAME IOVERLAY, 0, STATIC
        LOCFRAME DOVERLAY, 0, STATIC
        ARGFRAME ISTACK, 2, STACK
        ARGFRAME PSTACK, 0, STACK
        ARGFRAME XSTACK, 0, STACK
        ARGFRAME IOVERLAY, 0, STATIC
        ARGFRAME DOVERLAY, 0, STATIC
        FUNCALL InitLcd, LCD_write_byte
        LOCFRAME ISTACK, 2, STACK
        LOCFRAME PSTACK, 0, STACK
        LOCFRAME XSTACK, 0, STACK
        LOCFRAME IOVERLAY, 0, STATIC
        LOCFRAME DOVERLAY, 0, STATIC
        ARGFRAME ISTACK, 2, STACK
        ARGFRAME PSTACK, 0, STACK
        ARGFRAME XSTACK, 0, STACK
        ARGFRAME IOVERLAY, 0, STATIC
        ARGFRAME DOVERLAY, 0, STATIC
        FUNCALL InitLcd, LCD_write_byte
        LOCFRAME ISTACK, 2, STACK
        LOCFRAME PSTACK, 0, STACK
        LOCFRAME XSTACK, 0, STACK
        LOCFRAME IOVERLAY, 0, STATIC
        LOCFRAME DOVERLAY, 0, STATIC
        ARGFRAME ISTACK, 2, STACK
        ARGFRAME PSTACK, 0, STACK
        ARGFRAME XSTACK, 0, STACK
        ARGFRAME IOVERLAY, 0, STATIC
        ARGFRAME DOVERLAY, 0, STATIC
        FUNCALL InitLcd, LCD_write_byte
        LOCFRAME ISTACK, 2, STACK
        LOCFRAME PSTACK, 0, STACK
        LOCFRAME XSTACK, 0, STACK
        LOCFRAME IOVERLAY, 0, STATIC
        LOCFRAME DOVERLAY, 0, STATIC
        ARGFRAME ISTACK, 2, STACK
        ARGFRAME PSTACK, 0, STACK
        ARGFRAME XSTACK, 0, STACK
        ARGFRAME IOVERLAY, 0, STATIC
        ARGFRAME DOVERLAY, 0, STATIC
        FUNCALL InitLcd, LCD_write_byte
        LOCFRAME ISTACK, 2, STACK
        LOCFRAME PSTACK, 0, STACK
        LOCFRAME XSTACK, 0, STACK
        LOCFRAME IOVERLAY, 0, STATIC
        LOCFRAME DOVERLAY, 0, STATIC
        ARGFRAME ISTACK, 2, STACK
        ARGFRAME PSTACK, 0, STACK
        ARGFRAME XSTACK, 0, STACK
        ARGFRAME IOVERLAY, 0, STATIC
        ARGFRAME DOVERLAY, 0, STATIC
        FUNCALL InitLcd, LCD_write_byte
        LOCFRAME ISTACK, 2, STACK
        LOCFRAME PSTACK, 0, STACK
        LOCFRAME XSTACK, 0, STACK
        LOCFRAME IOVERLAY, 0, STATIC
        LOCFRAME DOVERLAY, 0, STATIC
        ARGFRAME ISTACK, 2, STACK
        ARGFRAME PSTACK, 0, STACK
        ARGFRAME XSTACK, 0, STACK
        ARGFRAME IOVERLAY, 0, STATIC
        ARGFRAME DOVERLAY, 0, STATIC
        FUNCALL InitLcd, LCD_write_byte
        LOCFRAME ISTACK, 2, STACK
        LOCFRAME PSTACK, 0, STACK
        LOCFRAME XSTACK, 0, STACK
        LOCFRAME IOVERLAY, 0, STATIC
        LOCFRAME DOVERLAY, 0, STATIC
        ARGFRAME ISTACK, 2, STACK
        ARGFRAME PSTACK, 0, STACK
        ARGFRAME XSTACK, 0, STACK
        ARGFRAME IOVERLAY, 0, STATIC
        ARGFRAME DOVERLAY, 0, STATIC
        FUNCALL InitLcd, LCD_write_byte
        LOCFRAME ISTACK, 2, STACK
        LOCFRAME PSTACK, 0, STACK
        LOCFRAME XSTACK, 0, STACK
        LOCFRAME IOVERLAY, 0, STATIC
        LOCFRAME DOVERLAY, 0, STATIC
        ARGFRAME ISTACK, 2, STACK
        ARGFRAME PSTACK, 0, STACK
        ARGFRAME XSTACK, 0, STACK
        ARGFRAME IOVERLAY, 0, STATIC
        ARGFRAME DOVERLAY, 0, STATIC
        FUNCALL InitLcd, LCD_write_byte
        LOCFRAME ISTACK, 2, STACK
        LOCFRAME PSTACK, 0, STACK
        LOCFRAME XSTACK, 0, STACK
        LOCFRAME IOVERLAY, 0, STATIC
        LOCFRAME DOVERLAY, 0, STATIC
        ARGFRAME ISTACK, 2, STACK
        ARGFRAME PSTACK, 0, STACK
        ARGFRAME XSTACK, 0, STACK
        ARGFRAME IOVERLAY, 0, STATIC
        ARGFRAME DOVERLAY, 0, STATIC
        FUNCALL InitLcd, LCD_write_byte
        LOCFRAME ISTACK, 2, STACK
        LOCFRAME PSTACK, 0, STACK
        LOCFRAME XSTACK, 0, STACK
        LOCFRAME IOVERLAY, 0, STATIC
        LOCFRAME DOVERLAY, 0, STATIC
        ARGFRAME ISTACK, 2, STACK
        ARGFRAME PSTACK, 0, STACK
        ARGFRAME XSTACK, 0, STACK
        ARGFRAME IOVERLAY, 0, STATIC
        ARGFRAME DOVERLAY, 0, STATIC
        FUNCALL InitLcd, LCD_write_byte
        LOCFRAME ISTACK, 2, STACK
        LOCFRAME PSTACK, 0, STACK
        LOCFRAME XSTACK, 0, STACK
        LOCFRAME IOVERLAY, 0, STATIC
        LOCFRAME DOVERLAY, 0, STATIC
        ARGFRAME ISTACK, 2, STACK
        ARGFRAME PSTACK, 0, STACK
        ARGFRAME XSTACK, 0, STACK
        ARGFRAME IOVERLAY, 0, STATIC
        ARGFRAME DOVERLAY, 0, STATIC
        FUNCALL InitLcd, LCD_write_byte
        LOCFRAME ISTACK, 2, STACK
        LOCFRAME PSTACK, 0, STACK
        LOCFRAME XSTACK, 0, STACK
        LOCFRAME IOVERLAY, 0, STATIC
        LOCFRAME DOVERLAY, 0, STATIC
        ARGFRAME ISTACK, 2, STACK
        ARGFRAME PSTACK, 0, STACK
        ARGFRAME XSTACK, 0, STACK
        ARGFRAME IOVERLAY, 0, STATIC
        ARGFRAME DOVERLAY, 0, STATIC
        FUNCALL InitLcd, LCD_write_byte
        LOCFRAME ISTACK, 2, STACK
        LOCFRAME PSTACK, 0, STACK
        LOCFRAME XSTACK, 0, STACK
        LOCFRAME IOVERLAY, 0, STATIC
        LOCFRAME DOVERLAY, 0, STATIC
        ARGFRAME ISTACK, 2, STACK
        ARGFRAME PSTACK, 0, STACK
        ARGFRAME XSTACK, 0, STACK
        ARGFRAME IOVERLAY, 0, STATIC
        ARGFRAME DOVERLAY, 0, STATIC
        FUNCALL InitLcd, LCD_write_byte
        LOCFRAME ISTACK, 2, STACK
        LOCFRAME PSTACK, 0, STACK
        LOCFRAME XSTACK, 0, STACK
        LOCFRAME IOVERLAY, 0, STATIC
        LOCFRAME DOVERLAY, 0, STATIC
        ARGFRAME ISTACK, 2, STACK
        ARGFRAME PSTACK, 0, STACK
        ARGFRAME XSTACK, 0, STACK
        ARGFRAME IOVERLAY, 0, STATIC
        ARGFRAME DOVERLAY, 0, STATIC
        FUNCALL InitLcd, LCD_write_byte
        LOCFRAME ISTACK, 2, STACK
        LOCFRAME PSTACK, 0, STACK
        LOCFRAME XSTACK, 0, STACK
        LOCFRAME IOVERLAY, 0, STATIC
        LOCFRAME DOVERLAY, 0, STATIC
        ARGFRAME ISTACK, 2, STACK
        ARGFRAME PSTACK, 0, STACK
        ARGFRAME XSTACK, 0, STACK
        ARGFRAME IOVERLAY, 0, STATIC
        ARGFRAME DOVERLAY, 0, STATIC
        FUNCALL InitLcd, LCD_write_byte
        LOCFRAME ISTACK, 2, STACK
        LOCFRAME PSTACK, 0, STACK
        LOCFRAME XSTACK, 0, STACK
        LOCFRAME IOVERLAY, 0, STATIC
        LOCFRAME DOVERLAY, 0, STATIC
        ARGFRAME ISTACK, 2, STACK
        ARGFRAME PSTACK, 0, STACK
        ARGFRAME XSTACK, 0, STACK
        ARGFRAME IOVERLAY, 0, STATIC
        ARGFRAME DOVERLAY, 0, STATIC
        FUNCALL InitLcd, LCD_write_byte
        LOCFRAME ISTACK, 2, STACK
        LOCFRAME PSTACK, 0, STACK
        LOCFRAME XSTACK, 0, STACK
        LOCFRAME IOVERLAY, 0, STATIC
        LOCFRAME DOVERLAY, 0, STATIC
        ARGFRAME ISTACK, 2, STACK
        ARGFRAME PSTACK, 0, STACK
        ARGFRAME XSTACK, 0, STACK
        ARGFRAME IOVERLAY, 0, STATIC
        ARGFRAME DOVERLAY, 0, STATIC
        FUNCALL InitLcd, LCD_write_byte
        LOCFRAME ISTACK, 2, STACK
        LOCFRAME PSTACK, 0, STACK
        LOCFRAME XSTACK, 0, STACK
        LOCFRAME IOVERLAY, 0, STATIC
        LOCFRAME DOVERLAY, 0, STATIC
        ARGFRAME ISTACK, 2, STACK
        ARGFRAME PSTACK, 0, STACK
        ARGFRAME XSTACK, 0, STACK
        ARGFRAME IOVERLAY, 0, STATIC
        ARGFRAME DOVERLAY, 0, STATIC
        FUNCALL InitLcd, LCD_write_byte
        LOCFRAME ISTACK, 2, STACK
        LOCFRAME PSTACK, 0, STACK
        LOCFRAME XSTACK, 0, STACK
        LOCFRAME IOVERLAY, 0, STATIC
        LOCFRAME DOVERLAY, 0, STATIC
        ARGFRAME ISTACK, 2, STACK
        ARGFRAME PSTACK, 0, STACK
        ARGFRAME XSTACK, 0, STACK
        ARGFRAME IOVERLAY, 0, STATIC
        ARGFRAME DOVERLAY, 0, STATIC
        FUNCALL InitLcd, LCD_write_byte
        LOCFRAME ISTACK, 2, STACK
        LOCFRAME PSTACK, 0, STACK
        LOCFRAME XSTACK, 0, STACK
        LOCFRAME IOVERLAY, 0, STATIC
        LOCFRAME DOVERLAY, 0, STATIC
        ARGFRAME ISTACK, 2, STACK
        ARGFRAME PSTACK, 0, STACK
        ARGFRAME XSTACK, 0, STACK
        ARGFRAME IOVERLAY, 0, STATIC
        ARGFRAME DOVERLAY, 0, STATIC
        FUNCALL InitLcd, LCD_write_byte
        LOCFRAME ISTACK, 2, STACK
        LOCFRAME PSTACK, 0, STACK
        LOCFRAME XSTACK, 0, STACK
        LOCFRAME IOVERLAY, 0, STATIC
        LOCFRAME DOVERLAY, 0, STATIC
        ARGFRAME ISTACK, 2, STACK
        ARGFRAME PSTACK, 0, STACK
        ARGFRAME XSTACK, 0, STACK
        ARGFRAME IOVERLAY, 0, STATIC
        ARGFRAME DOVERLAY, 0, STATIC
        FUNCALL InitLcd, LCD_write_byte
        LOCFRAME ISTACK, 2, STACK
        LOCFRAME PSTACK, 0, STACK
        LOCFRAME XSTACK, 0, STACK
        LOCFRAME IOVERLAY, 0, STATIC
        LOCFRAME DOVERLAY, 0, STATIC
        ARGFRAME ISTACK, 2, STACK
        ARGFRAME PSTACK, 0, STACK
        ARGFRAME XSTACK, 0, STACK
        ARGFRAME IOVERLAY, 0, STATIC
        ARGFRAME DOVERLAY, 0, STATIC
        FUNCALL InitLcd, LCD_write_byte
        LOCFRAME ISTACK, 2, STACK
        LOCFRAME PSTACK, 0, STACK
        LOCFRAME XSTACK, 0, STACK
        LOCFRAME IOVERLAY, 0, STATIC
        LOCFRAME DOVERLAY, 0, STATIC
        ARGFRAME ISTACK, 2, STACK
        ARGFRAME PSTACK, 0, STACK
        ARGFRAME XSTACK, 0, STACK
        ARGFRAME IOVERLAY, 0, STATIC
        ARGFRAME DOVERLAY, 0, STATIC
        FUNCALL InitLcd, LCD_write_byte
        LOCFRAME ISTACK, 2, STACK
        LOCFRAME PSTACK, 0, STACK
        LOCFRAME XSTACK, 0, STACK
        LOCFRAME IOVERLAY, 0, STATIC
        LOCFRAME DOVERLAY, 0, STATIC
        ARGFRAME ISTACK, 2, STACK
        ARGFRAME PSTACK, 0, STACK
        ARGFRAME XSTACK, 0, STACK
        ARGFRAME IOVERLAY, 0, STATIC
        ARGFRAME DOVERLAY, 0, STATIC
        FUNCALL InitLcd, LCD_write_byte
        LOCFRAME ISTACK, 2, STACK
        LOCFRAME PSTACK, 0, STACK
        LOCFRAME XSTACK, 0, STACK
        LOCFRAME IOVERLAY, 0, STATIC
        LOCFRAME DOVERLAY, 0, STATIC
        ARGFRAME ISTACK, 2, STACK
        ARGFRAME PSTACK, 0, STACK
        ARGFRAME XSTACK, 0, STACK
        ARGFRAME IOVERLAY, 0, STATIC
        ARGFRAME DOVERLAY, 0, STATIC
        FUNCALL InitLcd, LCD_write_byte
        LOCFRAME ISTACK, 2, STACK
        LOCFRAME PSTACK, 0, STACK
        LOCFRAME XSTACK, 0, STACK
        LOCFRAME IOVERLAY, 0, STATIC
        LOCFRAME DOVERLAY, 0, STATIC
        ARGFRAME ISTACK, 2, STACK
        ARGFRAME PSTACK, 0, STACK
        ARGFRAME XSTACK, 0, STACK
        ARGFRAME IOVERLAY, 0, STATIC
        ARGFRAME DOVERLAY, 0, STATIC
        FUNCALL InitLcd, LCD_write_byte
        LOCFRAME ISTACK, 2, STACK
        LOCFRAME PSTACK, 0, STACK
        LOCFRAME XSTACK, 0, STACK
        LOCFRAME IOVERLAY, 0, STATIC
        LOCFRAME DOVERLAY, 0, STATIC
        ARGFRAME ISTACK, 2, STACK
        ARGFRAME PSTACK, 0, STACK
        ARGFRAME XSTACK, 0, STACK
        ARGFRAME IOVERLAY, 0, STATIC
        ARGFRAME DOVERLAY, 0, STATIC
        FUNCALL InitLcd, LCD_write_byte
        LOCFRAME ISTACK, 2, STACK
        LOCFRAME PSTACK, 0, STACK
        LOCFRAME XSTACK, 0, STACK
        LOCFRAME IOVERLAY, 0, STATIC
        LOCFRAME DOVERLAY, 0, STATIC
        ARGFRAME ISTACK, 2, STACK
        ARGFRAME PSTACK, 0, STACK
        ARGFRAME XSTACK, 0, STACK
        ARGFRAME IOVERLAY, 0, STATIC
        ARGFRAME DOVERLAY, 0, STATIC
        FUNCALL InitLcd, LCD_write_byte
        LOCFRAME ISTACK, 2, STACK
        LOCFRAME PSTACK, 0, STACK
        LOCFRAME XSTACK, 0, STACK
        LOCFRAME IOVERLAY, 0, STATIC
        LOCFRAME DOVERLAY, 0, STATIC
        ARGFRAME ISTACK, 2, STACK
        ARGFRAME PSTACK, 0, STACK
        ARGFRAME XSTACK, 0, STACK
        ARGFRAME IOVERLAY, 0, STATIC
        ARGFRAME DOVERLAY, 0, STATIC
        FUNCALL InitLcd, LCD_write_byte
        LOCFRAME ISTACK, 2, STACK
        LOCFRAME PSTACK, 0, STACK
        LOCFRAME XSTACK, 0, STACK
        LOCFRAME IOVERLAY, 0, STATIC
        LOCFRAME DOVERLAY, 0, STATIC
        ARGFRAME ISTACK, 2, STACK
        ARGFRAME PSTACK, 0, STACK
        ARGFRAME XSTACK, 0, STACK
        ARGFRAME IOVERLAY, 0, STATIC
        ARGFRAME DOVERLAY, 0, STATIC
        FUNCALL InitLcd, LCD_write_byte
        LOCFRAME ISTACK, 2, STACK
        LOCFRAME PSTACK, 0, STACK
        LOCFRAME XSTACK, 0, STACK
        LOCFRAME IOVERLAY, 0, STATIC
        LOCFRAME DOVERLAY, 0, STATIC
        ARGFRAME ISTACK, 2, STACK
        ARGFRAME PSTACK, 0, STACK
        ARGFRAME XSTACK, 0, STACK
        ARGFRAME IOVERLAY, 0, STATIC
        ARGFRAME DOVERLAY, 0, STATIC
        FUNCALL InitLcd, LCD_write_byte
        LOCFRAME ISTACK, 2, STACK
        LOCFRAME PSTACK, 0, STACK
        LOCFRAME XSTACK, 0, STACK
        LOCFRAME IOVERLAY, 0, STATIC
        LOCFRAME DOVERLAY, 0, STATIC
        ARGFRAME ISTACK, 2, STACK
        ARGFRAME PSTACK, 0, STACK
        ARGFRAME XSTACK, 0, STACK
        ARGFRAME IOVERLAY, 0, STATIC
        ARGFRAME DOVERLAY, 0, STATIC
        FUNCALL InitLcd, LCD_write_byte
        LOCFRAME ISTACK, 2, STACK
        LOCFRAME PSTACK, 0, STACK
        LOCFRAME XSTACK, 0, STACK
        LOCFRAME IOVERLAY, 0, STATIC
        LOCFRAME DOVERLAY, 0, STATIC
        ARGFRAME ISTACK, 2, STACK
        ARGFRAME PSTACK, 0, STACK
        ARGFRAME XSTACK, 0, STACK
        ARGFRAME IOVERLAY, 0, STATIC
        ARGFRAME DOVERLAY, 0, STATIC
        FUNCALL InitLcd, LCD_write_byte
        LOCFRAME ISTACK, 2, STACK
        LOCFRAME PSTACK, 0, STACK
        LOCFRAME XSTACK, 0, STACK
        LOCFRAME IOVERLAY, 0, STATIC
        LOCFRAME DOVERLAY, 0, STATIC
        ARGFRAME ISTACK, 2, STACK
        ARGFRAME PSTACK, 0, STACK
        ARGFRAME XSTACK, 0, STACK
        ARGFRAME IOVERLAY, 0, STATIC
        ARGFRAME DOVERLAY, 0, STATIC
        FUNCALL InitLcd, LCD_write_byte
        LOCFRAME ISTACK, 2, STACK
        LOCFRAME PSTACK, 0, STACK
        LOCFRAME XSTACK, 0, STACK
        LOCFRAME IOVERLAY, 0, STATIC
        LOCFRAME DOVERLAY, 0, STATIC
        ARGFRAME ISTACK, 2, STACK
        ARGFRAME PSTACK, 0, STACK
        ARGFRAME XSTACK, 0, STACK
        ARGFRAME IOVERLAY, 0, STATIC
        ARGFRAME DOVERLAY, 0, STATIC
        FUNCALL InitLcd, LCD_write_byte
        LOCFRAME ISTACK, 2, STACK
        LOCFRAME PSTACK, 0, STACK
        LOCFRAME XSTACK, 0, STACK
        LOCFRAME IOVERLAY, 0, STATIC
        LOCFRAME DOVERLAY, 0, STATIC
        ARGFRAME ISTACK, 2, STACK
        ARGFRAME PSTACK, 0, STACK
        ARGFRAME XSTACK, 0, STACK
        ARGFRAME IOVERLAY, 0, STATIC
        ARGFRAME DOVERLAY, 0, STATIC
        FUNCALL InitLcd, LCD_write_byte
        LOCFRAME ISTACK, 2, STACK
        LOCFRAME PSTACK, 0, STACK
        LOCFRAME XSTACK, 0, STACK
        LOCFRAME IOVERLAY, 0, STATIC
        LOCFRAME DOVERLAY, 0, STATIC
        ARGFRAME ISTACK, 2, STACK
        ARGFRAME PSTACK, 0, STACK
        ARGFRAME XSTACK, 0, STACK
        ARGFRAME IOVERLAY, 0, STATIC
        ARGFRAME DOVERLAY, 0, STATIC
        FUNCALL InitLcd, LCD_write_byte
        LOCFRAME ISTACK, 2, STACK
        LOCFRAME PSTACK, 0, STACK
        LOCFRAME XSTACK, 0, STACK
        LOCFRAME IOVERLAY, 0, STATIC
        LOCFRAME DOVERLAY, 0, STATIC
        ARGFRAME ISTACK, 2, STACK
        ARGFRAME PSTACK, 0, STACK
        ARGFRAME XSTACK, 0, STACK
        ARGFRAME IOVERLAY, 0, STATIC
        ARGFRAME DOVERLAY, 0, STATIC
        FUNCALL InitLcd, LCD_write_byte
        LOCFRAME ISTACK, 2, STACK
        LOCFRAME PSTACK, 0, STACK
        LOCFRAME XSTACK, 0, STACK
        LOCFRAME IOVERLAY, 0, STATIC
        LOCFRAME DOVERLAY, 0, STATIC
        ARGFRAME ISTACK, 2, STACK
        ARGFRAME PSTACK, 0, STACK
        ARGFRAME XSTACK, 0, STACK
        ARGFRAME IOVERLAY, 0, STATIC
        ARGFRAME DOVERLAY, 0, STATIC
        FUNCALL InitLcd, LCD_write_byte
        LOCFRAME ISTACK, 2, STACK
        LOCFRAME PSTACK, 0, STACK
        LOCFRAME XSTACK, 0, STACK
        LOCFRAME IOVERLAY, 0, STATIC
        LOCFRAME DOVERLAY, 0, STATIC
        ARGFRAME ISTACK, 2, STACK
        ARGFRAME PSTACK, 0, STACK
        ARGFRAME XSTACK, 0, STACK
        ARGFRAME IOVERLAY, 0, STATIC
        ARGFRAME DOVERLAY, 0, STATIC
        FUNCALL InitLcd, LCD_write_byte
        LOCFRAME ISTACK, 2, STACK
        LOCFRAME PSTACK, 0, STACK
        LOCFRAME XSTACK, 0, STACK
        LOCFRAME IOVERLAY, 0, STATIC
        LOCFRAME DOVERLAY, 0, STATIC
        ARGFRAME ISTACK, 2, STACK
        ARGFRAME PSTACK, 0, STACK
        ARGFRAME XSTACK, 0, STACK
        ARGFRAME IOVERLAY, 0, STATIC
        ARGFRAME DOVERLAY, 0, STATIC
        FUNCALL InitLcd, LCD_write_byte
        LOCFRAME ISTACK, 2, STACK
        LOCFRAME PSTACK, 0, STACK
        LOCFRAME XSTACK, 0, STACK
        LOCFRAME IOVERLAY, 0, STATIC
        LOCFRAME DOVERLAY, 0, STATIC
        ARGFRAME ISTACK, 2, STACK
        ARGFRAME PSTACK, 0, STACK
        ARGFRAME XSTACK, 0, STACK
        ARGFRAME IOVERLAY, 0, STATIC
        ARGFRAME DOVERLAY, 0, STATIC
        FUNCALL InitLcd, LCD_write_byte
        LOCFRAME ISTACK, 2, STACK
        LOCFRAME PSTACK, 0, STACK
        LOCFRAME XSTACK, 0, STACK
        LOCFRAME IOVERLAY, 0, STATIC
        LOCFRAME DOVERLAY, 0, STATIC
        ARGFRAME ISTACK, 2, STACK
        ARGFRAME PSTACK, 0, STACK
        ARGFRAME XSTACK, 0, STACK
        ARGFRAME IOVERLAY, 0, STATIC
        ARGFRAME DOVERLAY, 0, STATIC
        FUNCALL InitLcd, LCD_write_byte
        LOCFRAME ISTACK, 2, STACK
        LOCFRAME PSTACK, 0, STACK
        LOCFRAME XSTACK, 0, STACK
        LOCFRAME IOVERLAY, 0, STATIC
        LOCFRAME DOVERLAY, 0, STATIC
        ARGFRAME ISTACK, 2, STACK
        ARGFRAME PSTACK, 0, STACK
        ARGFRAME XSTACK, 0, STACK
        ARGFRAME IOVERLAY, 0, STATIC
        ARGFRAME DOVERLAY, 0, STATIC
        FUNCALL InitLcd, LCD_write_byte
        LOCFRAME ISTACK, 2, STACK
        LOCFRAME PSTACK, 0, STACK
        LOCFRAME XSTACK, 0, STACK
        LOCFRAME IOVERLAY, 0, STATIC
        LOCFRAME DOVERLAY, 0, STATIC
        ARGFRAME ISTACK, 2, STACK
        ARGFRAME PSTACK, 0, STACK
        ARGFRAME XSTACK, 0, STACK
        ARGFRAME IOVERLAY, 0, STATIC
        ARGFRAME DOVERLAY, 0, STATIC
        FUNCALL InitLcd, LCD_write_byte
        LOCFRAME ISTACK, 2, STACK
        LOCFRAME PSTACK, 0, STACK
        LOCFRAME XSTACK, 0, STACK
        LOCFRAME IOVERLAY, 0, STATIC
        LOCFRAME DOVERLAY, 0, STATIC
        ARGFRAME ISTACK, 2, STACK
        ARGFRAME PSTACK, 0, STACK
        ARGFRAME XSTACK, 0, STACK
        ARGFRAME IOVERLAY, 0, STATIC
        ARGFRAME DOVERLAY, 0, STATIC
        FUNCALL InitLcd, LCD_write_byte
        LOCFRAME ISTACK, 2, STACK
        LOCFRAME PSTACK, 0, STACK
        LOCFRAME XSTACK, 0, STACK
        LOCFRAME IOVERLAY, 0, STATIC
        LOCFRAME DOVERLAY, 0, STATIC
        ARGFRAME ISTACK, 2, STACK
        ARGFRAME PSTACK, 0, STACK
        ARGFRAME XSTACK, 0, STACK
        ARGFRAME IOVERLAY, 0, STATIC
        ARGFRAME DOVERLAY, 0, STATIC
        FUNCALL InitLcd, LCD_write_byte
        LOCFRAME ISTACK, 2, STACK
        LOCFRAME PSTACK, 0, STACK
        LOCFRAME XSTACK, 0, STACK
        LOCFRAME IOVERLAY, 0, STATIC
        LOCFRAME DOVERLAY, 0, STATIC
        ARGFRAME ISTACK, 2, STACK
        ARGFRAME PSTACK, 0, STACK
        ARGFRAME XSTACK, 0, STACK
        ARGFRAME IOVERLAY, 0, STATIC
        ARGFRAME DOVERLAY, 0, STATIC
        FUNCALL InitLcd, LCD_write_byte
        LOCFRAME ISTACK, 2, STACK
        LOCFRAME PSTACK, 0, STACK
        LOCFRAME XSTACK, 0, STACK
        LOCFRAME IOVERLAY, 0, STATIC
        LOCFRAME DOVERLAY, 0, STATIC
        ARGFRAME ISTACK, 2, STACK
        ARGFRAME PSTACK, 0, STACK
        ARGFRAME XSTACK, 0, STACK
        ARGFRAME IOVERLAY, 0, STATIC
        ARGFRAME DOVERLAY, 0, STATIC
        FUNCALL InitLcd, LCD_write_byte
        LOCFRAME ISTACK, 2, STACK
        LOCFRAME PSTACK, 0, STACK
        LOCFRAME XSTACK, 0, STACK
        LOCFRAME IOVERLAY, 0, STATIC
        LOCFRAME DOVERLAY, 0, STATIC
        ARGFRAME ISTACK, 2, STACK
        ARGFRAME PSTACK, 0, STACK
        ARGFRAME XSTACK, 0, STACK
        ARGFRAME IOVERLAY, 0, STATIC
        ARGFRAME DOVERLAY, 0, STATIC
        FUNCALL InitLcd, LCD_clear
        LOCFRAME ISTACK, 2, STACK
        LOCFRAME PSTACK, 0, STACK
        LOCFRAME XSTACK, 0, STACK
        LOCFRAME IOVERLAY, 0, STATIC
        LOCFRAME DOVERLAY, 0, STATIC
        ARGFRAME ISTACK, 2, STACK
        ARGFRAME PSTACK, 0, STACK
        ARGFRAME XSTACK, 0, STACK
        ARGFRAME IOVERLAY, 0, STATIC
        ARGFRAME DOVERLAY, 0, STATIC
        PUSH    DPL
        CFI DPL0 Frame(CFA_SP, 4)
        CFI CFA_SP SP+-4
        PUSH    DPH
        CFI DPH0 Frame(CFA_SP, 5)
        CFI CFA_SP SP+-5
        ; Saved register size: 2
        ; Auto size: 0
//  172   P0SEL &= 0xFE; //设置P00为普通IO口，
        ANL     0xf3,#0xfe
//  173   P0DIR |= 0x01; //设置P00为输出
        ORL     0xfd,#0x1
//  174   P1SEL &= 0x73; //设置P12，P13,P17为普通IO口
        ANL     0xf4,#0x73
//  175   P1DIR |= 0x8c; //设置P12，P13,P17为输出 
        ORL     0xfe,#0x8c
//  176 
//  177   Lcd_Reset();
        ; Setup parameters for call to function Lcd_Reset
        LCALL   ??Lcd_Reset?relay
//  178   
//  179 #ifdef HARDWARE_SPI                                         
//  180   P1DIR &= 0x9F;
//  181   SPI_Init();   //初始化SPI端口  
//  182 #endif
//  183  
//  184   LCD_write_byte(0x11,LCD_COMMAND); //退出睡眠模式
        ; Setup parameters for call to function LCD_write_byte
        MOV     R2,#0x0
        MOV     R1,#0x11
        LCALL   ??Subroutine36_0 & 0xFFFF
//  185   DelayMS(1); 
??CrossCallReturnLabel_66:
        MOV     R3,#0x0
        LCALL   ??DelayMS?relay
//  186 
//  187   ///ST7735R Frame Rate
//  188   LCD_write_byte(0xB1,LCD_COMMAND); 
        ; Setup parameters for call to function LCD_write_byte
        MOV     R2,#0x0
        MOV     R1,#-0x4f
        LCALL   ?Subroutine4 & 0xFFFF
//  189   LCD_write_byte(0x01,LCD_DATA); 
//  190   LCD_write_byte(0x2C,LCD_DATA); 
//  191   LCD_write_byte(0x2D,LCD_DATA); 
//  192   LCD_write_byte(0xB2,LCD_COMMAND); 
??CrossCallReturnLabel_0:
        MOV     R1,#-0x4e
        LCALL   ?Subroutine4 & 0xFFFF
//  193   LCD_write_byte(0x01,LCD_DATA); 
//  194   LCD_write_byte(0x2C,LCD_DATA); 
//  195   LCD_write_byte(0x2D,LCD_DATA); 
//  196   LCD_write_byte(0xB3,LCD_COMMAND); 
??CrossCallReturnLabel_1:
        MOV     R1,#-0x4d
        LCALL   ??Subroutine36_0 & 0xFFFF
//  197   LCD_write_byte(0x01,LCD_DATA); 
??CrossCallReturnLabel_67:
        MOV     R1,#0x1
        LCALL   ?Subroutine10 & 0xFFFF
//  198   LCD_write_byte(0x2C,LCD_DATA); 
//  199   LCD_write_byte(0x2D,LCD_DATA); 
??CrossCallReturnLabel_13:
        MOV     R1,#0x2d
        LCALL   ?Subroutine4 & 0xFFFF
//  200   LCD_write_byte(0x01,LCD_DATA); 
//  201   LCD_write_byte(0x2C,LCD_DATA); 
//  202   LCD_write_byte(0x2D,LCD_DATA); 
//  203 
//  204   LCD_write_byte(0xB4,LCD_COMMAND);//列对调
??CrossCallReturnLabel_2:
        MOV     R1,#-0x4c
        LCALL   ??Subroutine36_0 & 0xFFFF
//  205   LCD_write_byte(0x07,LCD_DATA); 
??CrossCallReturnLabel_68:
        MOV     R1,#0x7
        LCALL   ??Subroutine38_0 & 0xFFFF
//  206   //ST7735R加电序列
//  207   LCD_write_byte(0xC0,LCD_COMMAND); 
??CrossCallReturnLabel_115:
        MOV     R1,#-0x40
        LCALL   ??Subroutine36_0 & 0xFFFF
//  208   LCD_write_byte(0xA2,LCD_DATA); 
??CrossCallReturnLabel_69:
        MOV     R1,#-0x5e
        LCALL   ??Subroutine36_0 & 0xFFFF
//  209   LCD_write_byte(0x02,LCD_DATA); 
??CrossCallReturnLabel_70:
        LCALL   ?Subroutine14 & 0xFFFF
//  210   LCD_write_byte(0x84,LCD_DATA); 
??CrossCallReturnLabel_64:
        MOV     R1,#-0x7c
        LCALL   ??Subroutine38_0 & 0xFFFF
//  211   LCD_write_byte(0xC1,LCD_COMMAND); 
??CrossCallReturnLabel_116:
        MOV     R1,#-0x3f
        LCALL   ??Subroutine36_0 & 0xFFFF
//  212   LCD_write_byte(0xC5,LCD_DATA); 
??CrossCallReturnLabel_71:
        MOV     R1,#-0x3b
        LCALL   ??Subroutine38_0 & 0xFFFF
//  213   LCD_write_byte(0xC2,LCD_COMMAND); 
??CrossCallReturnLabel_117:
        MOV     R1,#-0x3e
        LCALL   ??Subroutine36_0 & 0xFFFF
//  214   LCD_write_byte(0x0A,LCD_DATA); 
??CrossCallReturnLabel_72:
        MOV     R1,#0xa
        LCALL   ?Subroutine7 & 0xFFFF
//  215   LCD_write_byte(0x00,LCD_DATA); 
//  216   LCD_write_byte(0xC3,LCD_COMMAND); 
??CrossCallReturnLabel_113:
        MOV     R1,#-0x3d
        LCALL   ?Subroutine11 & 0xFFFF
//  217   LCD_write_byte(0x8A,LCD_DATA); 
//  218   LCD_write_byte(0x2A,LCD_DATA); 
??CrossCallReturnLabel_15:
        MOV     R1,#0x2a
        LCALL   ??Subroutine38_0 & 0xFFFF
//  219   LCD_write_byte(0xC4,LCD_COMMAND); 
??CrossCallReturnLabel_118:
        MOV     R1,#-0x3c
        LCALL   ?Subroutine11 & 0xFFFF
//  220   LCD_write_byte(0x8A,LCD_DATA); 
//  221   LCD_write_byte(0xEE,LCD_DATA); 
??CrossCallReturnLabel_16:
        MOV     R1,#-0x12
        LCALL   ??Subroutine38_0 & 0xFFFF
//  222 
//  223   LCD_write_byte(0xC5,LCD_COMMAND); //加VCOM 
??CrossCallReturnLabel_119:
        MOV     R1,#-0x3b
        LCALL   ??Subroutine36_0 & 0xFFFF
//  224   LCD_write_byte(0x0E,LCD_DATA); 
??CrossCallReturnLabel_73:
        MOV     R1,#0xe
        LCALL   ??Subroutine38_0 & 0xFFFF
//  225 
//  226   LCD_write_byte(0x36,LCD_COMMAND); //RGB模式 
??CrossCallReturnLabel_120:
        MOV     R1,#0x36
        LCALL   ??Subroutine36_0 & 0xFFFF
//  227   LCD_write_byte(0xC8,LCD_DATA); 
??CrossCallReturnLabel_74:
        MOV     R1,#-0x38
        LCALL   ??Subroutine38_0 & 0xFFFF
//  228   
//  229   // ST7735R Gamma 校正序列
//  230   LCD_write_byte(0xe0,LCD_COMMAND); 
??CrossCallReturnLabel_121:
        MOV     R1,#-0x20
        LCALL   ?Subroutine5 & 0xFFFF
//  231   LCD_write_byte(0x0f,LCD_DATA); 
//  232   LCD_write_byte(0x1a,LCD_DATA); 
??CrossCallReturnLabel_3:
        MOV     R1,#0x1a
        LCALL   ?Subroutine5 & 0xFFFF
//  233   LCD_write_byte(0x0f,LCD_DATA); 
//  234   LCD_write_byte(0x18,LCD_DATA); 
??CrossCallReturnLabel_4:
        MOV     R1,#0x18
        LCALL   ??Subroutine36_0 & 0xFFFF
//  235   LCD_write_byte(0x2f,LCD_DATA); 
??CrossCallReturnLabel_75:
        MOV     R1,#0x2f
        LCALL   ??Subroutine36_0 & 0xFFFF
//  236   LCD_write_byte(0x28,LCD_DATA); 
??CrossCallReturnLabel_76:
        MOV     R1,#0x28
        LCALL   ??Subroutine36_0 & 0xFFFF
//  237   LCD_write_byte(0x20,LCD_DATA); 
??CrossCallReturnLabel_77:
        MOV     R1,#0x20
        LCALL   ??Subroutine36_0 & 0xFFFF
//  238   LCD_write_byte(0x22,LCD_DATA); 
??CrossCallReturnLabel_78:
        MOV     R1,#0x22
        LCALL   ??Subroutine36_0 & 0xFFFF
//  239   LCD_write_byte(0x1f,LCD_DATA); 
??CrossCallReturnLabel_79:
        MOV     R1,#0x1f
        LCALL   ??Subroutine36_0 & 0xFFFF
//  240   LCD_write_byte(0x1b,LCD_DATA); 
??CrossCallReturnLabel_80:
        MOV     R1,#0x1b
        LCALL   ??Subroutine36_0 & 0xFFFF
//  241   LCD_write_byte(0x23,LCD_DATA); 
??CrossCallReturnLabel_81:
        MOV     R1,#0x23
        LCALL   ??Subroutine36_0 & 0xFFFF
//  242   LCD_write_byte(0x37,LCD_DATA); 
??CrossCallReturnLabel_82:
        MOV     R1,#0x37
        LCALL   ?Subroutine8 & 0xFFFF
//  243   LCD_write_byte(0x00,LCD_DATA); 
//  244 
//  245   LCD_write_byte(0x07,LCD_DATA); 
//  246   LCD_write_byte(0x02,LCD_DATA); 
??CrossCallReturnLabel_9:
        LCALL   ?Subroutine14 & 0xFFFF
//  247   LCD_write_byte(0x10,LCD_DATA); 
??CrossCallReturnLabel_65:
        MOV     R1,#0x10
        LCALL   ??Subroutine38_0 & 0xFFFF
//  248   LCD_write_byte(0xe1,LCD_COMMAND); 
??CrossCallReturnLabel_122:
        MOV     R1,#-0x1f
        LCALL   ?Subroutine5 & 0xFFFF
//  249   LCD_write_byte(0x0f,LCD_DATA); 
//  250   LCD_write_byte(0x1b,LCD_DATA); 
??CrossCallReturnLabel_5:
        MOV     R1,#0x1b
        LCALL   ?Subroutine5 & 0xFFFF
//  251   LCD_write_byte(0x0f,LCD_DATA); 
//  252   LCD_write_byte(0x17,LCD_DATA); 
??CrossCallReturnLabel_6:
        MOV     R1,#0x17
        LCALL   ??Subroutine36_0 & 0xFFFF
//  253   LCD_write_byte(0x33,LCD_DATA); 
??CrossCallReturnLabel_83:
        MOV     R1,#0x33
        LCALL   ?Subroutine10 & 0xFFFF
//  254   LCD_write_byte(0x2c,LCD_DATA); 
//  255   LCD_write_byte(0x29,LCD_DATA); 
??CrossCallReturnLabel_14:
        MOV     R1,#0x29
        LCALL   ??Subroutine36_0 & 0xFFFF
//  256   LCD_write_byte(0x2e,LCD_DATA); 
??CrossCallReturnLabel_84:
        MOV     R1,#0x2e
        LCALL   ??Subroutine36_0 & 0xFFFF
//  257   LCD_write_byte(0x30,LCD_DATA); 
??CrossCallReturnLabel_85:
        MOV     R1,#0x30
        LCALL   ??Subroutine36_0 & 0xFFFF
//  258   LCD_write_byte(0x30,LCD_DATA); 
??CrossCallReturnLabel_86:
        MOV     R1,#0x30
        LCALL   ??Subroutine36_0 & 0xFFFF
//  259   LCD_write_byte(0x39,LCD_DATA); 
??CrossCallReturnLabel_87:
        MOV     R1,#0x39
        LCALL   ??Subroutine36_0 & 0xFFFF
//  260   LCD_write_byte(0x3f,LCD_DATA); 
??CrossCallReturnLabel_88:
        MOV     R1,#0x3f
        LCALL   ?Subroutine8 & 0xFFFF
//  261   LCD_write_byte(0x00,LCD_DATA); 
//  262   LCD_write_byte(0x07,LCD_DATA); 
//  263   LCD_write_byte(0x03,LCD_DATA); 
??CrossCallReturnLabel_10:
        MOV     R1,#0x3
        LCALL   ??Subroutine36_0 & 0xFFFF
//  264   LCD_write_byte(0x10,LCD_DATA);  
??CrossCallReturnLabel_89:
        MOV     R1,#0x10
        LCALL   ??Subroutine38_0 & 0xFFFF
//  265 
//  266   LCD_write_byte(0x2a,LCD_COMMAND);
??CrossCallReturnLabel_123:
        MOV     R1,#0x2a
        LCALL   ?Subroutine6 & 0xFFFF
//  267   LCD_write_byte(0x00,LCD_DATA);
//  268   LCD_write_byte(0x00,LCD_DATA);
//  269   LCD_write_byte(0x00,LCD_DATA);
//  270   LCD_write_byte(0x7f,LCD_DATA);
??CrossCallReturnLabel_7:
        MOV     R1,#0x7f
        LCALL   ??Subroutine38_0 & 0xFFFF
//  271   LCD_write_byte(0x2b,LCD_COMMAND);
??CrossCallReturnLabel_124:
        MOV     R1,#0x2b
        LCALL   ?Subroutine6 & 0xFFFF
//  272   LCD_write_byte(0x00,LCD_DATA);
//  273   LCD_write_byte(0x00,LCD_DATA);
//  274   LCD_write_byte(0x00,LCD_DATA);
//  275   LCD_write_byte(0x9f,LCD_DATA);
??CrossCallReturnLabel_8:
        MOV     R1,#-0x61
        LCALL   ??Subroutine38_0 & 0xFFFF
//  276 
//  277   LCD_write_byte(0xF0,LCD_COMMAND); //使能测试命令  
??CrossCallReturnLabel_125:
        MOV     R1,#-0x10
        LCALL   ??Subroutine36_0 & 0xFFFF
//  278   LCD_write_byte(0x01,LCD_DATA); 
??CrossCallReturnLabel_90:
        MOV     R1,#0x1
        LCALL   ??Subroutine38_0 & 0xFFFF
//  279   LCD_write_byte(0xF6,LCD_COMMAND); //关闭ram省电模式 
??CrossCallReturnLabel_126:
        MOV     R1,#-0xa
        LCALL   ?Subroutine7 & 0xFFFF
//  280   LCD_write_byte(0x00,LCD_DATA); 
//  281 
//  282   LCD_write_byte(0x3A,LCD_COMMAND); //色深16bit 
??CrossCallReturnLabel_114:
        MOV     R1,#0x3a
        LCALL   ??Subroutine36_0 & 0xFFFF
//  283   LCD_write_byte(0x05,LCD_DATA); 
??CrossCallReturnLabel_91:
        MOV     R1,#0x5
        LCALL   ??Subroutine38_0 & 0xFFFF
//  284   
//  285   LCD_write_byte(0x29,LCD_COMMAND); //开显示  
??CrossCallReturnLabel_127:
        MOV     R1,#0x29
        LCALL   ??LCD_write_byte?relay
//  286   LCD_clear(WINDOW_BK_COLOR);       //以背景色清屏 
        ; Setup parameters for call to function LCD_clear
        MOV     R2,#-0x1
        MOV     R3,#-0x21
        LCALL   ??LCD_clear?relay
//  287 }
        LJMP    ?Subroutine0 & 0xFFFF
        CFI EndBlock cfiBlock11
        REQUIRE P0SEL
        REQUIRE P0DIR
        REQUIRE P1SEL
        REQUIRE P1DIR

        RSEG BANKED_CODE:CODE:NOROOT(0)
?Subroutine11:
        CFI Block cfiCond12 Using cfiCommon0
        CFI NoFunction
        CFI Conditional ??CrossCallReturnLabel_15
        CFI DPL0 Frame(CFA_SP, 4)
        CFI DPH0 Frame(CFA_SP, 5)
        CFI CFA_SP SP+-5
        CFI Block cfiCond13 Using cfiCommon0
        CFI (cfiCond13) NoFunction
        CFI (cfiCond13) Conditional ??CrossCallReturnLabel_16
        CFI (cfiCond13) DPL0 Frame(CFA_SP, 4)
        CFI (cfiCond13) DPH0 Frame(CFA_SP, 5)
        CFI (cfiCond13) CFA_SP SP+-5
        CFI Block cfiPicker14 Using cfiCommon1
        CFI (cfiPicker14) NoFunction
        CFI (cfiPicker14) Picker
        LCALL   ??Subroutine37_0 & 0xFFFF
??CrossCallReturnLabel_99:
        MOV     R1,#-0x76
        LCALL   ??Subroutine37_0 & 0xFFFF
??CrossCallReturnLabel_100:
        RET
        CFI EndBlock cfiCond12
        CFI EndBlock cfiCond13
        CFI EndBlock cfiPicker14

        RSEG BANKED_CODE:CODE:NOROOT(0)
?Subroutine10:
        CFI Block cfiCond15 Using cfiCommon0
        CFI NoFunction
        CFI Conditional ??CrossCallReturnLabel_13
        CFI DPL0 Frame(CFA_SP, 4)
        CFI DPH0 Frame(CFA_SP, 5)
        CFI CFA_SP SP+-5
        CFI Block cfiCond16 Using cfiCommon0
        CFI (cfiCond16) NoFunction
        CFI (cfiCond16) Conditional ??CrossCallReturnLabel_14
        CFI (cfiCond16) DPL0 Frame(CFA_SP, 4)
        CFI (cfiCond16) DPH0 Frame(CFA_SP, 5)
        CFI (cfiCond16) CFA_SP SP+-5
        CFI Block cfiPicker17 Using cfiCommon1
        CFI (cfiPicker17) NoFunction
        CFI (cfiPicker17) Picker
        LCALL   ?Subroutine24 & 0xFFFF
??CrossCallReturnLabel_46:
        RET
        CFI EndBlock cfiCond15
        CFI EndBlock cfiCond16
        CFI EndBlock cfiPicker17

        RSEG BANKED_CODE:CODE:NOROOT(0)
?Subroutine24:
        CFI Block cfiCond18 Using cfiCommon0
        CFI NoFunction
        CFI Conditional ??CrossCallReturnLabel_46, ??CrossCallReturnLabel_13
        CFI DPL0 Frame(CFA_SP, 4)
        CFI DPH0 Frame(CFA_SP, 5)
        CFI CFA_SP SP+-5
        CFI Block cfiCond19 Using cfiCommon0
        CFI (cfiCond19) NoFunction
        CFI (cfiCond19) Conditional ??CrossCallReturnLabel_46, ??CrossCallReturnLabel_14
        CFI (cfiCond19) DPL0 Frame(CFA_SP, 4)
        CFI (cfiCond19) DPH0 Frame(CFA_SP, 5)
        CFI (cfiCond19) CFA_SP SP+-5
        CFI Block cfiCond20 Using cfiCommon0
        CFI (cfiCond20) NoFunction
        CFI (cfiCond20) Conditional ??CrossCallReturnLabel_47, ??CrossCallReturnLabel_0
        CFI (cfiCond20) DPL0 Frame(CFA_SP, 4)
        CFI (cfiCond20) DPH0 Frame(CFA_SP, 5)
        CFI (cfiCond20) CFA_SP SP+-5
        CFI Block cfiCond21 Using cfiCommon0
        CFI (cfiCond21) NoFunction
        CFI (cfiCond21) Conditional ??CrossCallReturnLabel_47, ??CrossCallReturnLabel_1
        CFI (cfiCond21) DPL0 Frame(CFA_SP, 4)
        CFI (cfiCond21) DPH0 Frame(CFA_SP, 5)
        CFI (cfiCond21) CFA_SP SP+-5
        CFI Block cfiCond22 Using cfiCommon0
        CFI (cfiCond22) NoFunction
        CFI (cfiCond22) Conditional ??CrossCallReturnLabel_47, ??CrossCallReturnLabel_2
        CFI (cfiCond22) DPL0 Frame(CFA_SP, 4)
        CFI (cfiCond22) DPH0 Frame(CFA_SP, 5)
        CFI (cfiCond22) CFA_SP SP+-5
        CFI Block cfiPicker23 Using cfiCommon1
        CFI (cfiPicker23) NoFunction
        CFI (cfiPicker23) Picker
        LCALL   ?Subroutine30 & 0xFFFF
??CrossCallReturnLabel_108:
        MOV     R1,#0x2c
        LCALL   ?Subroutine30 & 0xFFFF
??CrossCallReturnLabel_109:
        RET
        CFI EndBlock cfiCond18
        CFI EndBlock cfiCond19
        CFI EndBlock cfiCond20
        CFI EndBlock cfiCond21
        CFI EndBlock cfiCond22
        CFI EndBlock cfiPicker23

        RSEG BANKED_CODE:CODE:NOROOT(0)
?Subroutine8:
        CFI Block cfiCond24 Using cfiCommon0
        CFI NoFunction
        CFI Conditional ??CrossCallReturnLabel_9
        CFI DPL0 Frame(CFA_SP, 4)
        CFI DPH0 Frame(CFA_SP, 5)
        CFI CFA_SP SP+-5
        CFI Block cfiCond25 Using cfiCommon0
        CFI (cfiCond25) NoFunction
        CFI (cfiCond25) Conditional ??CrossCallReturnLabel_10
        CFI (cfiCond25) DPL0 Frame(CFA_SP, 4)
        CFI (cfiCond25) DPH0 Frame(CFA_SP, 5)
        CFI (cfiCond25) CFA_SP SP+-5
        CFI Block cfiPicker26 Using cfiCommon1
        CFI (cfiPicker26) NoFunction
        CFI (cfiPicker26) Picker
        LCALL   ?Subroutine23 & 0xFFFF
??CrossCallReturnLabel_43:
        MOV     R1,#0x7
        LCALL   ??Subroutine37_0 & 0xFFFF
??CrossCallReturnLabel_101:
        RET
        CFI EndBlock cfiCond24
        CFI EndBlock cfiCond25
        CFI EndBlock cfiPicker26

        RSEG BANKED_CODE:CODE:NOROOT(0)
?Subroutine6:
        CFI Block cfiCond27 Using cfiCommon0
        CFI NoFunction
        CFI Conditional ??CrossCallReturnLabel_7
        CFI DPL0 Frame(CFA_SP, 4)
        CFI DPH0 Frame(CFA_SP, 5)
        CFI CFA_SP SP+-5
        CFI Block cfiCond28 Using cfiCommon0
        CFI (cfiCond28) NoFunction
        CFI (cfiCond28) Conditional ??CrossCallReturnLabel_8
        CFI (cfiCond28) DPL0 Frame(CFA_SP, 4)
        CFI (cfiCond28) DPH0 Frame(CFA_SP, 5)
        CFI (cfiCond28) CFA_SP SP+-5
        CFI Block cfiPicker29 Using cfiCommon1
        CFI (cfiPicker29) NoFunction
        CFI (cfiPicker29) Picker
        LCALL   ?Subroutine23 & 0xFFFF
??CrossCallReturnLabel_44:
        MOV     R1,#0x0
        LCALL   ?Subroutine23 & 0xFFFF
??CrossCallReturnLabel_45:
        RET
        CFI EndBlock cfiCond27
        CFI EndBlock cfiCond28
        CFI EndBlock cfiPicker29

        RSEG BANKED_CODE:CODE:NOROOT(0)
?Subroutine23:
        CFI Block cfiCond30 Using cfiCommon0
        CFI NoFunction
        CFI Conditional ??CrossCallReturnLabel_43, ??CrossCallReturnLabel_9
        CFI DPL0 Frame(CFA_SP, 4)
        CFI DPH0 Frame(CFA_SP, 5)
        CFI CFA_SP SP+-5
        CFI Block cfiCond31 Using cfiCommon0
        CFI (cfiCond31) NoFunction
        CFI (cfiCond31) Conditional ??CrossCallReturnLabel_43, ??CrossCallReturnLabel_10
        CFI (cfiCond31) DPL0 Frame(CFA_SP, 4)
        CFI (cfiCond31) DPH0 Frame(CFA_SP, 5)
        CFI (cfiCond31) CFA_SP SP+-5
        CFI Block cfiCond32 Using cfiCommon0
        CFI (cfiCond32) NoFunction
        CFI (cfiCond32) Conditional ??CrossCallReturnLabel_44, ??CrossCallReturnLabel_7
        CFI (cfiCond32) DPL0 Frame(CFA_SP, 4)
        CFI (cfiCond32) DPH0 Frame(CFA_SP, 5)
        CFI (cfiCond32) CFA_SP SP+-5
        CFI Block cfiCond33 Using cfiCommon0
        CFI (cfiCond33) NoFunction
        CFI (cfiCond33) Conditional ??CrossCallReturnLabel_44, ??CrossCallReturnLabel_8
        CFI (cfiCond33) DPL0 Frame(CFA_SP, 4)
        CFI (cfiCond33) DPH0 Frame(CFA_SP, 5)
        CFI (cfiCond33) CFA_SP SP+-5
        CFI Block cfiCond34 Using cfiCommon0
        CFI (cfiCond34) NoFunction
        CFI (cfiCond34) Conditional ??CrossCallReturnLabel_45, ??CrossCallReturnLabel_7
        CFI (cfiCond34) DPL0 Frame(CFA_SP, 4)
        CFI (cfiCond34) DPH0 Frame(CFA_SP, 5)
        CFI (cfiCond34) CFA_SP SP+-5
        CFI Block cfiCond35 Using cfiCommon0
        CFI (cfiCond35) NoFunction
        CFI (cfiCond35) Conditional ??CrossCallReturnLabel_45, ??CrossCallReturnLabel_8
        CFI (cfiCond35) DPL0 Frame(CFA_SP, 4)
        CFI (cfiCond35) DPH0 Frame(CFA_SP, 5)
        CFI (cfiCond35) CFA_SP SP+-5
        CFI Block cfiPicker36 Using cfiCommon1
        CFI (cfiPicker36) NoFunction
        CFI (cfiPicker36) Picker
        LCALL   ?Subroutine30 & 0xFFFF
??CrossCallReturnLabel_110:
        MOV     R1,#0x0
        LCALL   ?Subroutine30 & 0xFFFF
??CrossCallReturnLabel_111:
        RET
        CFI EndBlock cfiCond30
        CFI EndBlock cfiCond31
        CFI EndBlock cfiCond32
        CFI EndBlock cfiCond33
        CFI EndBlock cfiCond34
        CFI EndBlock cfiCond35
        CFI EndBlock cfiPicker36

        RSEG BANKED_CODE:CODE:NOROOT(0)
?Subroutine30:
        CFI Block cfiCond37 Using cfiCommon0
        CFI NoFunction
        CFI Conditional ??CrossCallReturnLabel_108, ??CrossCallReturnLabel_46, ??CrossCallReturnLabel_13
        CFI DPL0 Frame(CFA_SP, 4)
        CFI DPH0 Frame(CFA_SP, 5)
        CFI CFA_SP SP+-5
        CFI Block cfiCond38 Using cfiCommon0
        CFI (cfiCond38) NoFunction
        CFI (cfiCond38) Conditional ??CrossCallReturnLabel_108, ??CrossCallReturnLabel_46, ??CrossCallReturnLabel_14
        CFI (cfiCond38) DPL0 Frame(CFA_SP, 4)
        CFI (cfiCond38) DPH0 Frame(CFA_SP, 5)
        CFI (cfiCond38) CFA_SP SP+-5
        CFI Block cfiCond39 Using cfiCommon0
        CFI (cfiCond39) NoFunction
        CFI (cfiCond39) Conditional ??CrossCallReturnLabel_108, ??CrossCallReturnLabel_47, ??CrossCallReturnLabel_0
        CFI (cfiCond39) DPL0 Frame(CFA_SP, 4)
        CFI (cfiCond39) DPH0 Frame(CFA_SP, 5)
        CFI (cfiCond39) CFA_SP SP+-5
        CFI Block cfiCond40 Using cfiCommon0
        CFI (cfiCond40) NoFunction
        CFI (cfiCond40) Conditional ??CrossCallReturnLabel_108, ??CrossCallReturnLabel_47, ??CrossCallReturnLabel_1
        CFI (cfiCond40) DPL0 Frame(CFA_SP, 4)
        CFI (cfiCond40) DPH0 Frame(CFA_SP, 5)
        CFI (cfiCond40) CFA_SP SP+-5
        CFI Block cfiCond41 Using cfiCommon0
        CFI (cfiCond41) NoFunction
        CFI (cfiCond41) Conditional ??CrossCallReturnLabel_108, ??CrossCallReturnLabel_47, ??CrossCallReturnLabel_2
        CFI (cfiCond41) DPL0 Frame(CFA_SP, 4)
        CFI (cfiCond41) DPH0 Frame(CFA_SP, 5)
        CFI (cfiCond41) CFA_SP SP+-5
        CFI Block cfiCond42 Using cfiCommon0
        CFI (cfiCond42) NoFunction
        CFI (cfiCond42) Conditional ??CrossCallReturnLabel_109, ??CrossCallReturnLabel_46, ??CrossCallReturnLabel_13
        CFI (cfiCond42) DPL0 Frame(CFA_SP, 4)
        CFI (cfiCond42) DPH0 Frame(CFA_SP, 5)
        CFI (cfiCond42) CFA_SP SP+-5
        CFI Block cfiCond43 Using cfiCommon0
        CFI (cfiCond43) NoFunction
        CFI (cfiCond43) Conditional ??CrossCallReturnLabel_109, ??CrossCallReturnLabel_46, ??CrossCallReturnLabel_14
        CFI (cfiCond43) DPL0 Frame(CFA_SP, 4)
        CFI (cfiCond43) DPH0 Frame(CFA_SP, 5)
        CFI (cfiCond43) CFA_SP SP+-5
        CFI Block cfiCond44 Using cfiCommon0
        CFI (cfiCond44) NoFunction
        CFI (cfiCond44) Conditional ??CrossCallReturnLabel_109, ??CrossCallReturnLabel_47, ??CrossCallReturnLabel_0
        CFI (cfiCond44) DPL0 Frame(CFA_SP, 4)
        CFI (cfiCond44) DPH0 Frame(CFA_SP, 5)
        CFI (cfiCond44) CFA_SP SP+-5
        CFI Block cfiCond45 Using cfiCommon0
        CFI (cfiCond45) NoFunction
        CFI (cfiCond45) Conditional ??CrossCallReturnLabel_109, ??CrossCallReturnLabel_47, ??CrossCallReturnLabel_1
        CFI (cfiCond45) DPL0 Frame(CFA_SP, 4)
        CFI (cfiCond45) DPH0 Frame(CFA_SP, 5)
        CFI (cfiCond45) CFA_SP SP+-5
        CFI Block cfiCond46 Using cfiCommon0
        CFI (cfiCond46) NoFunction
        CFI (cfiCond46) Conditional ??CrossCallReturnLabel_109, ??CrossCallReturnLabel_47, ??CrossCallReturnLabel_2
        CFI (cfiCond46) DPL0 Frame(CFA_SP, 4)
        CFI (cfiCond46) DPH0 Frame(CFA_SP, 5)
        CFI (cfiCond46) CFA_SP SP+-5
        CFI Block cfiCond47 Using cfiCommon0
        CFI (cfiCond47) NoFunction
        CFI (cfiCond47) Conditional ??CrossCallReturnLabel_110, ??CrossCallReturnLabel_43, ??CrossCallReturnLabel_9
        CFI (cfiCond47) DPL0 Frame(CFA_SP, 4)
        CFI (cfiCond47) DPH0 Frame(CFA_SP, 5)
        CFI (cfiCond47) CFA_SP SP+-5
        CFI Block cfiCond48 Using cfiCommon0
        CFI (cfiCond48) NoFunction
        CFI (cfiCond48) Conditional ??CrossCallReturnLabel_110, ??CrossCallReturnLabel_43, ??CrossCallReturnLabel_10
        CFI (cfiCond48) DPL0 Frame(CFA_SP, 4)
        CFI (cfiCond48) DPH0 Frame(CFA_SP, 5)
        CFI (cfiCond48) CFA_SP SP+-5
        CFI Block cfiCond49 Using cfiCommon0
        CFI (cfiCond49) NoFunction
        CFI (cfiCond49) Conditional ??CrossCallReturnLabel_110, ??CrossCallReturnLabel_44, ??CrossCallReturnLabel_7
        CFI (cfiCond49) DPL0 Frame(CFA_SP, 4)
        CFI (cfiCond49) DPH0 Frame(CFA_SP, 5)
        CFI (cfiCond49) CFA_SP SP+-5
        CFI Block cfiCond50 Using cfiCommon0
        CFI (cfiCond50) NoFunction
        CFI (cfiCond50) Conditional ??CrossCallReturnLabel_110, ??CrossCallReturnLabel_44, ??CrossCallReturnLabel_8
        CFI (cfiCond50) DPL0 Frame(CFA_SP, 4)
        CFI (cfiCond50) DPH0 Frame(CFA_SP, 5)
        CFI (cfiCond50) CFA_SP SP+-5
        CFI Block cfiCond51 Using cfiCommon0
        CFI (cfiCond51) NoFunction
        CFI (cfiCond51) Conditional ??CrossCallReturnLabel_110, ??CrossCallReturnLabel_45, ??CrossCallReturnLabel_7
        CFI (cfiCond51) DPL0 Frame(CFA_SP, 4)
        CFI (cfiCond51) DPH0 Frame(CFA_SP, 5)
        CFI (cfiCond51) CFA_SP SP+-5
        CFI Block cfiCond52 Using cfiCommon0
        CFI (cfiCond52) NoFunction
        CFI (cfiCond52) Conditional ??CrossCallReturnLabel_110, ??CrossCallReturnLabel_45, ??CrossCallReturnLabel_8
        CFI (cfiCond52) DPL0 Frame(CFA_SP, 4)
        CFI (cfiCond52) DPH0 Frame(CFA_SP, 5)
        CFI (cfiCond52) CFA_SP SP+-5
        CFI Block cfiCond53 Using cfiCommon0
        CFI (cfiCond53) NoFunction
        CFI (cfiCond53) Conditional ??CrossCallReturnLabel_111, ??CrossCallReturnLabel_43, ??CrossCallReturnLabel_9
        CFI (cfiCond53) DPL0 Frame(CFA_SP, 4)
        CFI (cfiCond53) DPH0 Frame(CFA_SP, 5)
        CFI (cfiCond53) CFA_SP SP+-5
        CFI Block cfiCond54 Using cfiCommon0
        CFI (cfiCond54) NoFunction
        CFI (cfiCond54) Conditional ??CrossCallReturnLabel_111, ??CrossCallReturnLabel_43, ??CrossCallReturnLabel_10
        CFI (cfiCond54) DPL0 Frame(CFA_SP, 4)
        CFI (cfiCond54) DPH0 Frame(CFA_SP, 5)
        CFI (cfiCond54) CFA_SP SP+-5
        CFI Block cfiCond55 Using cfiCommon0
        CFI (cfiCond55) NoFunction
        CFI (cfiCond55) Conditional ??CrossCallReturnLabel_111, ??CrossCallReturnLabel_44, ??CrossCallReturnLabel_7
        CFI (cfiCond55) DPL0 Frame(CFA_SP, 4)
        CFI (cfiCond55) DPH0 Frame(CFA_SP, 5)
        CFI (cfiCond55) CFA_SP SP+-5
        CFI Block cfiCond56 Using cfiCommon0
        CFI (cfiCond56) NoFunction
        CFI (cfiCond56) Conditional ??CrossCallReturnLabel_111, ??CrossCallReturnLabel_44, ??CrossCallReturnLabel_8
        CFI (cfiCond56) DPL0 Frame(CFA_SP, 4)
        CFI (cfiCond56) DPH0 Frame(CFA_SP, 5)
        CFI (cfiCond56) CFA_SP SP+-5
        CFI Block cfiCond57 Using cfiCommon0
        CFI (cfiCond57) NoFunction
        CFI (cfiCond57) Conditional ??CrossCallReturnLabel_111, ??CrossCallReturnLabel_45, ??CrossCallReturnLabel_7
        CFI (cfiCond57) DPL0 Frame(CFA_SP, 4)
        CFI (cfiCond57) DPH0 Frame(CFA_SP, 5)
        CFI (cfiCond57) CFA_SP SP+-5
        CFI Block cfiCond58 Using cfiCommon0
        CFI (cfiCond58) NoFunction
        CFI (cfiCond58) Conditional ??CrossCallReturnLabel_111, ??CrossCallReturnLabel_45, ??CrossCallReturnLabel_8
        CFI (cfiCond58) DPL0 Frame(CFA_SP, 4)
        CFI (cfiCond58) DPH0 Frame(CFA_SP, 5)
        CFI (cfiCond58) CFA_SP SP+-5
        CFI Block cfiCond59 Using cfiCommon0
        CFI (cfiCond59) NoFunction
        CFI (cfiCond59) Conditional ??CrossCallReturnLabel_112, ??CrossCallReturnLabel_97, ??CrossCallReturnLabel_19
        CFI (cfiCond59) R6 load(1, XDATA, add(CFA_XSP16, literal(-14)))
        CFI (cfiCond59) VB load(1, XDATA, add(CFA_XSP16, literal(-13)))
        CFI (cfiCond59) V0 load(1, XDATA, add(CFA_XSP16, literal(-12)))
        CFI (cfiCond59) V1 load(1, XDATA, add(CFA_XSP16, literal(-11)))
        CFI (cfiCond59) V2 load(1, XDATA, add(CFA_XSP16, literal(-10)))
        CFI (cfiCond59) V3 load(1, XDATA, add(CFA_XSP16, literal(-9)))
        CFI (cfiCond59) V4 load(1, XDATA, add(CFA_XSP16, literal(-8)))
        CFI (cfiCond59) V5 load(1, XDATA, add(CFA_XSP16, literal(-7)))
        CFI (cfiCond59) R7 load(1, XDATA, add(CFA_XSP16, literal(-6)))
        CFI (cfiCond59) ?RET_LOW load(1, XDATA, add(CFA_XSP16, literal(-5)))
        CFI (cfiCond59) ?RET_HIGH load(1, XDATA, add(CFA_XSP16, literal(-4)))
        CFI (cfiCond59) ?BRET_EXT load(1, XDATA, add(CFA_XSP16, literal(-3)))
        CFI (cfiCond59) DPL0 load(1, XDATA, add(CFA_XSP16, literal(-2)))
        CFI (cfiCond59) DPH0 load(1, XDATA, add(CFA_XSP16, literal(-1)))
        CFI (cfiCond59) CFA_SP SP+0
        CFI (cfiCond59) CFA_XSP16 add(XSP16, 14)
        CFI Block cfiCond60 Using cfiCommon0
        CFI (cfiCond60) NoFunction
        CFI (cfiCond60) Conditional ??CrossCallReturnLabel_112, ??CrossCallReturnLabel_97, ??CrossCallReturnLabel_20
        CFI (cfiCond60) R6 load(1, XDATA, add(CFA_XSP16, literal(-14)))
        CFI (cfiCond60) VB load(1, XDATA, add(CFA_XSP16, literal(-13)))
        CFI (cfiCond60) V0 load(1, XDATA, add(CFA_XSP16, literal(-12)))
        CFI (cfiCond60) V1 load(1, XDATA, add(CFA_XSP16, literal(-11)))
        CFI (cfiCond60) V2 load(1, XDATA, add(CFA_XSP16, literal(-10)))
        CFI (cfiCond60) V3 load(1, XDATA, add(CFA_XSP16, literal(-9)))
        CFI (cfiCond60) V4 load(1, XDATA, add(CFA_XSP16, literal(-8)))
        CFI (cfiCond60) V5 load(1, XDATA, add(CFA_XSP16, literal(-7)))
        CFI (cfiCond60) R7 load(1, XDATA, add(CFA_XSP16, literal(-6)))
        CFI (cfiCond60) ?RET_LOW load(1, XDATA, add(CFA_XSP16, literal(-5)))
        CFI (cfiCond60) ?RET_HIGH load(1, XDATA, add(CFA_XSP16, literal(-4)))
        CFI (cfiCond60) ?BRET_EXT load(1, XDATA, add(CFA_XSP16, literal(-3)))
        CFI (cfiCond60) DPL0 load(1, XDATA, add(CFA_XSP16, literal(-2)))
        CFI (cfiCond60) DPH0 load(1, XDATA, add(CFA_XSP16, literal(-1)))
        CFI (cfiCond60) CFA_SP SP+0
        CFI (cfiCond60) CFA_XSP16 add(XSP16, 14)
        CFI Block cfiCond61 Using cfiCommon0
        CFI (cfiCond61) NoFunction
        CFI (cfiCond61) Conditional ??CrossCallReturnLabel_112, ??CrossCallReturnLabel_98, ??CrossCallReturnLabel_17
        CFI (cfiCond61) R6 load(1, XDATA, add(CFA_XSP16, literal(-14)))
        CFI (cfiCond61) VB load(1, XDATA, add(CFA_XSP16, literal(-13)))
        CFI (cfiCond61) V0 load(1, XDATA, add(CFA_XSP16, literal(-12)))
        CFI (cfiCond61) V1 load(1, XDATA, add(CFA_XSP16, literal(-11)))
        CFI (cfiCond61) V2 load(1, XDATA, add(CFA_XSP16, literal(-10)))
        CFI (cfiCond61) V3 load(1, XDATA, add(CFA_XSP16, literal(-9)))
        CFI (cfiCond61) V4 load(1, XDATA, add(CFA_XSP16, literal(-8)))
        CFI (cfiCond61) V5 load(1, XDATA, add(CFA_XSP16, literal(-7)))
        CFI (cfiCond61) R7 load(1, XDATA, add(CFA_XSP16, literal(-6)))
        CFI (cfiCond61) ?RET_LOW load(1, XDATA, add(CFA_XSP16, literal(-5)))
        CFI (cfiCond61) ?RET_HIGH load(1, XDATA, add(CFA_XSP16, literal(-4)))
        CFI (cfiCond61) ?BRET_EXT load(1, XDATA, add(CFA_XSP16, literal(-3)))
        CFI (cfiCond61) DPL0 load(1, XDATA, add(CFA_XSP16, literal(-2)))
        CFI (cfiCond61) DPH0 load(1, XDATA, add(CFA_XSP16, literal(-1)))
        CFI (cfiCond61) CFA_SP SP+0
        CFI (cfiCond61) CFA_XSP16 add(XSP16, 14)
        CFI Block cfiCond62 Using cfiCommon0
        CFI (cfiCond62) NoFunction
        CFI (cfiCond62) Conditional ??CrossCallReturnLabel_112, ??CrossCallReturnLabel_98, ??CrossCallReturnLabel_18
        CFI (cfiCond62) R6 load(1, XDATA, add(CFA_XSP16, literal(-14)))
        CFI (cfiCond62) VB load(1, XDATA, add(CFA_XSP16, literal(-13)))
        CFI (cfiCond62) V0 load(1, XDATA, add(CFA_XSP16, literal(-12)))
        CFI (cfiCond62) V1 load(1, XDATA, add(CFA_XSP16, literal(-11)))
        CFI (cfiCond62) V2 load(1, XDATA, add(CFA_XSP16, literal(-10)))
        CFI (cfiCond62) V3 load(1, XDATA, add(CFA_XSP16, literal(-9)))
        CFI (cfiCond62) V4 load(1, XDATA, add(CFA_XSP16, literal(-8)))
        CFI (cfiCond62) V5 load(1, XDATA, add(CFA_XSP16, literal(-7)))
        CFI (cfiCond62) R7 load(1, XDATA, add(CFA_XSP16, literal(-6)))
        CFI (cfiCond62) ?RET_LOW load(1, XDATA, add(CFA_XSP16, literal(-5)))
        CFI (cfiCond62) ?RET_HIGH load(1, XDATA, add(CFA_XSP16, literal(-4)))
        CFI (cfiCond62) ?BRET_EXT load(1, XDATA, add(CFA_XSP16, literal(-3)))
        CFI (cfiCond62) DPL0 load(1, XDATA, add(CFA_XSP16, literal(-2)))
        CFI (cfiCond62) DPH0 load(1, XDATA, add(CFA_XSP16, literal(-1)))
        CFI (cfiCond62) CFA_SP SP+0
        CFI (cfiCond62) CFA_XSP16 add(XSP16, 14)
        CFI Block cfiCond63 Using cfiCommon0
        CFI (cfiCond63) NoFunction
        CFI (cfiCond63) Conditional ??CrossCallReturnLabel_112, ??CrossCallReturnLabel_99, ??CrossCallReturnLabel_15
        CFI (cfiCond63) DPL0 Frame(CFA_SP, 4)
        CFI (cfiCond63) DPH0 Frame(CFA_SP, 5)
        CFI (cfiCond63) CFA_SP SP+-5
        CFI Block cfiCond64 Using cfiCommon0
        CFI (cfiCond64) NoFunction
        CFI (cfiCond64) Conditional ??CrossCallReturnLabel_112, ??CrossCallReturnLabel_99, ??CrossCallReturnLabel_16
        CFI (cfiCond64) DPL0 Frame(CFA_SP, 4)
        CFI (cfiCond64) DPH0 Frame(CFA_SP, 5)
        CFI (cfiCond64) CFA_SP SP+-5
        CFI Block cfiCond65 Using cfiCommon0
        CFI (cfiCond65) NoFunction
        CFI (cfiCond65) Conditional ??CrossCallReturnLabel_112, ??CrossCallReturnLabel_100, ??CrossCallReturnLabel_15
        CFI (cfiCond65) DPL0 Frame(CFA_SP, 4)
        CFI (cfiCond65) DPH0 Frame(CFA_SP, 5)
        CFI (cfiCond65) CFA_SP SP+-5
        CFI Block cfiCond66 Using cfiCommon0
        CFI (cfiCond66) NoFunction
        CFI (cfiCond66) Conditional ??CrossCallReturnLabel_112, ??CrossCallReturnLabel_100, ??CrossCallReturnLabel_16
        CFI (cfiCond66) DPL0 Frame(CFA_SP, 4)
        CFI (cfiCond66) DPH0 Frame(CFA_SP, 5)
        CFI (cfiCond66) CFA_SP SP+-5
        CFI Block cfiCond67 Using cfiCommon0
        CFI (cfiCond67) NoFunction
        CFI (cfiCond67) Conditional ??CrossCallReturnLabel_112, ??CrossCallReturnLabel_101, ??CrossCallReturnLabel_9
        CFI (cfiCond67) DPL0 Frame(CFA_SP, 4)
        CFI (cfiCond67) DPH0 Frame(CFA_SP, 5)
        CFI (cfiCond67) CFA_SP SP+-5
        CFI Block cfiCond68 Using cfiCommon0
        CFI (cfiCond68) NoFunction
        CFI (cfiCond68) Conditional ??CrossCallReturnLabel_112, ??CrossCallReturnLabel_101, ??CrossCallReturnLabel_10
        CFI (cfiCond68) DPL0 Frame(CFA_SP, 4)
        CFI (cfiCond68) DPH0 Frame(CFA_SP, 5)
        CFI (cfiCond68) CFA_SP SP+-5
        CFI Block cfiCond69 Using cfiCommon0
        CFI (cfiCond69) NoFunction
        CFI (cfiCond69) Conditional ??CrossCallReturnLabel_112, ??CrossCallReturnLabel_102, ??CrossCallReturnLabel_3
        CFI (cfiCond69) DPL0 Frame(CFA_SP, 4)
        CFI (cfiCond69) DPH0 Frame(CFA_SP, 5)
        CFI (cfiCond69) CFA_SP SP+-5
        CFI Block cfiCond70 Using cfiCommon0
        CFI (cfiCond70) NoFunction
        CFI (cfiCond70) Conditional ??CrossCallReturnLabel_112, ??CrossCallReturnLabel_102, ??CrossCallReturnLabel_4
        CFI (cfiCond70) DPL0 Frame(CFA_SP, 4)
        CFI (cfiCond70) DPH0 Frame(CFA_SP, 5)
        CFI (cfiCond70) CFA_SP SP+-5
        CFI Block cfiCond71 Using cfiCommon0
        CFI (cfiCond71) NoFunction
        CFI (cfiCond71) Conditional ??CrossCallReturnLabel_112, ??CrossCallReturnLabel_102, ??CrossCallReturnLabel_5
        CFI (cfiCond71) DPL0 Frame(CFA_SP, 4)
        CFI (cfiCond71) DPH0 Frame(CFA_SP, 5)
        CFI (cfiCond71) CFA_SP SP+-5
        CFI Block cfiCond72 Using cfiCommon0
        CFI (cfiCond72) NoFunction
        CFI (cfiCond72) Conditional ??CrossCallReturnLabel_112, ??CrossCallReturnLabel_102, ??CrossCallReturnLabel_6
        CFI (cfiCond72) DPL0 Frame(CFA_SP, 4)
        CFI (cfiCond72) DPH0 Frame(CFA_SP, 5)
        CFI (cfiCond72) CFA_SP SP+-5
        CFI Block cfiCond73 Using cfiCommon0
        CFI (cfiCond73) NoFunction
        CFI (cfiCond73) Conditional ??CrossCallReturnLabel_112, ??CrossCallReturnLabel_103, ??CrossCallReturnLabel_3
        CFI (cfiCond73) DPL0 Frame(CFA_SP, 4)
        CFI (cfiCond73) DPH0 Frame(CFA_SP, 5)
        CFI (cfiCond73) CFA_SP SP+-5
        CFI Block cfiCond74 Using cfiCommon0
        CFI (cfiCond74) NoFunction
        CFI (cfiCond74) Conditional ??CrossCallReturnLabel_112, ??CrossCallReturnLabel_103, ??CrossCallReturnLabel_4
        CFI (cfiCond74) DPL0 Frame(CFA_SP, 4)
        CFI (cfiCond74) DPH0 Frame(CFA_SP, 5)
        CFI (cfiCond74) CFA_SP SP+-5
        CFI Block cfiCond75 Using cfiCommon0
        CFI (cfiCond75) NoFunction
        CFI (cfiCond75) Conditional ??CrossCallReturnLabel_112, ??CrossCallReturnLabel_103, ??CrossCallReturnLabel_5
        CFI (cfiCond75) DPL0 Frame(CFA_SP, 4)
        CFI (cfiCond75) DPH0 Frame(CFA_SP, 5)
        CFI (cfiCond75) CFA_SP SP+-5
        CFI Block cfiCond76 Using cfiCommon0
        CFI (cfiCond76) NoFunction
        CFI (cfiCond76) Conditional ??CrossCallReturnLabel_112, ??CrossCallReturnLabel_103, ??CrossCallReturnLabel_6
        CFI (cfiCond76) DPL0 Frame(CFA_SP, 4)
        CFI (cfiCond76) DPH0 Frame(CFA_SP, 5)
        CFI (cfiCond76) CFA_SP SP+-5
        CFI Block cfiCond77 Using cfiCommon0
        CFI (cfiCond77) NoFunction
        CFI (cfiCond77) Conditional ??CrossCallReturnLabel_112, ??CrossCallReturnLabel_104, ??CrossCallReturnLabel_0
        CFI (cfiCond77) DPL0 Frame(CFA_SP, 4)
        CFI (cfiCond77) DPH0 Frame(CFA_SP, 5)
        CFI (cfiCond77) CFA_SP SP+-5
        CFI Block cfiCond78 Using cfiCommon0
        CFI (cfiCond78) NoFunction
        CFI (cfiCond78) Conditional ??CrossCallReturnLabel_112, ??CrossCallReturnLabel_104, ??CrossCallReturnLabel_1
        CFI (cfiCond78) DPL0 Frame(CFA_SP, 4)
        CFI (cfiCond78) DPH0 Frame(CFA_SP, 5)
        CFI (cfiCond78) CFA_SP SP+-5
        CFI Block cfiCond79 Using cfiCommon0
        CFI (cfiCond79) NoFunction
        CFI (cfiCond79) Conditional ??CrossCallReturnLabel_112, ??CrossCallReturnLabel_104, ??CrossCallReturnLabel_2
        CFI (cfiCond79) DPL0 Frame(CFA_SP, 4)
        CFI (cfiCond79) DPH0 Frame(CFA_SP, 5)
        CFI (cfiCond79) CFA_SP SP+-5
        CFI Block cfiCond80 Using cfiCommon0
        CFI (cfiCond80) NoFunction
        CFI (cfiCond80) Conditional ??CrossCallReturnLabel_112, ??CrossCallReturnLabel_105, ??CrossCallReturnLabel_64
        CFI (cfiCond80) DPL0 Frame(CFA_SP, 4)
        CFI (cfiCond80) DPH0 Frame(CFA_SP, 5)
        CFI (cfiCond80) CFA_SP SP+-5
        CFI Block cfiCond81 Using cfiCommon0
        CFI (cfiCond81) NoFunction
        CFI (cfiCond81) Conditional ??CrossCallReturnLabel_112, ??CrossCallReturnLabel_105, ??CrossCallReturnLabel_65
        CFI (cfiCond81) DPL0 Frame(CFA_SP, 4)
        CFI (cfiCond81) DPH0 Frame(CFA_SP, 5)
        CFI (cfiCond81) CFA_SP SP+-5
        CFI Block cfiCond82 Using cfiCommon0
        CFI (cfiCond82) NoFunction
        CFI (cfiCond82) Conditional ??CrossCallReturnLabel_112, ??CrossCallReturnLabel_105, ??CrossCallReturnLabel_66
        CFI (cfiCond82) DPL0 Frame(CFA_SP, 4)
        CFI (cfiCond82) DPH0 Frame(CFA_SP, 5)
        CFI (cfiCond82) CFA_SP SP+-5
        CFI Block cfiCond83 Using cfiCommon0
        CFI (cfiCond83) NoFunction
        CFI (cfiCond83) Conditional ??CrossCallReturnLabel_112, ??CrossCallReturnLabel_105, ??CrossCallReturnLabel_67
        CFI (cfiCond83) DPL0 Frame(CFA_SP, 4)
        CFI (cfiCond83) DPH0 Frame(CFA_SP, 5)
        CFI (cfiCond83) CFA_SP SP+-5
        CFI Block cfiCond84 Using cfiCommon0
        CFI (cfiCond84) NoFunction
        CFI (cfiCond84) Conditional ??CrossCallReturnLabel_112, ??CrossCallReturnLabel_105, ??CrossCallReturnLabel_68
        CFI (cfiCond84) DPL0 Frame(CFA_SP, 4)
        CFI (cfiCond84) DPH0 Frame(CFA_SP, 5)
        CFI (cfiCond84) CFA_SP SP+-5
        CFI Block cfiCond85 Using cfiCommon0
        CFI (cfiCond85) NoFunction
        CFI (cfiCond85) Conditional ??CrossCallReturnLabel_112, ??CrossCallReturnLabel_105, ??CrossCallReturnLabel_69
        CFI (cfiCond85) DPL0 Frame(CFA_SP, 4)
        CFI (cfiCond85) DPH0 Frame(CFA_SP, 5)
        CFI (cfiCond85) CFA_SP SP+-5
        CFI Block cfiCond86 Using cfiCommon0
        CFI (cfiCond86) NoFunction
        CFI (cfiCond86) Conditional ??CrossCallReturnLabel_112, ??CrossCallReturnLabel_105, ??CrossCallReturnLabel_70
        CFI (cfiCond86) DPL0 Frame(CFA_SP, 4)
        CFI (cfiCond86) DPH0 Frame(CFA_SP, 5)
        CFI (cfiCond86) CFA_SP SP+-5
        CFI Block cfiCond87 Using cfiCommon0
        CFI (cfiCond87) NoFunction
        CFI (cfiCond87) Conditional ??CrossCallReturnLabel_112, ??CrossCallReturnLabel_105, ??CrossCallReturnLabel_71
        CFI (cfiCond87) DPL0 Frame(CFA_SP, 4)
        CFI (cfiCond87) DPH0 Frame(CFA_SP, 5)
        CFI (cfiCond87) CFA_SP SP+-5
        CFI Block cfiCond88 Using cfiCommon0
        CFI (cfiCond88) NoFunction
        CFI (cfiCond88) Conditional ??CrossCallReturnLabel_112, ??CrossCallReturnLabel_105, ??CrossCallReturnLabel_72
        CFI (cfiCond88) DPL0 Frame(CFA_SP, 4)
        CFI (cfiCond88) DPH0 Frame(CFA_SP, 5)
        CFI (cfiCond88) CFA_SP SP+-5
        CFI Block cfiCond89 Using cfiCommon0
        CFI (cfiCond89) NoFunction
        CFI (cfiCond89) Conditional ??CrossCallReturnLabel_112, ??CrossCallReturnLabel_105, ??CrossCallReturnLabel_73
        CFI (cfiCond89) DPL0 Frame(CFA_SP, 4)
        CFI (cfiCond89) DPH0 Frame(CFA_SP, 5)
        CFI (cfiCond89) CFA_SP SP+-5
        CFI Block cfiCond90 Using cfiCommon0
        CFI (cfiCond90) NoFunction
        CFI (cfiCond90) Conditional ??CrossCallReturnLabel_112, ??CrossCallReturnLabel_105, ??CrossCallReturnLabel_74
        CFI (cfiCond90) DPL0 Frame(CFA_SP, 4)
        CFI (cfiCond90) DPH0 Frame(CFA_SP, 5)
        CFI (cfiCond90) CFA_SP SP+-5
        CFI Block cfiCond91 Using cfiCommon0
        CFI (cfiCond91) NoFunction
        CFI (cfiCond91) Conditional ??CrossCallReturnLabel_112, ??CrossCallReturnLabel_105, ??CrossCallReturnLabel_75
        CFI (cfiCond91) DPL0 Frame(CFA_SP, 4)
        CFI (cfiCond91) DPH0 Frame(CFA_SP, 5)
        CFI (cfiCond91) CFA_SP SP+-5
        CFI Block cfiCond92 Using cfiCommon0
        CFI (cfiCond92) NoFunction
        CFI (cfiCond92) Conditional ??CrossCallReturnLabel_112, ??CrossCallReturnLabel_105, ??CrossCallReturnLabel_76
        CFI (cfiCond92) DPL0 Frame(CFA_SP, 4)
        CFI (cfiCond92) DPH0 Frame(CFA_SP, 5)
        CFI (cfiCond92) CFA_SP SP+-5
        CFI Block cfiCond93 Using cfiCommon0
        CFI (cfiCond93) NoFunction
        CFI (cfiCond93) Conditional ??CrossCallReturnLabel_112, ??CrossCallReturnLabel_105, ??CrossCallReturnLabel_77
        CFI (cfiCond93) DPL0 Frame(CFA_SP, 4)
        CFI (cfiCond93) DPH0 Frame(CFA_SP, 5)
        CFI (cfiCond93) CFA_SP SP+-5
        CFI Block cfiCond94 Using cfiCommon0
        CFI (cfiCond94) NoFunction
        CFI (cfiCond94) Conditional ??CrossCallReturnLabel_112, ??CrossCallReturnLabel_105, ??CrossCallReturnLabel_78
        CFI (cfiCond94) DPL0 Frame(CFA_SP, 4)
        CFI (cfiCond94) DPH0 Frame(CFA_SP, 5)
        CFI (cfiCond94) CFA_SP SP+-5
        CFI Block cfiCond95 Using cfiCommon0
        CFI (cfiCond95) NoFunction
        CFI (cfiCond95) Conditional ??CrossCallReturnLabel_112, ??CrossCallReturnLabel_105, ??CrossCallReturnLabel_79
        CFI (cfiCond95) DPL0 Frame(CFA_SP, 4)
        CFI (cfiCond95) DPH0 Frame(CFA_SP, 5)
        CFI (cfiCond95) CFA_SP SP+-5
        CFI Block cfiCond96 Using cfiCommon0
        CFI (cfiCond96) NoFunction
        CFI (cfiCond96) Conditional ??CrossCallReturnLabel_112, ??CrossCallReturnLabel_105, ??CrossCallReturnLabel_80
        CFI (cfiCond96) DPL0 Frame(CFA_SP, 4)
        CFI (cfiCond96) DPH0 Frame(CFA_SP, 5)
        CFI (cfiCond96) CFA_SP SP+-5
        CFI Block cfiCond97 Using cfiCommon0
        CFI (cfiCond97) NoFunction
        CFI (cfiCond97) Conditional ??CrossCallReturnLabel_112, ??CrossCallReturnLabel_105, ??CrossCallReturnLabel_81
        CFI (cfiCond97) DPL0 Frame(CFA_SP, 4)
        CFI (cfiCond97) DPH0 Frame(CFA_SP, 5)
        CFI (cfiCond97) CFA_SP SP+-5
        CFI Block cfiCond98 Using cfiCommon0
        CFI (cfiCond98) NoFunction
        CFI (cfiCond98) Conditional ??CrossCallReturnLabel_112, ??CrossCallReturnLabel_105, ??CrossCallReturnLabel_82
        CFI (cfiCond98) DPL0 Frame(CFA_SP, 4)
        CFI (cfiCond98) DPH0 Frame(CFA_SP, 5)
        CFI (cfiCond98) CFA_SP SP+-5
        CFI Block cfiCond99 Using cfiCommon0
        CFI (cfiCond99) NoFunction
        CFI (cfiCond99) Conditional ??CrossCallReturnLabel_112, ??CrossCallReturnLabel_105, ??CrossCallReturnLabel_83
        CFI (cfiCond99) DPL0 Frame(CFA_SP, 4)
        CFI (cfiCond99) DPH0 Frame(CFA_SP, 5)
        CFI (cfiCond99) CFA_SP SP+-5
        CFI Block cfiCond100 Using cfiCommon0
        CFI (cfiCond100) NoFunction
        CFI (cfiCond100) Conditional ??CrossCallReturnLabel_112, ??CrossCallReturnLabel_105, ??CrossCallReturnLabel_84
        CFI (cfiCond100) DPL0 Frame(CFA_SP, 4)
        CFI (cfiCond100) DPH0 Frame(CFA_SP, 5)
        CFI (cfiCond100) CFA_SP SP+-5
        CFI Block cfiCond101 Using cfiCommon0
        CFI (cfiCond101) NoFunction
        CFI (cfiCond101) Conditional ??CrossCallReturnLabel_112, ??CrossCallReturnLabel_105, ??CrossCallReturnLabel_85
        CFI (cfiCond101) DPL0 Frame(CFA_SP, 4)
        CFI (cfiCond101) DPH0 Frame(CFA_SP, 5)
        CFI (cfiCond101) CFA_SP SP+-5
        CFI Block cfiCond102 Using cfiCommon0
        CFI (cfiCond102) NoFunction
        CFI (cfiCond102) Conditional ??CrossCallReturnLabel_112, ??CrossCallReturnLabel_105, ??CrossCallReturnLabel_86
        CFI (cfiCond102) DPL0 Frame(CFA_SP, 4)
        CFI (cfiCond102) DPH0 Frame(CFA_SP, 5)
        CFI (cfiCond102) CFA_SP SP+-5
        CFI Block cfiCond103 Using cfiCommon0
        CFI (cfiCond103) NoFunction
        CFI (cfiCond103) Conditional ??CrossCallReturnLabel_112, ??CrossCallReturnLabel_105, ??CrossCallReturnLabel_87
        CFI (cfiCond103) DPL0 Frame(CFA_SP, 4)
        CFI (cfiCond103) DPH0 Frame(CFA_SP, 5)
        CFI (cfiCond103) CFA_SP SP+-5
        CFI Block cfiCond104 Using cfiCommon0
        CFI (cfiCond104) NoFunction
        CFI (cfiCond104) Conditional ??CrossCallReturnLabel_112, ??CrossCallReturnLabel_105, ??CrossCallReturnLabel_88
        CFI (cfiCond104) DPL0 Frame(CFA_SP, 4)
        CFI (cfiCond104) DPH0 Frame(CFA_SP, 5)
        CFI (cfiCond104) CFA_SP SP+-5
        CFI Block cfiCond105 Using cfiCommon0
        CFI (cfiCond105) NoFunction
        CFI (cfiCond105) Conditional ??CrossCallReturnLabel_112, ??CrossCallReturnLabel_105, ??CrossCallReturnLabel_89
        CFI (cfiCond105) DPL0 Frame(CFA_SP, 4)
        CFI (cfiCond105) DPH0 Frame(CFA_SP, 5)
        CFI (cfiCond105) CFA_SP SP+-5
        CFI Block cfiCond106 Using cfiCommon0
        CFI (cfiCond106) NoFunction
        CFI (cfiCond106) Conditional ??CrossCallReturnLabel_112, ??CrossCallReturnLabel_105, ??CrossCallReturnLabel_90
        CFI (cfiCond106) DPL0 Frame(CFA_SP, 4)
        CFI (cfiCond106) DPH0 Frame(CFA_SP, 5)
        CFI (cfiCond106) CFA_SP SP+-5
        CFI Block cfiCond107 Using cfiCommon0
        CFI (cfiCond107) NoFunction
        CFI (cfiCond107) Conditional ??CrossCallReturnLabel_112, ??CrossCallReturnLabel_105, ??CrossCallReturnLabel_91
        CFI (cfiCond107) DPL0 Frame(CFA_SP, 4)
        CFI (cfiCond107) DPH0 Frame(CFA_SP, 5)
        CFI (cfiCond107) CFA_SP SP+-5
        CFI Block cfiCond108 Using cfiCommon0
        CFI (cfiCond108) NoFunction
        CFI (cfiCond108) Conditional ??CrossCallReturnLabel_112, ??CrossCallReturnLabel_105, ??CrossCallReturnLabel_92
        CFI (cfiCond108) R6 load(1, XDATA, add(CFA_XSP16, literal(-14)))
        CFI (cfiCond108) VB load(1, XDATA, add(CFA_XSP16, literal(-13)))
        CFI (cfiCond108) V0 load(1, XDATA, add(CFA_XSP16, literal(-12)))
        CFI (cfiCond108) V1 load(1, XDATA, add(CFA_XSP16, literal(-11)))
        CFI (cfiCond108) V2 load(1, XDATA, add(CFA_XSP16, literal(-10)))
        CFI (cfiCond108) V3 load(1, XDATA, add(CFA_XSP16, literal(-9)))
        CFI (cfiCond108) V4 load(1, XDATA, add(CFA_XSP16, literal(-8)))
        CFI (cfiCond108) V5 load(1, XDATA, add(CFA_XSP16, literal(-7)))
        CFI (cfiCond108) R7 load(1, XDATA, add(CFA_XSP16, literal(-6)))
        CFI (cfiCond108) ?RET_LOW load(1, XDATA, add(CFA_XSP16, literal(-5)))
        CFI (cfiCond108) ?RET_HIGH load(1, XDATA, add(CFA_XSP16, literal(-4)))
        CFI (cfiCond108) ?BRET_EXT load(1, XDATA, add(CFA_XSP16, literal(-3)))
        CFI (cfiCond108) DPL0 load(1, XDATA, add(CFA_XSP16, literal(-2)))
        CFI (cfiCond108) DPH0 load(1, XDATA, add(CFA_XSP16, literal(-1)))
        CFI (cfiCond108) CFA_SP SP+0
        CFI (cfiCond108) CFA_XSP16 add(XSP16, 14)
        CFI Block cfiCond109 Using cfiCommon0
        CFI (cfiCond109) NoFunction
        CFI (cfiCond109) Conditional ??CrossCallReturnLabel_112, ??CrossCallReturnLabel_105, ??CrossCallReturnLabel_93
        CFI (cfiCond109) R6 load(1, XDATA, add(CFA_XSP16, literal(-14)))
        CFI (cfiCond109) VB load(1, XDATA, add(CFA_XSP16, literal(-13)))
        CFI (cfiCond109) V0 load(1, XDATA, add(CFA_XSP16, literal(-12)))
        CFI (cfiCond109) V1 load(1, XDATA, add(CFA_XSP16, literal(-11)))
        CFI (cfiCond109) V2 load(1, XDATA, add(CFA_XSP16, literal(-10)))
        CFI (cfiCond109) V3 load(1, XDATA, add(CFA_XSP16, literal(-9)))
        CFI (cfiCond109) V4 load(1, XDATA, add(CFA_XSP16, literal(-8)))
        CFI (cfiCond109) V5 load(1, XDATA, add(CFA_XSP16, literal(-7)))
        CFI (cfiCond109) R7 load(1, XDATA, add(CFA_XSP16, literal(-6)))
        CFI (cfiCond109) ?RET_LOW load(1, XDATA, add(CFA_XSP16, literal(-5)))
        CFI (cfiCond109) ?RET_HIGH load(1, XDATA, add(CFA_XSP16, literal(-4)))
        CFI (cfiCond109) ?BRET_EXT load(1, XDATA, add(CFA_XSP16, literal(-3)))
        CFI (cfiCond109) DPL0 load(1, XDATA, add(CFA_XSP16, literal(-2)))
        CFI (cfiCond109) DPH0 load(1, XDATA, add(CFA_XSP16, literal(-1)))
        CFI (cfiCond109) CFA_SP SP+0
        CFI (cfiCond109) CFA_XSP16 add(XSP16, 14)
        CFI Block cfiCond110 Using cfiCommon0
        CFI (cfiCond110) NoFunction
        CFI (cfiCond110) Conditional ??CrossCallReturnLabel_112, ??CrossCallReturnLabel_105, ??CrossCallReturnLabel_94
        CFI (cfiCond110) R6 load(1, XDATA, add(CFA_XSP16, literal(-14)))
        CFI (cfiCond110) VB load(1, XDATA, add(CFA_XSP16, literal(-13)))
        CFI (cfiCond110) V0 load(1, XDATA, add(CFA_XSP16, literal(-12)))
        CFI (cfiCond110) V1 load(1, XDATA, add(CFA_XSP16, literal(-11)))
        CFI (cfiCond110) V2 load(1, XDATA, add(CFA_XSP16, literal(-10)))
        CFI (cfiCond110) V3 load(1, XDATA, add(CFA_XSP16, literal(-9)))
        CFI (cfiCond110) V4 load(1, XDATA, add(CFA_XSP16, literal(-8)))
        CFI (cfiCond110) V5 load(1, XDATA, add(CFA_XSP16, literal(-7)))
        CFI (cfiCond110) R7 load(1, XDATA, add(CFA_XSP16, literal(-6)))
        CFI (cfiCond110) ?RET_LOW load(1, XDATA, add(CFA_XSP16, literal(-5)))
        CFI (cfiCond110) ?RET_HIGH load(1, XDATA, add(CFA_XSP16, literal(-4)))
        CFI (cfiCond110) ?BRET_EXT load(1, XDATA, add(CFA_XSP16, literal(-3)))
        CFI (cfiCond110) DPL0 load(1, XDATA, add(CFA_XSP16, literal(-2)))
        CFI (cfiCond110) DPH0 load(1, XDATA, add(CFA_XSP16, literal(-1)))
        CFI (cfiCond110) CFA_SP SP+0
        CFI (cfiCond110) CFA_XSP16 add(XSP16, 14)
        CFI Block cfiCond111 Using cfiCommon0
        CFI (cfiCond111) NoFunction
        CFI (cfiCond111) Conditional ??CrossCallReturnLabel_112, ??CrossCallReturnLabel_105, ??CrossCallReturnLabel_95
        CFI (cfiCond111) R6 load(1, XDATA, add(CFA_XSP16, literal(-14)))
        CFI (cfiCond111) VB load(1, XDATA, add(CFA_XSP16, literal(-13)))
        CFI (cfiCond111) V0 load(1, XDATA, add(CFA_XSP16, literal(-12)))
        CFI (cfiCond111) V1 load(1, XDATA, add(CFA_XSP16, literal(-11)))
        CFI (cfiCond111) V2 load(1, XDATA, add(CFA_XSP16, literal(-10)))
        CFI (cfiCond111) V3 load(1, XDATA, add(CFA_XSP16, literal(-9)))
        CFI (cfiCond111) V4 load(1, XDATA, add(CFA_XSP16, literal(-8)))
        CFI (cfiCond111) V5 load(1, XDATA, add(CFA_XSP16, literal(-7)))
        CFI (cfiCond111) R7 load(1, XDATA, add(CFA_XSP16, literal(-6)))
        CFI (cfiCond111) ?RET_LOW load(1, XDATA, add(CFA_XSP16, literal(-5)))
        CFI (cfiCond111) ?RET_HIGH load(1, XDATA, add(CFA_XSP16, literal(-4)))
        CFI (cfiCond111) ?BRET_EXT load(1, XDATA, add(CFA_XSP16, literal(-3)))
        CFI (cfiCond111) DPL0 load(1, XDATA, add(CFA_XSP16, literal(-2)))
        CFI (cfiCond111) DPH0 load(1, XDATA, add(CFA_XSP16, literal(-1)))
        CFI (cfiCond111) CFA_SP SP+0
        CFI (cfiCond111) CFA_XSP16 add(XSP16, 14)
        CFI Block cfiCond112 Using cfiCommon0
        CFI (cfiCond112) NoFunction
        CFI (cfiCond112) Conditional ??CrossCallReturnLabel_112, ??CrossCallReturnLabel_105, ??CrossCallReturnLabel_96
        CFI (cfiCond112) R6 load(1, XDATA, add(CFA_XSP16, literal(-9)))
        CFI (cfiCond112) VB load(1, XDATA, add(CFA_XSP16, literal(-8)))
        CFI (cfiCond112) V0 load(1, XDATA, add(CFA_XSP16, literal(-7)))
        CFI (cfiCond112) R7 load(1, XDATA, add(CFA_XSP16, literal(-6)))
        CFI (cfiCond112) ?RET_LOW load(1, XDATA, add(CFA_XSP16, literal(-5)))
        CFI (cfiCond112) ?RET_HIGH load(1, XDATA, add(CFA_XSP16, literal(-4)))
        CFI (cfiCond112) ?BRET_EXT load(1, XDATA, add(CFA_XSP16, literal(-3)))
        CFI (cfiCond112) DPL0 load(1, XDATA, add(CFA_XSP16, literal(-2)))
        CFI (cfiCond112) DPH0 load(1, XDATA, add(CFA_XSP16, literal(-1)))
        CFI (cfiCond112) CFA_SP SP+0
        CFI (cfiCond112) CFA_XSP16 add(XSP16, 9)
        CFI Block cfiCond113 Using cfiCommon0
        CFI (cfiCond113) NoFunction
        CFI (cfiCond113) Conditional ??CrossCallReturnLabel_112, ??CrossCallReturnLabel_106, ??CrossCallReturnLabel_113
        CFI (cfiCond113) DPL0 Frame(CFA_SP, 4)
        CFI (cfiCond113) DPH0 Frame(CFA_SP, 5)
        CFI (cfiCond113) CFA_SP SP+-5
        CFI Block cfiCond114 Using cfiCommon0
        CFI (cfiCond114) NoFunction
        CFI (cfiCond114) Conditional ??CrossCallReturnLabel_112, ??CrossCallReturnLabel_106, ??CrossCallReturnLabel_114
        CFI (cfiCond114) DPL0 Frame(CFA_SP, 4)
        CFI (cfiCond114) DPH0 Frame(CFA_SP, 5)
        CFI (cfiCond114) CFA_SP SP+-5
        CFI Block cfiCond115 Using cfiCommon0
        CFI (cfiCond115) NoFunction
        CFI (cfiCond115) Conditional ??CrossCallReturnLabel_112, ??CrossCallReturnLabel_107, ??CrossCallReturnLabel_11
        CFI (cfiCond115) R6 load(1, XDATA, add(CFA_XSP16, literal(-14)))
        CFI (cfiCond115) VB load(1, XDATA, add(CFA_XSP16, literal(-13)))
        CFI (cfiCond115) V0 load(1, XDATA, add(CFA_XSP16, literal(-12)))
        CFI (cfiCond115) V1 load(1, XDATA, add(CFA_XSP16, literal(-11)))
        CFI (cfiCond115) V2 load(1, XDATA, add(CFA_XSP16, literal(-10)))
        CFI (cfiCond115) V3 load(1, XDATA, add(CFA_XSP16, literal(-9)))
        CFI (cfiCond115) V4 load(1, XDATA, add(CFA_XSP16, literal(-8)))
        CFI (cfiCond115) V5 load(1, XDATA, add(CFA_XSP16, literal(-7)))
        CFI (cfiCond115) R7 load(1, XDATA, add(CFA_XSP16, literal(-6)))
        CFI (cfiCond115) ?RET_LOW load(1, XDATA, add(CFA_XSP16, literal(-5)))
        CFI (cfiCond115) ?RET_HIGH load(1, XDATA, add(CFA_XSP16, literal(-4)))
        CFI (cfiCond115) ?BRET_EXT load(1, XDATA, add(CFA_XSP16, literal(-3)))
        CFI (cfiCond115) DPL0 load(1, XDATA, add(CFA_XSP16, literal(-2)))
        CFI (cfiCond115) DPH0 load(1, XDATA, add(CFA_XSP16, literal(-1)))
        CFI (cfiCond115) CFA_SP SP+0
        CFI (cfiCond115) CFA_XSP16 add(XSP16, 14)
        CFI Block cfiCond116 Using cfiCommon0
        CFI (cfiCond116) NoFunction
        CFI (cfiCond116) Conditional ??CrossCallReturnLabel_112, ??CrossCallReturnLabel_107, ??CrossCallReturnLabel_12
        CFI (cfiCond116) R6 load(1, XDATA, add(CFA_XSP16, literal(-14)))
        CFI (cfiCond116) VB load(1, XDATA, add(CFA_XSP16, literal(-13)))
        CFI (cfiCond116) V0 load(1, XDATA, add(CFA_XSP16, literal(-12)))
        CFI (cfiCond116) V1 load(1, XDATA, add(CFA_XSP16, literal(-11)))
        CFI (cfiCond116) V2 load(1, XDATA, add(CFA_XSP16, literal(-10)))
        CFI (cfiCond116) V3 load(1, XDATA, add(CFA_XSP16, literal(-9)))
        CFI (cfiCond116) V4 load(1, XDATA, add(CFA_XSP16, literal(-8)))
        CFI (cfiCond116) V5 load(1, XDATA, add(CFA_XSP16, literal(-7)))
        CFI (cfiCond116) R7 load(1, XDATA, add(CFA_XSP16, literal(-6)))
        CFI (cfiCond116) ?RET_LOW load(1, XDATA, add(CFA_XSP16, literal(-5)))
        CFI (cfiCond116) ?RET_HIGH load(1, XDATA, add(CFA_XSP16, literal(-4)))
        CFI (cfiCond116) ?BRET_EXT load(1, XDATA, add(CFA_XSP16, literal(-3)))
        CFI (cfiCond116) DPL0 load(1, XDATA, add(CFA_XSP16, literal(-2)))
        CFI (cfiCond116) DPH0 load(1, XDATA, add(CFA_XSP16, literal(-1)))
        CFI (cfiCond116) CFA_SP SP+0
        CFI (cfiCond116) CFA_XSP16 add(XSP16, 14)
        CFI Block cfiPicker117 Using cfiCommon1
        CFI (cfiPicker117) NoFunction
        CFI (cfiPicker117) Picker
        LCALL   ??LCD_write_byte?relay
        ; Setup parameters for call to function LCD_write_byte
        ; Setup parameters for call to function LCD_write_byte
        ; Setup parameters for call to function LCD_write_byte
        ; Setup parameters for call to function LCD_write_byte
        ; Setup parameters for call to function LCD_write_byte
        ; Setup parameters for call to function LCD_write_byte
        ; Setup parameters for call to function LCD_write_byte
        ; Setup parameters for call to function LCD_write_byte
        ; Setup parameters for call to function LCD_write_byte
        ; Setup parameters for call to function LCD_write_byte
        ; Setup parameters for call to function LCD_write_byte
        ; Setup parameters for call to function LCD_write_byte
        ; Setup parameters for call to function LCD_write_byte
        ; Setup parameters for call to function LCD_write_byte
        ; Setup parameters for call to function LCD_write_byte
        ; Setup parameters for call to function LCD_write_byte
        ; Setup parameters for call to function LCD_write_byte
        ; Setup parameters for call to function LCD_write_byte
        ; Setup parameters for call to function LCD_write_byte
        ; Setup parameters for call to function LCD_write_byte
        ; Setup parameters for call to function LCD_write_byte
        ; Setup parameters for call to function LCD_write_byte
        ; Setup parameters for call to function LCD_write_byte
        ; Setup parameters for call to function LCD_write_byte
        ; Setup parameters for call to function LCD_write_byte
        ; Setup parameters for call to function LCD_write_byte
        ; Setup parameters for call to function LCD_write_byte
        ; Setup parameters for call to function LCD_write_byte
        ; Setup parameters for call to function LCD_write_byte
        ; Setup parameters for call to function LCD_write_byte
        ; Setup parameters for call to function LCD_write_byte
        ; Setup parameters for call to function LCD_write_byte
        ; Setup parameters for call to function LCD_write_byte
        ; Setup parameters for call to function LCD_write_byte
        ; Setup parameters for call to function LCD_write_byte
        ; Setup parameters for call to function LCD_write_byte
        ; Setup parameters for call to function LCD_write_byte
        ; Setup parameters for call to function LCD_write_byte
        ; Setup parameters for call to function LCD_write_byte
        ; Setup parameters for call to function LCD_write_byte
        ; Setup parameters for call to function LCD_write_byte
        ; Setup parameters for call to function LCD_write_byte
        ; Setup parameters for call to function LCD_write_byte
        ; Setup parameters for call to function LCD_write_byte
        ; Setup parameters for call to function LCD_write_byte
        ; Setup parameters for call to function DelayMS
        ; Setup parameters for call to function LCD_write_byte
        ; Setup parameters for call to function LCD_write_byte
        ; Setup parameters for call to function LCD_write_byte
        ; Setup parameters for call to function LCD_write_byte
        ; Setup parameters for call to function LCD_write_byte
        ; Setup parameters for call to function LCD_write_byte
        ; Setup parameters for call to function LCD_write_byte
        ; Setup parameters for call to function LCD_write_byte
        ; Setup parameters for call to function LCD_write_byte
        ; Setup parameters for call to function LCD_write_byte
        ; Setup parameters for call to function LCD_write_byte
        ; Setup parameters for call to function LCD_write_byte
        ; Setup parameters for call to function LCD_write_byte
        ; Setup parameters for call to function LCD_write_byte
        ; Setup parameters for call to function LCD_write_byte
        ; Setup parameters for call to function LCD_write_byte
        ; Setup parameters for call to function LCD_write_byte
        ; Setup parameters for call to function LCD_write_byte
        ; Setup parameters for call to function LCD_write_byte
        ; Setup parameters for call to function LCD_write_byte
        ; Setup parameters for call to function LCD_write_byte
        ; Setup parameters for call to function LCD_write_byte
        ; Setup parameters for call to function LCD_write_byte
        ; Setup parameters for call to function LCD_write_byte
        ; Setup parameters for call to function LCD_write_byte
        ; Setup parameters for call to function LCD_write_byte
        ; Setup parameters for call to function LCD_write_byte
        ; Setup parameters for call to function LCD_write_byte
        ; Setup parameters for call to function LCD_write_byte
        ; Setup parameters for call to function LCD_write_byte
        ; Setup parameters for call to function LCD_write_byte
        ; Setup parameters for call to function LCD_write_byte
        ; Setup parameters for call to function LCD_write_byte
        ; Setup parameters for call to function LCD_write_byte
        MOV     R2,#0x1
        RET
        CFI EndBlock cfiCond37
        CFI EndBlock cfiCond38
        CFI EndBlock cfiCond39
        CFI EndBlock cfiCond40
        CFI EndBlock cfiCond41
        CFI EndBlock cfiCond42
        CFI EndBlock cfiCond43
        CFI EndBlock cfiCond44
        CFI EndBlock cfiCond45
        CFI EndBlock cfiCond46
        CFI EndBlock cfiCond47
        CFI EndBlock cfiCond48
        CFI EndBlock cfiCond49
        CFI EndBlock cfiCond50
        CFI EndBlock cfiCond51
        CFI EndBlock cfiCond52
        CFI EndBlock cfiCond53
        CFI EndBlock cfiCond54
        CFI EndBlock cfiCond55
        CFI EndBlock cfiCond56
        CFI EndBlock cfiCond57
        CFI EndBlock cfiCond58
        CFI EndBlock cfiCond59
        CFI EndBlock cfiCond60
        CFI EndBlock cfiCond61
        CFI EndBlock cfiCond62
        CFI EndBlock cfiCond63
        CFI EndBlock cfiCond64
        CFI EndBlock cfiCond65
        CFI EndBlock cfiCond66
        CFI EndBlock cfiCond67
        CFI EndBlock cfiCond68
        CFI EndBlock cfiCond69
        CFI EndBlock cfiCond70
        CFI EndBlock cfiCond71
        CFI EndBlock cfiCond72
        CFI EndBlock cfiCond73
        CFI EndBlock cfiCond74
        CFI EndBlock cfiCond75
        CFI EndBlock cfiCond76
        CFI EndBlock cfiCond77
        CFI EndBlock cfiCond78
        CFI EndBlock cfiCond79
        CFI EndBlock cfiCond80
        CFI EndBlock cfiCond81
        CFI EndBlock cfiCond82
        CFI EndBlock cfiCond83
        CFI EndBlock cfiCond84
        CFI EndBlock cfiCond85
        CFI EndBlock cfiCond86
        CFI EndBlock cfiCond87
        CFI EndBlock cfiCond88
        CFI EndBlock cfiCond89
        CFI EndBlock cfiCond90
        CFI EndBlock cfiCond91
        CFI EndBlock cfiCond92
        CFI EndBlock cfiCond93
        CFI EndBlock cfiCond94
        CFI EndBlock cfiCond95
        CFI EndBlock cfiCond96
        CFI EndBlock cfiCond97
        CFI EndBlock cfiCond98
        CFI EndBlock cfiCond99
        CFI EndBlock cfiCond100
        CFI EndBlock cfiCond101
        CFI EndBlock cfiCond102
        CFI EndBlock cfiCond103
        CFI EndBlock cfiCond104
        CFI EndBlock cfiCond105
        CFI EndBlock cfiCond106
        CFI EndBlock cfiCond107
        CFI EndBlock cfiCond108
        CFI EndBlock cfiCond109
        CFI EndBlock cfiCond110
        CFI EndBlock cfiCond111
        CFI EndBlock cfiCond112
        CFI EndBlock cfiCond113
        CFI EndBlock cfiCond114
        CFI EndBlock cfiCond115
        CFI EndBlock cfiCond116
        CFI EndBlock cfiPicker117

        RSEG BANKED_CODE:CODE:NOROOT(0)
?Subroutine5:
        CFI Block cfiCond118 Using cfiCommon0
        CFI NoFunction
        CFI Conditional ??CrossCallReturnLabel_3
        CFI DPL0 Frame(CFA_SP, 4)
        CFI DPH0 Frame(CFA_SP, 5)
        CFI CFA_SP SP+-5
        CFI Block cfiCond119 Using cfiCommon0
        CFI (cfiCond119) NoFunction
        CFI (cfiCond119) Conditional ??CrossCallReturnLabel_4
        CFI (cfiCond119) DPL0 Frame(CFA_SP, 4)
        CFI (cfiCond119) DPH0 Frame(CFA_SP, 5)
        CFI (cfiCond119) CFA_SP SP+-5
        CFI Block cfiCond120 Using cfiCommon0
        CFI (cfiCond120) NoFunction
        CFI (cfiCond120) Conditional ??CrossCallReturnLabel_5
        CFI (cfiCond120) DPL0 Frame(CFA_SP, 4)
        CFI (cfiCond120) DPH0 Frame(CFA_SP, 5)
        CFI (cfiCond120) CFA_SP SP+-5
        CFI Block cfiCond121 Using cfiCommon0
        CFI (cfiCond121) NoFunction
        CFI (cfiCond121) Conditional ??CrossCallReturnLabel_6
        CFI (cfiCond121) DPL0 Frame(CFA_SP, 4)
        CFI (cfiCond121) DPH0 Frame(CFA_SP, 5)
        CFI (cfiCond121) CFA_SP SP+-5
        CFI Block cfiPicker122 Using cfiCommon1
        CFI (cfiPicker122) NoFunction
        CFI (cfiPicker122) Picker
        LCALL   ??Subroutine37_0 & 0xFFFF
??CrossCallReturnLabel_102:
        MOV     R1,#0xf
        LCALL   ??Subroutine37_0 & 0xFFFF
??CrossCallReturnLabel_103:
        RET
        CFI EndBlock cfiCond118
        CFI EndBlock cfiCond119
        CFI EndBlock cfiCond120
        CFI EndBlock cfiCond121
        CFI EndBlock cfiPicker122

        RSEG BANKED_CODE:CODE:NOROOT(0)
?Subroutine4:
        CFI Block cfiCond123 Using cfiCommon0
        CFI NoFunction
        CFI Conditional ??CrossCallReturnLabel_0
        CFI DPL0 Frame(CFA_SP, 4)
        CFI DPH0 Frame(CFA_SP, 5)
        CFI CFA_SP SP+-5
        CFI Block cfiCond124 Using cfiCommon0
        CFI (cfiCond124) NoFunction
        CFI (cfiCond124) Conditional ??CrossCallReturnLabel_1
        CFI (cfiCond124) DPL0 Frame(CFA_SP, 4)
        CFI (cfiCond124) DPH0 Frame(CFA_SP, 5)
        CFI (cfiCond124) CFA_SP SP+-5
        CFI Block cfiCond125 Using cfiCommon0
        CFI (cfiCond125) NoFunction
        CFI (cfiCond125) Conditional ??CrossCallReturnLabel_2
        CFI (cfiCond125) DPL0 Frame(CFA_SP, 4)
        CFI (cfiCond125) DPH0 Frame(CFA_SP, 5)
        CFI (cfiCond125) CFA_SP SP+-5
        CFI Block cfiPicker126 Using cfiCommon1
        CFI (cfiPicker126) NoFunction
        CFI (cfiPicker126) Picker
        LCALL   ??Subroutine37_0 & 0xFFFF
??CrossCallReturnLabel_104:
        MOV     R1,#0x1
        LCALL   ?Subroutine24 & 0xFFFF
??CrossCallReturnLabel_47:
        MOV     R1,#0x2d
        LCALL   ??LCD_write_byte?relay
        ; Setup parameters for call to function LCD_write_byte
        ; Setup parameters for call to function LCD_write_byte
        ; Setup parameters for call to function LCD_write_byte
        MOV     R2,#0x0
        RET
        CFI EndBlock cfiCond123
        CFI EndBlock cfiCond124
        CFI EndBlock cfiCond125
        CFI EndBlock cfiPicker126
//  288 
//  289 /****************************************************************************
//  290 * 名    称: LCD_clear()
//  291 * 功    能: 以指定颜色清屏
//  292 * 入口参数: color ―清屏颜色
//  293 * 出口参数: 无
//  294 ****************************************************************************/

        RSEG BANKED_CODE:CODE:NOROOT(0)
//  295 void LCD_clear(unsigned int color)
LCD_clear:
        CFI Block cfiBlock127 Using cfiCommon0
        CFI Function LCD_clear
        CODE
//  296 {
        FUNCALL LCD_clear, LCD_set_window
        LOCFRAME ISTACK, 0, STACK
        LOCFRAME PSTACK, 0, STACK
        LOCFRAME XSTACK, 16, STACK
        LOCFRAME IOVERLAY, 0, STATIC
        LOCFRAME DOVERLAY, 0, STATIC
        ARGFRAME ISTACK, 0, STACK
        ARGFRAME PSTACK, 0, STACK
        ARGFRAME XSTACK, 16, STACK
        ARGFRAME IOVERLAY, 0, STATIC
        ARGFRAME DOVERLAY, 0, STATIC
        FUNCALL LCD_clear, LCD_write_byte
        LOCFRAME ISTACK, 0, STACK
        LOCFRAME PSTACK, 0, STACK
        LOCFRAME XSTACK, 12, STACK
        LOCFRAME IOVERLAY, 0, STATIC
        LOCFRAME DOVERLAY, 0, STATIC
        ARGFRAME ISTACK, 0, STACK
        ARGFRAME PSTACK, 0, STACK
        ARGFRAME XSTACK, 12, STACK
        ARGFRAME IOVERLAY, 0, STATIC
        ARGFRAME DOVERLAY, 0, STATIC
        FUNCALL LCD_clear, SendByte
        LOCFRAME ISTACK, 0, STACK
        LOCFRAME PSTACK, 0, STACK
        LOCFRAME XSTACK, 12, STACK
        LOCFRAME IOVERLAY, 0, STATIC
        LOCFRAME DOVERLAY, 0, STATIC
        ARGFRAME ISTACK, 0, STACK
        ARGFRAME PSTACK, 0, STACK
        ARGFRAME XSTACK, 12, STACK
        ARGFRAME IOVERLAY, 0, STATIC
        ARGFRAME DOVERLAY, 0, STATIC
        FUNCALL LCD_clear, SendByte
        LOCFRAME ISTACK, 0, STACK
        LOCFRAME PSTACK, 0, STACK
        LOCFRAME XSTACK, 12, STACK
        LOCFRAME IOVERLAY, 0, STATIC
        LOCFRAME DOVERLAY, 0, STATIC
        ARGFRAME ISTACK, 0, STACK
        ARGFRAME PSTACK, 0, STACK
        ARGFRAME XSTACK, 12, STACK
        ARGFRAME IOVERLAY, 0, STATIC
        ARGFRAME DOVERLAY, 0, STATIC
        FUNCALL LCD_clear, SendByte
        LOCFRAME ISTACK, 0, STACK
        LOCFRAME PSTACK, 0, STACK
        LOCFRAME XSTACK, 12, STACK
        LOCFRAME IOVERLAY, 0, STATIC
        LOCFRAME DOVERLAY, 0, STATIC
        ARGFRAME ISTACK, 0, STACK
        ARGFRAME PSTACK, 0, STACK
        ARGFRAME XSTACK, 12, STACK
        ARGFRAME IOVERLAY, 0, STATIC
        ARGFRAME DOVERLAY, 0, STATIC
        FUNCALL LCD_clear, SendByte
        LOCFRAME ISTACK, 0, STACK
        LOCFRAME PSTACK, 0, STACK
        LOCFRAME XSTACK, 12, STACK
        LOCFRAME IOVERLAY, 0, STATIC
        LOCFRAME DOVERLAY, 0, STATIC
        ARGFRAME ISTACK, 0, STACK
        ARGFRAME PSTACK, 0, STACK
        ARGFRAME XSTACK, 12, STACK
        ARGFRAME IOVERLAY, 0, STATIC
        ARGFRAME DOVERLAY, 0, STATIC
        FUNCALL LCD_clear, SendByte
        LOCFRAME ISTACK, 0, STACK
        LOCFRAME PSTACK, 0, STACK
        LOCFRAME XSTACK, 12, STACK
        LOCFRAME IOVERLAY, 0, STATIC
        LOCFRAME DOVERLAY, 0, STATIC
        ARGFRAME ISTACK, 0, STACK
        ARGFRAME PSTACK, 0, STACK
        ARGFRAME XSTACK, 12, STACK
        ARGFRAME IOVERLAY, 0, STATIC
        ARGFRAME DOVERLAY, 0, STATIC
        FUNCALL LCD_clear, SendByte
        LOCFRAME ISTACK, 0, STACK
        LOCFRAME PSTACK, 0, STACK
        LOCFRAME XSTACK, 12, STACK
        LOCFRAME IOVERLAY, 0, STATIC
        LOCFRAME DOVERLAY, 0, STATIC
        ARGFRAME ISTACK, 0, STACK
        ARGFRAME PSTACK, 0, STACK
        ARGFRAME XSTACK, 12, STACK
        ARGFRAME IOVERLAY, 0, STATIC
        ARGFRAME DOVERLAY, 0, STATIC
        FUNCALL LCD_clear, SendByte
        LOCFRAME ISTACK, 0, STACK
        LOCFRAME PSTACK, 0, STACK
        LOCFRAME XSTACK, 12, STACK
        LOCFRAME IOVERLAY, 0, STATIC
        LOCFRAME DOVERLAY, 0, STATIC
        ARGFRAME ISTACK, 0, STACK
        ARGFRAME PSTACK, 0, STACK
        ARGFRAME XSTACK, 12, STACK
        ARGFRAME IOVERLAY, 0, STATIC
        ARGFRAME DOVERLAY, 0, STATIC
        FUNCALL LCD_clear, SendByte
        LOCFRAME ISTACK, 0, STACK
        LOCFRAME PSTACK, 0, STACK
        LOCFRAME XSTACK, 12, STACK
        LOCFRAME IOVERLAY, 0, STATIC
        LOCFRAME DOVERLAY, 0, STATIC
        ARGFRAME ISTACK, 0, STACK
        ARGFRAME PSTACK, 0, STACK
        ARGFRAME XSTACK, 12, STACK
        ARGFRAME IOVERLAY, 0, STATIC
        ARGFRAME DOVERLAY, 0, STATIC
        FUNCALL LCD_clear, SendByte
        LOCFRAME ISTACK, 0, STACK
        LOCFRAME PSTACK, 0, STACK
        LOCFRAME XSTACK, 12, STACK
        LOCFRAME IOVERLAY, 0, STATIC
        LOCFRAME DOVERLAY, 0, STATIC
        ARGFRAME ISTACK, 0, STACK
        ARGFRAME PSTACK, 0, STACK
        ARGFRAME XSTACK, 12, STACK
        ARGFRAME IOVERLAY, 0, STATIC
        ARGFRAME DOVERLAY, 0, STATIC
        FUNCALL LCD_clear, SendByte
        LOCFRAME ISTACK, 0, STACK
        LOCFRAME PSTACK, 0, STACK
        LOCFRAME XSTACK, 12, STACK
        LOCFRAME IOVERLAY, 0, STATIC
        LOCFRAME DOVERLAY, 0, STATIC
        ARGFRAME ISTACK, 0, STACK
        ARGFRAME PSTACK, 0, STACK
        ARGFRAME XSTACK, 12, STACK
        ARGFRAME IOVERLAY, 0, STATIC
        ARGFRAME DOVERLAY, 0, STATIC
        FUNCALL LCD_clear, SendByte
        LOCFRAME ISTACK, 0, STACK
        LOCFRAME PSTACK, 0, STACK
        LOCFRAME XSTACK, 12, STACK
        LOCFRAME IOVERLAY, 0, STATIC
        LOCFRAME DOVERLAY, 0, STATIC
        ARGFRAME ISTACK, 0, STACK
        ARGFRAME PSTACK, 0, STACK
        ARGFRAME XSTACK, 12, STACK
        ARGFRAME IOVERLAY, 0, STATIC
        ARGFRAME DOVERLAY, 0, STATIC
        FUNCALL LCD_clear, SendByte
        LOCFRAME ISTACK, 0, STACK
        LOCFRAME PSTACK, 0, STACK
        LOCFRAME XSTACK, 12, STACK
        LOCFRAME IOVERLAY, 0, STATIC
        LOCFRAME DOVERLAY, 0, STATIC
        ARGFRAME ISTACK, 0, STACK
        ARGFRAME PSTACK, 0, STACK
        ARGFRAME XSTACK, 12, STACK
        ARGFRAME IOVERLAY, 0, STATIC
        ARGFRAME DOVERLAY, 0, STATIC
        FUNCALL LCD_clear, SendByte
        LOCFRAME ISTACK, 0, STACK
        LOCFRAME PSTACK, 0, STACK
        LOCFRAME XSTACK, 12, STACK
        LOCFRAME IOVERLAY, 0, STATIC
        LOCFRAME DOVERLAY, 0, STATIC
        ARGFRAME ISTACK, 0, STACK
        ARGFRAME PSTACK, 0, STACK
        ARGFRAME XSTACK, 12, STACK
        ARGFRAME IOVERLAY, 0, STATIC
        ARGFRAME DOVERLAY, 0, STATIC
        FUNCALL LCD_clear, SendByte
        LOCFRAME ISTACK, 0, STACK
        LOCFRAME PSTACK, 0, STACK
        LOCFRAME XSTACK, 12, STACK
        LOCFRAME IOVERLAY, 0, STATIC
        LOCFRAME DOVERLAY, 0, STATIC
        ARGFRAME ISTACK, 0, STACK
        ARGFRAME PSTACK, 0, STACK
        ARGFRAME XSTACK, 12, STACK
        ARGFRAME IOVERLAY, 0, STATIC
        ARGFRAME DOVERLAY, 0, STATIC
        FUNCALL LCD_clear, SendByte
        LOCFRAME ISTACK, 0, STACK
        LOCFRAME PSTACK, 0, STACK
        LOCFRAME XSTACK, 12, STACK
        LOCFRAME IOVERLAY, 0, STATIC
        LOCFRAME DOVERLAY, 0, STATIC
        ARGFRAME ISTACK, 0, STACK
        ARGFRAME PSTACK, 0, STACK
        ARGFRAME XSTACK, 12, STACK
        ARGFRAME IOVERLAY, 0, STATIC
        ARGFRAME DOVERLAY, 0, STATIC
        FUNCALL LCD_clear, SendByte
        LOCFRAME ISTACK, 0, STACK
        LOCFRAME PSTACK, 0, STACK
        LOCFRAME XSTACK, 12, STACK
        LOCFRAME IOVERLAY, 0, STATIC
        LOCFRAME DOVERLAY, 0, STATIC
        ARGFRAME ISTACK, 0, STACK
        ARGFRAME PSTACK, 0, STACK
        ARGFRAME XSTACK, 12, STACK
        ARGFRAME IOVERLAY, 0, STATIC
        ARGFRAME DOVERLAY, 0, STATIC
        FUNCALL LCD_clear, SendByte
        LOCFRAME ISTACK, 0, STACK
        LOCFRAME PSTACK, 0, STACK
        LOCFRAME XSTACK, 12, STACK
        LOCFRAME IOVERLAY, 0, STATIC
        LOCFRAME DOVERLAY, 0, STATIC
        ARGFRAME ISTACK, 0, STACK
        ARGFRAME PSTACK, 0, STACK
        ARGFRAME XSTACK, 12, STACK
        ARGFRAME IOVERLAY, 0, STATIC
        ARGFRAME DOVERLAY, 0, STATIC
        FUNCALL LCD_clear, SendByte
        LOCFRAME ISTACK, 0, STACK
        LOCFRAME PSTACK, 0, STACK
        LOCFRAME XSTACK, 12, STACK
        LOCFRAME IOVERLAY, 0, STATIC
        LOCFRAME DOVERLAY, 0, STATIC
        ARGFRAME ISTACK, 0, STACK
        ARGFRAME PSTACK, 0, STACK
        ARGFRAME XSTACK, 12, STACK
        ARGFRAME IOVERLAY, 0, STATIC
        ARGFRAME DOVERLAY, 0, STATIC
        FUNCALL LCD_clear, SendByte
        LOCFRAME ISTACK, 0, STACK
        LOCFRAME PSTACK, 0, STACK
        LOCFRAME XSTACK, 12, STACK
        LOCFRAME IOVERLAY, 0, STATIC
        LOCFRAME DOVERLAY, 0, STATIC
        ARGFRAME ISTACK, 0, STACK
        ARGFRAME PSTACK, 0, STACK
        ARGFRAME XSTACK, 12, STACK
        ARGFRAME IOVERLAY, 0, STATIC
        ARGFRAME DOVERLAY, 0, STATIC
        FUNCALL LCD_clear, SendByte
        LOCFRAME ISTACK, 0, STACK
        LOCFRAME PSTACK, 0, STACK
        LOCFRAME XSTACK, 12, STACK
        LOCFRAME IOVERLAY, 0, STATIC
        LOCFRAME DOVERLAY, 0, STATIC
        ARGFRAME ISTACK, 0, STACK
        ARGFRAME PSTACK, 0, STACK
        ARGFRAME XSTACK, 12, STACK
        ARGFRAME IOVERLAY, 0, STATIC
        ARGFRAME DOVERLAY, 0, STATIC
        FUNCALL LCD_clear, SendByte
        LOCFRAME ISTACK, 0, STACK
        LOCFRAME PSTACK, 0, STACK
        LOCFRAME XSTACK, 12, STACK
        LOCFRAME IOVERLAY, 0, STATIC
        LOCFRAME DOVERLAY, 0, STATIC
        ARGFRAME ISTACK, 0, STACK
        ARGFRAME PSTACK, 0, STACK
        ARGFRAME XSTACK, 12, STACK
        ARGFRAME IOVERLAY, 0, STATIC
        ARGFRAME DOVERLAY, 0, STATIC
        FUNCALL LCD_clear, SendByte
        LOCFRAME ISTACK, 0, STACK
        LOCFRAME PSTACK, 0, STACK
        LOCFRAME XSTACK, 12, STACK
        LOCFRAME IOVERLAY, 0, STATIC
        LOCFRAME DOVERLAY, 0, STATIC
        ARGFRAME ISTACK, 0, STACK
        ARGFRAME PSTACK, 0, STACK
        ARGFRAME XSTACK, 12, STACK
        ARGFRAME IOVERLAY, 0, STATIC
        ARGFRAME DOVERLAY, 0, STATIC
        FUNCALL LCD_clear, SendByte
        LOCFRAME ISTACK, 0, STACK
        LOCFRAME PSTACK, 0, STACK
        LOCFRAME XSTACK, 12, STACK
        LOCFRAME IOVERLAY, 0, STATIC
        LOCFRAME DOVERLAY, 0, STATIC
        ARGFRAME ISTACK, 0, STACK
        ARGFRAME PSTACK, 0, STACK
        ARGFRAME XSTACK, 12, STACK
        ARGFRAME IOVERLAY, 0, STATIC
        ARGFRAME DOVERLAY, 0, STATIC
        FUNCALL LCD_clear, SendByte
        LOCFRAME ISTACK, 0, STACK
        LOCFRAME PSTACK, 0, STACK
        LOCFRAME XSTACK, 12, STACK
        LOCFRAME IOVERLAY, 0, STATIC
        LOCFRAME DOVERLAY, 0, STATIC
        ARGFRAME ISTACK, 0, STACK
        ARGFRAME PSTACK, 0, STACK
        ARGFRAME XSTACK, 12, STACK
        ARGFRAME IOVERLAY, 0, STATIC
        ARGFRAME DOVERLAY, 0, STATIC
        FUNCALL LCD_clear, SendByte
        LOCFRAME ISTACK, 0, STACK
        LOCFRAME PSTACK, 0, STACK
        LOCFRAME XSTACK, 12, STACK
        LOCFRAME IOVERLAY, 0, STATIC
        LOCFRAME DOVERLAY, 0, STATIC
        ARGFRAME ISTACK, 0, STACK
        ARGFRAME PSTACK, 0, STACK
        ARGFRAME XSTACK, 12, STACK
        ARGFRAME IOVERLAY, 0, STATIC
        ARGFRAME DOVERLAY, 0, STATIC
        FUNCALL LCD_clear, SendByte
        LOCFRAME ISTACK, 0, STACK
        LOCFRAME PSTACK, 0, STACK
        LOCFRAME XSTACK, 12, STACK
        LOCFRAME IOVERLAY, 0, STATIC
        LOCFRAME DOVERLAY, 0, STATIC
        ARGFRAME ISTACK, 0, STACK
        ARGFRAME PSTACK, 0, STACK
        ARGFRAME XSTACK, 12, STACK
        ARGFRAME IOVERLAY, 0, STATIC
        ARGFRAME DOVERLAY, 0, STATIC
        FUNCALL LCD_clear, SendByte
        LOCFRAME ISTACK, 0, STACK
        LOCFRAME PSTACK, 0, STACK
        LOCFRAME XSTACK, 12, STACK
        LOCFRAME IOVERLAY, 0, STATIC
        LOCFRAME DOVERLAY, 0, STATIC
        ARGFRAME ISTACK, 0, STACK
        ARGFRAME PSTACK, 0, STACK
        ARGFRAME XSTACK, 12, STACK
        ARGFRAME IOVERLAY, 0, STATIC
        ARGFRAME DOVERLAY, 0, STATIC
        FUNCALL LCD_clear, SendByte
        LOCFRAME ISTACK, 0, STACK
        LOCFRAME PSTACK, 0, STACK
        LOCFRAME XSTACK, 12, STACK
        LOCFRAME IOVERLAY, 0, STATIC
        LOCFRAME DOVERLAY, 0, STATIC
        ARGFRAME ISTACK, 0, STACK
        ARGFRAME PSTACK, 0, STACK
        ARGFRAME XSTACK, 12, STACK
        ARGFRAME IOVERLAY, 0, STATIC
        ARGFRAME DOVERLAY, 0, STATIC
        FUNCALL LCD_clear, SendByte
        LOCFRAME ISTACK, 0, STACK
        LOCFRAME PSTACK, 0, STACK
        LOCFRAME XSTACK, 12, STACK
        LOCFRAME IOVERLAY, 0, STATIC
        LOCFRAME DOVERLAY, 0, STATIC
        ARGFRAME ISTACK, 0, STACK
        ARGFRAME PSTACK, 0, STACK
        ARGFRAME XSTACK, 12, STACK
        ARGFRAME IOVERLAY, 0, STATIC
        ARGFRAME DOVERLAY, 0, STATIC
        FUNCALL LCD_clear, SendByte
        LOCFRAME ISTACK, 0, STACK
        LOCFRAME PSTACK, 0, STACK
        LOCFRAME XSTACK, 12, STACK
        LOCFRAME IOVERLAY, 0, STATIC
        LOCFRAME DOVERLAY, 0, STATIC
        ARGFRAME ISTACK, 0, STACK
        ARGFRAME PSTACK, 0, STACK
        ARGFRAME XSTACK, 12, STACK
        ARGFRAME IOVERLAY, 0, STATIC
        ARGFRAME DOVERLAY, 0, STATIC
        FUNCALL LCD_clear, SendByte
        LOCFRAME ISTACK, 0, STACK
        LOCFRAME PSTACK, 0, STACK
        LOCFRAME XSTACK, 12, STACK
        LOCFRAME IOVERLAY, 0, STATIC
        LOCFRAME DOVERLAY, 0, STATIC
        ARGFRAME ISTACK, 0, STACK
        ARGFRAME PSTACK, 0, STACK
        ARGFRAME XSTACK, 12, STACK
        ARGFRAME IOVERLAY, 0, STATIC
        ARGFRAME DOVERLAY, 0, STATIC
        FUNCALL LCD_clear, SendByte
        LOCFRAME ISTACK, 0, STACK
        LOCFRAME PSTACK, 0, STACK
        LOCFRAME XSTACK, 12, STACK
        LOCFRAME IOVERLAY, 0, STATIC
        LOCFRAME DOVERLAY, 0, STATIC
        ARGFRAME ISTACK, 0, STACK
        ARGFRAME PSTACK, 0, STACK
        ARGFRAME XSTACK, 12, STACK
        ARGFRAME IOVERLAY, 0, STATIC
        ARGFRAME DOVERLAY, 0, STATIC
        FUNCALL LCD_clear, SendByte
        LOCFRAME ISTACK, 0, STACK
        LOCFRAME PSTACK, 0, STACK
        LOCFRAME XSTACK, 12, STACK
        LOCFRAME IOVERLAY, 0, STATIC
        LOCFRAME DOVERLAY, 0, STATIC
        ARGFRAME ISTACK, 0, STACK
        ARGFRAME PSTACK, 0, STACK
        ARGFRAME XSTACK, 12, STACK
        ARGFRAME IOVERLAY, 0, STATIC
        ARGFRAME DOVERLAY, 0, STATIC
        FUNCALL LCD_clear, SendByte
        LOCFRAME ISTACK, 0, STACK
        LOCFRAME PSTACK, 0, STACK
        LOCFRAME XSTACK, 12, STACK
        LOCFRAME IOVERLAY, 0, STATIC
        LOCFRAME DOVERLAY, 0, STATIC
        ARGFRAME ISTACK, 0, STACK
        ARGFRAME PSTACK, 0, STACK
        ARGFRAME XSTACK, 12, STACK
        ARGFRAME IOVERLAY, 0, STATIC
        ARGFRAME DOVERLAY, 0, STATIC
        FUNCALL LCD_clear, SendByte
        LOCFRAME ISTACK, 0, STACK
        LOCFRAME PSTACK, 0, STACK
        LOCFRAME XSTACK, 12, STACK
        LOCFRAME IOVERLAY, 0, STATIC
        LOCFRAME DOVERLAY, 0, STATIC
        ARGFRAME ISTACK, 0, STACK
        ARGFRAME PSTACK, 0, STACK
        ARGFRAME XSTACK, 12, STACK
        ARGFRAME IOVERLAY, 0, STATIC
        ARGFRAME DOVERLAY, 0, STATIC
        FUNCALL LCD_clear, SendByte
        LOCFRAME ISTACK, 0, STACK
        LOCFRAME PSTACK, 0, STACK
        LOCFRAME XSTACK, 12, STACK
        LOCFRAME IOVERLAY, 0, STATIC
        LOCFRAME DOVERLAY, 0, STATIC
        ARGFRAME ISTACK, 0, STACK
        ARGFRAME PSTACK, 0, STACK
        ARGFRAME XSTACK, 12, STACK
        ARGFRAME IOVERLAY, 0, STATIC
        ARGFRAME DOVERLAY, 0, STATIC
        FUNCALL LCD_clear, SendByte
        LOCFRAME ISTACK, 0, STACK
        LOCFRAME PSTACK, 0, STACK
        LOCFRAME XSTACK, 12, STACK
        LOCFRAME IOVERLAY, 0, STATIC
        LOCFRAME DOVERLAY, 0, STATIC
        ARGFRAME ISTACK, 0, STACK
        ARGFRAME PSTACK, 0, STACK
        ARGFRAME XSTACK, 12, STACK
        ARGFRAME IOVERLAY, 0, STATIC
        ARGFRAME DOVERLAY, 0, STATIC
        FUNCALL LCD_clear, SendByte
        LOCFRAME ISTACK, 0, STACK
        LOCFRAME PSTACK, 0, STACK
        LOCFRAME XSTACK, 12, STACK
        LOCFRAME IOVERLAY, 0, STATIC
        LOCFRAME DOVERLAY, 0, STATIC
        ARGFRAME ISTACK, 0, STACK
        ARGFRAME PSTACK, 0, STACK
        ARGFRAME XSTACK, 12, STACK
        ARGFRAME IOVERLAY, 0, STATIC
        ARGFRAME DOVERLAY, 0, STATIC
        FUNCALL LCD_clear, SendByte
        LOCFRAME ISTACK, 0, STACK
        LOCFRAME PSTACK, 0, STACK
        LOCFRAME XSTACK, 12, STACK
        LOCFRAME IOVERLAY, 0, STATIC
        LOCFRAME DOVERLAY, 0, STATIC
        ARGFRAME ISTACK, 0, STACK
        ARGFRAME PSTACK, 0, STACK
        ARGFRAME XSTACK, 12, STACK
        ARGFRAME IOVERLAY, 0, STATIC
        ARGFRAME DOVERLAY, 0, STATIC
        FUNCALL LCD_clear, SendByte
        LOCFRAME ISTACK, 0, STACK
        LOCFRAME PSTACK, 0, STACK
        LOCFRAME XSTACK, 12, STACK
        LOCFRAME IOVERLAY, 0, STATIC
        LOCFRAME DOVERLAY, 0, STATIC
        ARGFRAME ISTACK, 0, STACK
        ARGFRAME PSTACK, 0, STACK
        ARGFRAME XSTACK, 12, STACK
        ARGFRAME IOVERLAY, 0, STATIC
        ARGFRAME DOVERLAY, 0, STATIC
        FUNCALL LCD_clear, SendByte
        LOCFRAME ISTACK, 0, STACK
        LOCFRAME PSTACK, 0, STACK
        LOCFRAME XSTACK, 12, STACK
        LOCFRAME IOVERLAY, 0, STATIC
        LOCFRAME DOVERLAY, 0, STATIC
        ARGFRAME ISTACK, 0, STACK
        ARGFRAME PSTACK, 0, STACK
        ARGFRAME XSTACK, 12, STACK
        ARGFRAME IOVERLAY, 0, STATIC
        ARGFRAME DOVERLAY, 0, STATIC
        FUNCALL LCD_clear, SendByte
        LOCFRAME ISTACK, 0, STACK
        LOCFRAME PSTACK, 0, STACK
        LOCFRAME XSTACK, 12, STACK
        LOCFRAME IOVERLAY, 0, STATIC
        LOCFRAME DOVERLAY, 0, STATIC
        ARGFRAME ISTACK, 0, STACK
        ARGFRAME PSTACK, 0, STACK
        ARGFRAME XSTACK, 12, STACK
        ARGFRAME IOVERLAY, 0, STATIC
        ARGFRAME DOVERLAY, 0, STATIC
        FUNCALL LCD_clear, SendByte
        LOCFRAME ISTACK, 0, STACK
        LOCFRAME PSTACK, 0, STACK
        LOCFRAME XSTACK, 12, STACK
        LOCFRAME IOVERLAY, 0, STATIC
        LOCFRAME DOVERLAY, 0, STATIC
        ARGFRAME ISTACK, 0, STACK
        ARGFRAME PSTACK, 0, STACK
        ARGFRAME XSTACK, 12, STACK
        ARGFRAME IOVERLAY, 0, STATIC
        ARGFRAME DOVERLAY, 0, STATIC
        FUNCALL LCD_clear, SendByte
        LOCFRAME ISTACK, 0, STACK
        LOCFRAME PSTACK, 0, STACK
        LOCFRAME XSTACK, 12, STACK
        LOCFRAME IOVERLAY, 0, STATIC
        LOCFRAME DOVERLAY, 0, STATIC
        ARGFRAME ISTACK, 0, STACK
        ARGFRAME PSTACK, 0, STACK
        ARGFRAME XSTACK, 12, STACK
        ARGFRAME IOVERLAY, 0, STATIC
        ARGFRAME DOVERLAY, 0, STATIC
        FUNCALL LCD_clear, SendByte
        LOCFRAME ISTACK, 0, STACK
        LOCFRAME PSTACK, 0, STACK
        LOCFRAME XSTACK, 12, STACK
        LOCFRAME IOVERLAY, 0, STATIC
        LOCFRAME DOVERLAY, 0, STATIC
        ARGFRAME ISTACK, 0, STACK
        ARGFRAME PSTACK, 0, STACK
        ARGFRAME XSTACK, 12, STACK
        ARGFRAME IOVERLAY, 0, STATIC
        ARGFRAME DOVERLAY, 0, STATIC
        FUNCALL LCD_clear, SendByte
        LOCFRAME ISTACK, 0, STACK
        LOCFRAME PSTACK, 0, STACK
        LOCFRAME XSTACK, 12, STACK
        LOCFRAME IOVERLAY, 0, STATIC
        LOCFRAME DOVERLAY, 0, STATIC
        ARGFRAME ISTACK, 0, STACK
        ARGFRAME PSTACK, 0, STACK
        ARGFRAME XSTACK, 12, STACK
        ARGFRAME IOVERLAY, 0, STATIC
        ARGFRAME DOVERLAY, 0, STATIC
        FUNCALL LCD_clear, SendByte
        LOCFRAME ISTACK, 0, STACK
        LOCFRAME PSTACK, 0, STACK
        LOCFRAME XSTACK, 12, STACK
        LOCFRAME IOVERLAY, 0, STATIC
        LOCFRAME DOVERLAY, 0, STATIC
        ARGFRAME ISTACK, 0, STACK
        ARGFRAME PSTACK, 0, STACK
        ARGFRAME XSTACK, 12, STACK
        ARGFRAME IOVERLAY, 0, STATIC
        ARGFRAME DOVERLAY, 0, STATIC
        FUNCALL LCD_clear, SendByte
        LOCFRAME ISTACK, 0, STACK
        LOCFRAME PSTACK, 0, STACK
        LOCFRAME XSTACK, 12, STACK
        LOCFRAME IOVERLAY, 0, STATIC
        LOCFRAME DOVERLAY, 0, STATIC
        ARGFRAME ISTACK, 0, STACK
        ARGFRAME PSTACK, 0, STACK
        ARGFRAME XSTACK, 12, STACK
        ARGFRAME IOVERLAY, 0, STATIC
        ARGFRAME DOVERLAY, 0, STATIC
        FUNCALL LCD_clear, SendByte
        LOCFRAME ISTACK, 0, STACK
        LOCFRAME PSTACK, 0, STACK
        LOCFRAME XSTACK, 12, STACK
        LOCFRAME IOVERLAY, 0, STATIC
        LOCFRAME DOVERLAY, 0, STATIC
        ARGFRAME ISTACK, 0, STACK
        ARGFRAME PSTACK, 0, STACK
        ARGFRAME XSTACK, 12, STACK
        ARGFRAME IOVERLAY, 0, STATIC
        ARGFRAME DOVERLAY, 0, STATIC
        FUNCALL LCD_clear, SendByte
        LOCFRAME ISTACK, 0, STACK
        LOCFRAME PSTACK, 0, STACK
        LOCFRAME XSTACK, 12, STACK
        LOCFRAME IOVERLAY, 0, STATIC
        LOCFRAME DOVERLAY, 0, STATIC
        ARGFRAME ISTACK, 0, STACK
        ARGFRAME PSTACK, 0, STACK
        ARGFRAME XSTACK, 12, STACK
        ARGFRAME IOVERLAY, 0, STATIC
        ARGFRAME DOVERLAY, 0, STATIC
        FUNCALL LCD_clear, SendByte
        LOCFRAME ISTACK, 0, STACK
        LOCFRAME PSTACK, 0, STACK
        LOCFRAME XSTACK, 12, STACK
        LOCFRAME IOVERLAY, 0, STATIC
        LOCFRAME DOVERLAY, 0, STATIC
        ARGFRAME ISTACK, 0, STACK
        ARGFRAME PSTACK, 0, STACK
        ARGFRAME XSTACK, 12, STACK
        ARGFRAME IOVERLAY, 0, STATIC
        ARGFRAME DOVERLAY, 0, STATIC
        FUNCALL LCD_clear, SendByte
        LOCFRAME ISTACK, 0, STACK
        LOCFRAME PSTACK, 0, STACK
        LOCFRAME XSTACK, 12, STACK
        LOCFRAME IOVERLAY, 0, STATIC
        LOCFRAME DOVERLAY, 0, STATIC
        ARGFRAME ISTACK, 0, STACK
        ARGFRAME PSTACK, 0, STACK
        ARGFRAME XSTACK, 12, STACK
        ARGFRAME IOVERLAY, 0, STATIC
        ARGFRAME DOVERLAY, 0, STATIC
        FUNCALL LCD_clear, SendByte
        LOCFRAME ISTACK, 0, STACK
        LOCFRAME PSTACK, 0, STACK
        LOCFRAME XSTACK, 12, STACK
        LOCFRAME IOVERLAY, 0, STATIC
        LOCFRAME DOVERLAY, 0, STATIC
        ARGFRAME ISTACK, 0, STACK
        ARGFRAME PSTACK, 0, STACK
        ARGFRAME XSTACK, 12, STACK
        ARGFRAME IOVERLAY, 0, STATIC
        ARGFRAME DOVERLAY, 0, STATIC
        FUNCALL LCD_clear, SendByte
        LOCFRAME ISTACK, 0, STACK
        LOCFRAME PSTACK, 0, STACK
        LOCFRAME XSTACK, 12, STACK
        LOCFRAME IOVERLAY, 0, STATIC
        LOCFRAME DOVERLAY, 0, STATIC
        ARGFRAME ISTACK, 0, STACK
        ARGFRAME PSTACK, 0, STACK
        ARGFRAME XSTACK, 12, STACK
        ARGFRAME IOVERLAY, 0, STATIC
        ARGFRAME DOVERLAY, 0, STATIC
        FUNCALL LCD_clear, SendByte
        LOCFRAME ISTACK, 0, STACK
        LOCFRAME PSTACK, 0, STACK
        LOCFRAME XSTACK, 12, STACK
        LOCFRAME IOVERLAY, 0, STATIC
        LOCFRAME DOVERLAY, 0, STATIC
        ARGFRAME ISTACK, 0, STACK
        ARGFRAME PSTACK, 0, STACK
        ARGFRAME XSTACK, 12, STACK
        ARGFRAME IOVERLAY, 0, STATIC
        ARGFRAME DOVERLAY, 0, STATIC
        FUNCALL LCD_clear, SendByte
        LOCFRAME ISTACK, 0, STACK
        LOCFRAME PSTACK, 0, STACK
        LOCFRAME XSTACK, 12, STACK
        LOCFRAME IOVERLAY, 0, STATIC
        LOCFRAME DOVERLAY, 0, STATIC
        ARGFRAME ISTACK, 0, STACK
        ARGFRAME PSTACK, 0, STACK
        ARGFRAME XSTACK, 12, STACK
        ARGFRAME IOVERLAY, 0, STATIC
        ARGFRAME DOVERLAY, 0, STATIC
        FUNCALL LCD_clear, SendByte
        LOCFRAME ISTACK, 0, STACK
        LOCFRAME PSTACK, 0, STACK
        LOCFRAME XSTACK, 12, STACK
        LOCFRAME IOVERLAY, 0, STATIC
        LOCFRAME DOVERLAY, 0, STATIC
        ARGFRAME ISTACK, 0, STACK
        ARGFRAME PSTACK, 0, STACK
        ARGFRAME XSTACK, 12, STACK
        ARGFRAME IOVERLAY, 0, STATIC
        ARGFRAME DOVERLAY, 0, STATIC
        FUNCALL LCD_clear, SendByte
        LOCFRAME ISTACK, 0, STACK
        LOCFRAME PSTACK, 0, STACK
        LOCFRAME XSTACK, 12, STACK
        LOCFRAME IOVERLAY, 0, STATIC
        LOCFRAME DOVERLAY, 0, STATIC
        ARGFRAME ISTACK, 0, STACK
        ARGFRAME PSTACK, 0, STACK
        ARGFRAME XSTACK, 12, STACK
        ARGFRAME IOVERLAY, 0, STATIC
        ARGFRAME DOVERLAY, 0, STATIC
        FUNCALL LCD_clear, SendByte
        LOCFRAME ISTACK, 0, STACK
        LOCFRAME PSTACK, 0, STACK
        LOCFRAME XSTACK, 12, STACK
        LOCFRAME IOVERLAY, 0, STATIC
        LOCFRAME DOVERLAY, 0, STATIC
        ARGFRAME ISTACK, 0, STACK
        ARGFRAME PSTACK, 0, STACK
        ARGFRAME XSTACK, 12, STACK
        ARGFRAME IOVERLAY, 0, STATIC
        ARGFRAME DOVERLAY, 0, STATIC
        FUNCALL LCD_clear, SendByte
        LOCFRAME ISTACK, 0, STACK
        LOCFRAME PSTACK, 0, STACK
        LOCFRAME XSTACK, 12, STACK
        LOCFRAME IOVERLAY, 0, STATIC
        LOCFRAME DOVERLAY, 0, STATIC
        ARGFRAME ISTACK, 0, STACK
        ARGFRAME PSTACK, 0, STACK
        ARGFRAME XSTACK, 12, STACK
        ARGFRAME IOVERLAY, 0, STATIC
        ARGFRAME DOVERLAY, 0, STATIC
        FUNCALL LCD_clear, SendByte
        LOCFRAME ISTACK, 0, STACK
        LOCFRAME PSTACK, 0, STACK
        LOCFRAME XSTACK, 12, STACK
        LOCFRAME IOVERLAY, 0, STATIC
        LOCFRAME DOVERLAY, 0, STATIC
        ARGFRAME ISTACK, 0, STACK
        ARGFRAME PSTACK, 0, STACK
        ARGFRAME XSTACK, 12, STACK
        ARGFRAME IOVERLAY, 0, STATIC
        ARGFRAME DOVERLAY, 0, STATIC
        FUNCALL LCD_clear, SendByte
        LOCFRAME ISTACK, 0, STACK
        LOCFRAME PSTACK, 0, STACK
        LOCFRAME XSTACK, 12, STACK
        LOCFRAME IOVERLAY, 0, STATIC
        LOCFRAME DOVERLAY, 0, STATIC
        ARGFRAME ISTACK, 0, STACK
        ARGFRAME PSTACK, 0, STACK
        ARGFRAME XSTACK, 12, STACK
        ARGFRAME IOVERLAY, 0, STATIC
        ARGFRAME DOVERLAY, 0, STATIC
        FUNCALL LCD_clear, SendByte
        LOCFRAME ISTACK, 0, STACK
        LOCFRAME PSTACK, 0, STACK
        LOCFRAME XSTACK, 12, STACK
        LOCFRAME IOVERLAY, 0, STATIC
        LOCFRAME DOVERLAY, 0, STATIC
        ARGFRAME ISTACK, 0, STACK
        ARGFRAME PSTACK, 0, STACK
        ARGFRAME XSTACK, 12, STACK
        ARGFRAME IOVERLAY, 0, STATIC
        ARGFRAME DOVERLAY, 0, STATIC
        FUNCALL LCD_clear, SendByte
        LOCFRAME ISTACK, 0, STACK
        LOCFRAME PSTACK, 0, STACK
        LOCFRAME XSTACK, 12, STACK
        LOCFRAME IOVERLAY, 0, STATIC
        LOCFRAME DOVERLAY, 0, STATIC
        ARGFRAME ISTACK, 0, STACK
        ARGFRAME PSTACK, 0, STACK
        ARGFRAME XSTACK, 12, STACK
        ARGFRAME IOVERLAY, 0, STATIC
        ARGFRAME DOVERLAY, 0, STATIC
        FUNCALL LCD_clear, SendByte
        LOCFRAME ISTACK, 0, STACK
        LOCFRAME PSTACK, 0, STACK
        LOCFRAME XSTACK, 12, STACK
        LOCFRAME IOVERLAY, 0, STATIC
        LOCFRAME DOVERLAY, 0, STATIC
        ARGFRAME ISTACK, 0, STACK
        ARGFRAME PSTACK, 0, STACK
        ARGFRAME XSTACK, 12, STACK
        ARGFRAME IOVERLAY, 0, STATIC
        ARGFRAME DOVERLAY, 0, STATIC
        FUNCALL LCD_clear, SendByte
        LOCFRAME ISTACK, 0, STACK
        LOCFRAME PSTACK, 0, STACK
        LOCFRAME XSTACK, 12, STACK
        LOCFRAME IOVERLAY, 0, STATIC
        LOCFRAME DOVERLAY, 0, STATIC
        ARGFRAME ISTACK, 0, STACK
        ARGFRAME PSTACK, 0, STACK
        ARGFRAME XSTACK, 12, STACK
        ARGFRAME IOVERLAY, 0, STATIC
        ARGFRAME DOVERLAY, 0, STATIC
        FUNCALL LCD_clear, SendByte
        LOCFRAME ISTACK, 0, STACK
        LOCFRAME PSTACK, 0, STACK
        LOCFRAME XSTACK, 12, STACK
        LOCFRAME IOVERLAY, 0, STATIC
        LOCFRAME DOVERLAY, 0, STATIC
        ARGFRAME ISTACK, 0, STACK
        ARGFRAME PSTACK, 0, STACK
        ARGFRAME XSTACK, 12, STACK
        ARGFRAME IOVERLAY, 0, STATIC
        ARGFRAME DOVERLAY, 0, STATIC
        FUNCALL LCD_clear, SendByte
        LOCFRAME ISTACK, 0, STACK
        LOCFRAME PSTACK, 0, STACK
        LOCFRAME XSTACK, 12, STACK
        LOCFRAME IOVERLAY, 0, STATIC
        LOCFRAME DOVERLAY, 0, STATIC
        ARGFRAME ISTACK, 0, STACK
        ARGFRAME PSTACK, 0, STACK
        ARGFRAME XSTACK, 12, STACK
        ARGFRAME IOVERLAY, 0, STATIC
        ARGFRAME DOVERLAY, 0, STATIC
        FUNCALL LCD_clear, SendByte
        LOCFRAME ISTACK, 0, STACK
        LOCFRAME PSTACK, 0, STACK
        LOCFRAME XSTACK, 12, STACK
        LOCFRAME IOVERLAY, 0, STATIC
        LOCFRAME DOVERLAY, 0, STATIC
        ARGFRAME ISTACK, 0, STACK
        ARGFRAME PSTACK, 0, STACK
        ARGFRAME XSTACK, 12, STACK
        ARGFRAME IOVERLAY, 0, STATIC
        ARGFRAME DOVERLAY, 0, STATIC
        FUNCALL LCD_clear, SendByte
        LOCFRAME ISTACK, 0, STACK
        LOCFRAME PSTACK, 0, STACK
        LOCFRAME XSTACK, 12, STACK
        LOCFRAME IOVERLAY, 0, STATIC
        LOCFRAME DOVERLAY, 0, STATIC
        ARGFRAME ISTACK, 0, STACK
        ARGFRAME PSTACK, 0, STACK
        ARGFRAME XSTACK, 12, STACK
        ARGFRAME IOVERLAY, 0, STATIC
        ARGFRAME DOVERLAY, 0, STATIC
        FUNCALL LCD_clear, SendByte
        LOCFRAME ISTACK, 0, STACK
        LOCFRAME PSTACK, 0, STACK
        LOCFRAME XSTACK, 12, STACK
        LOCFRAME IOVERLAY, 0, STATIC
        LOCFRAME DOVERLAY, 0, STATIC
        ARGFRAME ISTACK, 0, STACK
        ARGFRAME PSTACK, 0, STACK
        ARGFRAME XSTACK, 12, STACK
        ARGFRAME IOVERLAY, 0, STATIC
        ARGFRAME DOVERLAY, 0, STATIC
        FUNCALL LCD_clear, SendByte
        LOCFRAME ISTACK, 0, STACK
        LOCFRAME PSTACK, 0, STACK
        LOCFRAME XSTACK, 12, STACK
        LOCFRAME IOVERLAY, 0, STATIC
        LOCFRAME DOVERLAY, 0, STATIC
        ARGFRAME ISTACK, 0, STACK
        ARGFRAME PSTACK, 0, STACK
        ARGFRAME XSTACK, 12, STACK
        ARGFRAME IOVERLAY, 0, STATIC
        ARGFRAME DOVERLAY, 0, STATIC
        FUNCALL LCD_clear, SendByte
        LOCFRAME ISTACK, 0, STACK
        LOCFRAME PSTACK, 0, STACK
        LOCFRAME XSTACK, 12, STACK
        LOCFRAME IOVERLAY, 0, STATIC
        LOCFRAME DOVERLAY, 0, STATIC
        ARGFRAME ISTACK, 0, STACK
        ARGFRAME PSTACK, 0, STACK
        ARGFRAME XSTACK, 12, STACK
        ARGFRAME IOVERLAY, 0, STATIC
        ARGFRAME DOVERLAY, 0, STATIC
        FUNCALL LCD_clear, SendByte
        LOCFRAME ISTACK, 0, STACK
        LOCFRAME PSTACK, 0, STACK
        LOCFRAME XSTACK, 12, STACK
        LOCFRAME IOVERLAY, 0, STATIC
        LOCFRAME DOVERLAY, 0, STATIC
        ARGFRAME ISTACK, 0, STACK
        ARGFRAME PSTACK, 0, STACK
        ARGFRAME XSTACK, 12, STACK
        ARGFRAME IOVERLAY, 0, STATIC
        ARGFRAME DOVERLAY, 0, STATIC
        FUNCALL LCD_clear, SendByte
        LOCFRAME ISTACK, 0, STACK
        LOCFRAME PSTACK, 0, STACK
        LOCFRAME XSTACK, 12, STACK
        LOCFRAME IOVERLAY, 0, STATIC
        LOCFRAME DOVERLAY, 0, STATIC
        ARGFRAME ISTACK, 0, STACK
        ARGFRAME PSTACK, 0, STACK
        ARGFRAME XSTACK, 12, STACK
        ARGFRAME IOVERLAY, 0, STATIC
        ARGFRAME DOVERLAY, 0, STATIC
        FUNCALL LCD_clear, SendByte
        LOCFRAME ISTACK, 0, STACK
        LOCFRAME PSTACK, 0, STACK
        LOCFRAME XSTACK, 12, STACK
        LOCFRAME IOVERLAY, 0, STATIC
        LOCFRAME DOVERLAY, 0, STATIC
        ARGFRAME ISTACK, 0, STACK
        ARGFRAME PSTACK, 0, STACK
        ARGFRAME XSTACK, 12, STACK
        ARGFRAME IOVERLAY, 0, STATIC
        ARGFRAME DOVERLAY, 0, STATIC
        FUNCALL LCD_clear, SendByte
        LOCFRAME ISTACK, 0, STACK
        LOCFRAME PSTACK, 0, STACK
        LOCFRAME XSTACK, 12, STACK
        LOCFRAME IOVERLAY, 0, STATIC
        LOCFRAME DOVERLAY, 0, STATIC
        ARGFRAME ISTACK, 0, STACK
        ARGFRAME PSTACK, 0, STACK
        ARGFRAME XSTACK, 12, STACK
        ARGFRAME IOVERLAY, 0, STATIC
        ARGFRAME DOVERLAY, 0, STATIC
        FUNCALL LCD_clear, SendByte
        LOCFRAME ISTACK, 0, STACK
        LOCFRAME PSTACK, 0, STACK
        LOCFRAME XSTACK, 12, STACK
        LOCFRAME IOVERLAY, 0, STATIC
        LOCFRAME DOVERLAY, 0, STATIC
        ARGFRAME ISTACK, 0, STACK
        ARGFRAME PSTACK, 0, STACK
        ARGFRAME XSTACK, 12, STACK
        ARGFRAME IOVERLAY, 0, STATIC
        ARGFRAME DOVERLAY, 0, STATIC
        FUNCALL LCD_clear, SendByte
        LOCFRAME ISTACK, 0, STACK
        LOCFRAME PSTACK, 0, STACK
        LOCFRAME XSTACK, 12, STACK
        LOCFRAME IOVERLAY, 0, STATIC
        LOCFRAME DOVERLAY, 0, STATIC
        ARGFRAME ISTACK, 0, STACK
        ARGFRAME PSTACK, 0, STACK
        ARGFRAME XSTACK, 12, STACK
        ARGFRAME IOVERLAY, 0, STATIC
        ARGFRAME DOVERLAY, 0, STATIC
        FUNCALL LCD_clear, SendByte
        LOCFRAME ISTACK, 0, STACK
        LOCFRAME PSTACK, 0, STACK
        LOCFRAME XSTACK, 12, STACK
        LOCFRAME IOVERLAY, 0, STATIC
        LOCFRAME DOVERLAY, 0, STATIC
        ARGFRAME ISTACK, 0, STACK
        ARGFRAME PSTACK, 0, STACK
        ARGFRAME XSTACK, 12, STACK
        ARGFRAME IOVERLAY, 0, STATIC
        ARGFRAME DOVERLAY, 0, STATIC
        FUNCALL LCD_clear, SendByte
        LOCFRAME ISTACK, 0, STACK
        LOCFRAME PSTACK, 0, STACK
        LOCFRAME XSTACK, 12, STACK
        LOCFRAME IOVERLAY, 0, STATIC
        LOCFRAME DOVERLAY, 0, STATIC
        ARGFRAME ISTACK, 0, STACK
        ARGFRAME PSTACK, 0, STACK
        ARGFRAME XSTACK, 12, STACK
        ARGFRAME IOVERLAY, 0, STATIC
        ARGFRAME DOVERLAY, 0, STATIC
        FUNCALL LCD_clear, SendByte
        LOCFRAME ISTACK, 0, STACK
        LOCFRAME PSTACK, 0, STACK
        LOCFRAME XSTACK, 12, STACK
        LOCFRAME IOVERLAY, 0, STATIC
        LOCFRAME DOVERLAY, 0, STATIC
        ARGFRAME ISTACK, 0, STACK
        ARGFRAME PSTACK, 0, STACK
        ARGFRAME XSTACK, 12, STACK
        ARGFRAME IOVERLAY, 0, STATIC
        ARGFRAME DOVERLAY, 0, STATIC
        FUNCALL LCD_clear, SendByte
        LOCFRAME ISTACK, 0, STACK
        LOCFRAME PSTACK, 0, STACK
        LOCFRAME XSTACK, 12, STACK
        LOCFRAME IOVERLAY, 0, STATIC
        LOCFRAME DOVERLAY, 0, STATIC
        ARGFRAME ISTACK, 0, STACK
        ARGFRAME PSTACK, 0, STACK
        ARGFRAME XSTACK, 12, STACK
        ARGFRAME IOVERLAY, 0, STATIC
        ARGFRAME DOVERLAY, 0, STATIC
        FUNCALL LCD_clear, SendByte
        LOCFRAME ISTACK, 0, STACK
        LOCFRAME PSTACK, 0, STACK
        LOCFRAME XSTACK, 12, STACK
        LOCFRAME IOVERLAY, 0, STATIC
        LOCFRAME DOVERLAY, 0, STATIC
        ARGFRAME ISTACK, 0, STACK
        ARGFRAME PSTACK, 0, STACK
        ARGFRAME XSTACK, 12, STACK
        ARGFRAME IOVERLAY, 0, STATIC
        ARGFRAME DOVERLAY, 0, STATIC
        FUNCALL LCD_clear, SendByte
        LOCFRAME ISTACK, 0, STACK
        LOCFRAME PSTACK, 0, STACK
        LOCFRAME XSTACK, 12, STACK
        LOCFRAME IOVERLAY, 0, STATIC
        LOCFRAME DOVERLAY, 0, STATIC
        ARGFRAME ISTACK, 0, STACK
        ARGFRAME PSTACK, 0, STACK
        ARGFRAME XSTACK, 12, STACK
        ARGFRAME IOVERLAY, 0, STATIC
        ARGFRAME DOVERLAY, 0, STATIC
        FUNCALL LCD_clear, SendByte
        LOCFRAME ISTACK, 0, STACK
        LOCFRAME PSTACK, 0, STACK
        LOCFRAME XSTACK, 12, STACK
        LOCFRAME IOVERLAY, 0, STATIC
        LOCFRAME DOVERLAY, 0, STATIC
        ARGFRAME ISTACK, 0, STACK
        ARGFRAME PSTACK, 0, STACK
        ARGFRAME XSTACK, 12, STACK
        ARGFRAME IOVERLAY, 0, STATIC
        ARGFRAME DOVERLAY, 0, STATIC
        FUNCALL LCD_clear, SendByte
        LOCFRAME ISTACK, 0, STACK
        LOCFRAME PSTACK, 0, STACK
        LOCFRAME XSTACK, 12, STACK
        LOCFRAME IOVERLAY, 0, STATIC
        LOCFRAME DOVERLAY, 0, STATIC
        ARGFRAME ISTACK, 0, STACK
        ARGFRAME PSTACK, 0, STACK
        ARGFRAME XSTACK, 12, STACK
        ARGFRAME IOVERLAY, 0, STATIC
        ARGFRAME DOVERLAY, 0, STATIC
        FUNCALL LCD_clear, SendByte
        LOCFRAME ISTACK, 0, STACK
        LOCFRAME PSTACK, 0, STACK
        LOCFRAME XSTACK, 12, STACK
        LOCFRAME IOVERLAY, 0, STATIC
        LOCFRAME DOVERLAY, 0, STATIC
        ARGFRAME ISTACK, 0, STACK
        ARGFRAME PSTACK, 0, STACK
        ARGFRAME XSTACK, 12, STACK
        ARGFRAME IOVERLAY, 0, STATIC
        ARGFRAME DOVERLAY, 0, STATIC
        FUNCALL LCD_clear, SendByte
        LOCFRAME ISTACK, 0, STACK
        LOCFRAME PSTACK, 0, STACK
        LOCFRAME XSTACK, 12, STACK
        LOCFRAME IOVERLAY, 0, STATIC
        LOCFRAME DOVERLAY, 0, STATIC
        ARGFRAME ISTACK, 0, STACK
        ARGFRAME PSTACK, 0, STACK
        ARGFRAME XSTACK, 12, STACK
        ARGFRAME IOVERLAY, 0, STATIC
        ARGFRAME DOVERLAY, 0, STATIC
        FUNCALL LCD_clear, SendByte
        LOCFRAME ISTACK, 0, STACK
        LOCFRAME PSTACK, 0, STACK
        LOCFRAME XSTACK, 12, STACK
        LOCFRAME IOVERLAY, 0, STATIC
        LOCFRAME DOVERLAY, 0, STATIC
        ARGFRAME ISTACK, 0, STACK
        ARGFRAME PSTACK, 0, STACK
        ARGFRAME XSTACK, 12, STACK
        ARGFRAME IOVERLAY, 0, STATIC
        ARGFRAME DOVERLAY, 0, STATIC
        FUNCALL LCD_clear, SendByte
        LOCFRAME ISTACK, 0, STACK
        LOCFRAME PSTACK, 0, STACK
        LOCFRAME XSTACK, 12, STACK
        LOCFRAME IOVERLAY, 0, STATIC
        LOCFRAME DOVERLAY, 0, STATIC
        ARGFRAME ISTACK, 0, STACK
        ARGFRAME PSTACK, 0, STACK
        ARGFRAME XSTACK, 12, STACK
        ARGFRAME IOVERLAY, 0, STATIC
        ARGFRAME DOVERLAY, 0, STATIC
        FUNCALL LCD_clear, SendByte
        LOCFRAME ISTACK, 0, STACK
        LOCFRAME PSTACK, 0, STACK
        LOCFRAME XSTACK, 12, STACK
        LOCFRAME IOVERLAY, 0, STATIC
        LOCFRAME DOVERLAY, 0, STATIC
        ARGFRAME ISTACK, 0, STACK
        ARGFRAME PSTACK, 0, STACK
        ARGFRAME XSTACK, 12, STACK
        ARGFRAME IOVERLAY, 0, STATIC
        ARGFRAME DOVERLAY, 0, STATIC
        FUNCALL LCD_clear, SendByte
        LOCFRAME ISTACK, 0, STACK
        LOCFRAME PSTACK, 0, STACK
        LOCFRAME XSTACK, 12, STACK
        LOCFRAME IOVERLAY, 0, STATIC
        LOCFRAME DOVERLAY, 0, STATIC
        ARGFRAME ISTACK, 0, STACK
        ARGFRAME PSTACK, 0, STACK
        ARGFRAME XSTACK, 12, STACK
        ARGFRAME IOVERLAY, 0, STATIC
        ARGFRAME DOVERLAY, 0, STATIC
        FUNCALL LCD_clear, SendByte
        LOCFRAME ISTACK, 0, STACK
        LOCFRAME PSTACK, 0, STACK
        LOCFRAME XSTACK, 12, STACK
        LOCFRAME IOVERLAY, 0, STATIC
        LOCFRAME DOVERLAY, 0, STATIC
        ARGFRAME ISTACK, 0, STACK
        ARGFRAME PSTACK, 0, STACK
        ARGFRAME XSTACK, 12, STACK
        ARGFRAME IOVERLAY, 0, STATIC
        ARGFRAME DOVERLAY, 0, STATIC
        FUNCALL LCD_clear, SendByte
        LOCFRAME ISTACK, 0, STACK
        LOCFRAME PSTACK, 0, STACK
        LOCFRAME XSTACK, 12, STACK
        LOCFRAME IOVERLAY, 0, STATIC
        LOCFRAME DOVERLAY, 0, STATIC
        ARGFRAME ISTACK, 0, STACK
        ARGFRAME PSTACK, 0, STACK
        ARGFRAME XSTACK, 12, STACK
        ARGFRAME IOVERLAY, 0, STATIC
        ARGFRAME DOVERLAY, 0, STATIC
        FUNCALL LCD_clear, SendByte
        LOCFRAME ISTACK, 0, STACK
        LOCFRAME PSTACK, 0, STACK
        LOCFRAME XSTACK, 12, STACK
        LOCFRAME IOVERLAY, 0, STATIC
        LOCFRAME DOVERLAY, 0, STATIC
        ARGFRAME ISTACK, 0, STACK
        ARGFRAME PSTACK, 0, STACK
        ARGFRAME XSTACK, 12, STACK
        ARGFRAME IOVERLAY, 0, STATIC
        ARGFRAME DOVERLAY, 0, STATIC
        FUNCALL LCD_clear, SendByte
        LOCFRAME ISTACK, 0, STACK
        LOCFRAME PSTACK, 0, STACK
        LOCFRAME XSTACK, 12, STACK
        LOCFRAME IOVERLAY, 0, STATIC
        LOCFRAME DOVERLAY, 0, STATIC
        ARGFRAME ISTACK, 0, STACK
        ARGFRAME PSTACK, 0, STACK
        ARGFRAME XSTACK, 12, STACK
        ARGFRAME IOVERLAY, 0, STATIC
        ARGFRAME DOVERLAY, 0, STATIC
        FUNCALL LCD_clear, SendByte
        LOCFRAME ISTACK, 0, STACK
        LOCFRAME PSTACK, 0, STACK
        LOCFRAME XSTACK, 12, STACK
        LOCFRAME IOVERLAY, 0, STATIC
        LOCFRAME DOVERLAY, 0, STATIC
        ARGFRAME ISTACK, 0, STACK
        ARGFRAME PSTACK, 0, STACK
        ARGFRAME XSTACK, 12, STACK
        ARGFRAME IOVERLAY, 0, STATIC
        ARGFRAME DOVERLAY, 0, STATIC
        FUNCALL LCD_clear, SendByte
        LOCFRAME ISTACK, 0, STACK
        LOCFRAME PSTACK, 0, STACK
        LOCFRAME XSTACK, 12, STACK
        LOCFRAME IOVERLAY, 0, STATIC
        LOCFRAME DOVERLAY, 0, STATIC
        ARGFRAME ISTACK, 0, STACK
        ARGFRAME PSTACK, 0, STACK
        ARGFRAME XSTACK, 12, STACK
        ARGFRAME IOVERLAY, 0, STATIC
        ARGFRAME DOVERLAY, 0, STATIC
        FUNCALL LCD_clear, SendByte
        LOCFRAME ISTACK, 0, STACK
        LOCFRAME PSTACK, 0, STACK
        LOCFRAME XSTACK, 12, STACK
        LOCFRAME IOVERLAY, 0, STATIC
        LOCFRAME DOVERLAY, 0, STATIC
        ARGFRAME ISTACK, 0, STACK
        ARGFRAME PSTACK, 0, STACK
        ARGFRAME XSTACK, 12, STACK
        ARGFRAME IOVERLAY, 0, STATIC
        ARGFRAME DOVERLAY, 0, STATIC
        FUNCALL LCD_clear, SendByte
        LOCFRAME ISTACK, 0, STACK
        LOCFRAME PSTACK, 0, STACK
        LOCFRAME XSTACK, 12, STACK
        LOCFRAME IOVERLAY, 0, STATIC
        LOCFRAME DOVERLAY, 0, STATIC
        ARGFRAME ISTACK, 0, STACK
        ARGFRAME PSTACK, 0, STACK
        ARGFRAME XSTACK, 12, STACK
        ARGFRAME IOVERLAY, 0, STATIC
        ARGFRAME DOVERLAY, 0, STATIC
        FUNCALL LCD_clear, SendByte
        LOCFRAME ISTACK, 0, STACK
        LOCFRAME PSTACK, 0, STACK
        LOCFRAME XSTACK, 12, STACK
        LOCFRAME IOVERLAY, 0, STATIC
        LOCFRAME DOVERLAY, 0, STATIC
        ARGFRAME ISTACK, 0, STACK
        ARGFRAME PSTACK, 0, STACK
        ARGFRAME XSTACK, 12, STACK
        ARGFRAME IOVERLAY, 0, STATIC
        ARGFRAME DOVERLAY, 0, STATIC
        FUNCALL LCD_clear, SendByte
        LOCFRAME ISTACK, 0, STACK
        LOCFRAME PSTACK, 0, STACK
        LOCFRAME XSTACK, 12, STACK
        LOCFRAME IOVERLAY, 0, STATIC
        LOCFRAME DOVERLAY, 0, STATIC
        ARGFRAME ISTACK, 0, STACK
        ARGFRAME PSTACK, 0, STACK
        ARGFRAME XSTACK, 12, STACK
        ARGFRAME IOVERLAY, 0, STATIC
        ARGFRAME DOVERLAY, 0, STATIC
        FUNCALL LCD_clear, SendByte
        LOCFRAME ISTACK, 0, STACK
        LOCFRAME PSTACK, 0, STACK
        LOCFRAME XSTACK, 12, STACK
        LOCFRAME IOVERLAY, 0, STATIC
        LOCFRAME DOVERLAY, 0, STATIC
        ARGFRAME ISTACK, 0, STACK
        ARGFRAME PSTACK, 0, STACK
        ARGFRAME XSTACK, 12, STACK
        ARGFRAME IOVERLAY, 0, STATIC
        ARGFRAME DOVERLAY, 0, STATIC
        FUNCALL LCD_clear, SendByte
        LOCFRAME ISTACK, 0, STACK
        LOCFRAME PSTACK, 0, STACK
        LOCFRAME XSTACK, 12, STACK
        LOCFRAME IOVERLAY, 0, STATIC
        LOCFRAME DOVERLAY, 0, STATIC
        ARGFRAME ISTACK, 0, STACK
        ARGFRAME PSTACK, 0, STACK
        ARGFRAME XSTACK, 12, STACK
        ARGFRAME IOVERLAY, 0, STATIC
        ARGFRAME DOVERLAY, 0, STATIC
        FUNCALL LCD_clear, SendByte
        LOCFRAME ISTACK, 0, STACK
        LOCFRAME PSTACK, 0, STACK
        LOCFRAME XSTACK, 12, STACK
        LOCFRAME IOVERLAY, 0, STATIC
        LOCFRAME DOVERLAY, 0, STATIC
        ARGFRAME ISTACK, 0, STACK
        ARGFRAME PSTACK, 0, STACK
        ARGFRAME XSTACK, 12, STACK
        ARGFRAME IOVERLAY, 0, STATIC
        ARGFRAME DOVERLAY, 0, STATIC
        FUNCALL LCD_clear, SendByte
        LOCFRAME ISTACK, 0, STACK
        LOCFRAME PSTACK, 0, STACK
        LOCFRAME XSTACK, 12, STACK
        LOCFRAME IOVERLAY, 0, STATIC
        LOCFRAME DOVERLAY, 0, STATIC
        ARGFRAME ISTACK, 0, STACK
        ARGFRAME PSTACK, 0, STACK
        ARGFRAME XSTACK, 12, STACK
        ARGFRAME IOVERLAY, 0, STATIC
        ARGFRAME DOVERLAY, 0, STATIC
        FUNCALL LCD_clear, SendByte
        LOCFRAME ISTACK, 0, STACK
        LOCFRAME PSTACK, 0, STACK
        LOCFRAME XSTACK, 12, STACK
        LOCFRAME IOVERLAY, 0, STATIC
        LOCFRAME DOVERLAY, 0, STATIC
        ARGFRAME ISTACK, 0, STACK
        ARGFRAME PSTACK, 0, STACK
        ARGFRAME XSTACK, 12, STACK
        ARGFRAME IOVERLAY, 0, STATIC
        ARGFRAME DOVERLAY, 0, STATIC
        FUNCALL LCD_clear, SendByte
        LOCFRAME ISTACK, 0, STACK
        LOCFRAME PSTACK, 0, STACK
        LOCFRAME XSTACK, 12, STACK
        LOCFRAME IOVERLAY, 0, STATIC
        LOCFRAME DOVERLAY, 0, STATIC
        ARGFRAME ISTACK, 0, STACK
        ARGFRAME PSTACK, 0, STACK
        ARGFRAME XSTACK, 12, STACK
        ARGFRAME IOVERLAY, 0, STATIC
        ARGFRAME DOVERLAY, 0, STATIC
        FUNCALL LCD_clear, SendByte
        LOCFRAME ISTACK, 0, STACK
        LOCFRAME PSTACK, 0, STACK
        LOCFRAME XSTACK, 12, STACK
        LOCFRAME IOVERLAY, 0, STATIC
        LOCFRAME DOVERLAY, 0, STATIC
        ARGFRAME ISTACK, 0, STACK
        ARGFRAME PSTACK, 0, STACK
        ARGFRAME XSTACK, 12, STACK
        ARGFRAME IOVERLAY, 0, STATIC
        ARGFRAME DOVERLAY, 0, STATIC
        FUNCALL LCD_clear, SendByte
        LOCFRAME ISTACK, 0, STACK
        LOCFRAME PSTACK, 0, STACK
        LOCFRAME XSTACK, 12, STACK
        LOCFRAME IOVERLAY, 0, STATIC
        LOCFRAME DOVERLAY, 0, STATIC
        ARGFRAME ISTACK, 0, STACK
        ARGFRAME PSTACK, 0, STACK
        ARGFRAME XSTACK, 12, STACK
        ARGFRAME IOVERLAY, 0, STATIC
        ARGFRAME DOVERLAY, 0, STATIC
        FUNCALL LCD_clear, SendByte
        LOCFRAME ISTACK, 0, STACK
        LOCFRAME PSTACK, 0, STACK
        LOCFRAME XSTACK, 12, STACK
        LOCFRAME IOVERLAY, 0, STATIC
        LOCFRAME DOVERLAY, 0, STATIC
        ARGFRAME ISTACK, 0, STACK
        ARGFRAME PSTACK, 0, STACK
        ARGFRAME XSTACK, 12, STACK
        ARGFRAME IOVERLAY, 0, STATIC
        ARGFRAME DOVERLAY, 0, STATIC
        FUNCALL LCD_clear, SendByte
        LOCFRAME ISTACK, 0, STACK
        LOCFRAME PSTACK, 0, STACK
        LOCFRAME XSTACK, 12, STACK
        LOCFRAME IOVERLAY, 0, STATIC
        LOCFRAME DOVERLAY, 0, STATIC
        ARGFRAME ISTACK, 0, STACK
        ARGFRAME PSTACK, 0, STACK
        ARGFRAME XSTACK, 12, STACK
        ARGFRAME IOVERLAY, 0, STATIC
        ARGFRAME DOVERLAY, 0, STATIC
        FUNCALL LCD_clear, SendByte
        LOCFRAME ISTACK, 0, STACK
        LOCFRAME PSTACK, 0, STACK
        LOCFRAME XSTACK, 12, STACK
        LOCFRAME IOVERLAY, 0, STATIC
        LOCFRAME DOVERLAY, 0, STATIC
        ARGFRAME ISTACK, 0, STACK
        ARGFRAME PSTACK, 0, STACK
        ARGFRAME XSTACK, 12, STACK
        ARGFRAME IOVERLAY, 0, STATIC
        ARGFRAME DOVERLAY, 0, STATIC
        FUNCALL LCD_clear, SendByte
        LOCFRAME ISTACK, 0, STACK
        LOCFRAME PSTACK, 0, STACK
        LOCFRAME XSTACK, 12, STACK
        LOCFRAME IOVERLAY, 0, STATIC
        LOCFRAME DOVERLAY, 0, STATIC
        ARGFRAME ISTACK, 0, STACK
        ARGFRAME PSTACK, 0, STACK
        ARGFRAME XSTACK, 12, STACK
        ARGFRAME IOVERLAY, 0, STATIC
        ARGFRAME DOVERLAY, 0, STATIC
        FUNCALL LCD_clear, SendByte
        LOCFRAME ISTACK, 0, STACK
        LOCFRAME PSTACK, 0, STACK
        LOCFRAME XSTACK, 12, STACK
        LOCFRAME IOVERLAY, 0, STATIC
        LOCFRAME DOVERLAY, 0, STATIC
        ARGFRAME ISTACK, 0, STACK
        ARGFRAME PSTACK, 0, STACK
        ARGFRAME XSTACK, 12, STACK
        ARGFRAME IOVERLAY, 0, STATIC
        ARGFRAME DOVERLAY, 0, STATIC
        FUNCALL LCD_clear, SendByte
        LOCFRAME ISTACK, 0, STACK
        LOCFRAME PSTACK, 0, STACK
        LOCFRAME XSTACK, 12, STACK
        LOCFRAME IOVERLAY, 0, STATIC
        LOCFRAME DOVERLAY, 0, STATIC
        ARGFRAME ISTACK, 0, STACK
        ARGFRAME PSTACK, 0, STACK
        ARGFRAME XSTACK, 12, STACK
        ARGFRAME IOVERLAY, 0, STATIC
        ARGFRAME DOVERLAY, 0, STATIC
        FUNCALL LCD_clear, SendByte
        LOCFRAME ISTACK, 0, STACK
        LOCFRAME PSTACK, 0, STACK
        LOCFRAME XSTACK, 12, STACK
        LOCFRAME IOVERLAY, 0, STATIC
        LOCFRAME DOVERLAY, 0, STATIC
        ARGFRAME ISTACK, 0, STACK
        ARGFRAME PSTACK, 0, STACK
        ARGFRAME XSTACK, 12, STACK
        ARGFRAME IOVERLAY, 0, STATIC
        ARGFRAME DOVERLAY, 0, STATIC
        FUNCALL LCD_clear, SendByte
        LOCFRAME ISTACK, 0, STACK
        LOCFRAME PSTACK, 0, STACK
        LOCFRAME XSTACK, 12, STACK
        LOCFRAME IOVERLAY, 0, STATIC
        LOCFRAME DOVERLAY, 0, STATIC
        ARGFRAME ISTACK, 0, STACK
        ARGFRAME PSTACK, 0, STACK
        ARGFRAME XSTACK, 12, STACK
        ARGFRAME IOVERLAY, 0, STATIC
        ARGFRAME DOVERLAY, 0, STATIC
        FUNCALL LCD_clear, SendByte
        LOCFRAME ISTACK, 0, STACK
        LOCFRAME PSTACK, 0, STACK
        LOCFRAME XSTACK, 12, STACK
        LOCFRAME IOVERLAY, 0, STATIC
        LOCFRAME DOVERLAY, 0, STATIC
        ARGFRAME ISTACK, 0, STACK
        ARGFRAME PSTACK, 0, STACK
        ARGFRAME XSTACK, 12, STACK
        ARGFRAME IOVERLAY, 0, STATIC
        ARGFRAME DOVERLAY, 0, STATIC
        FUNCALL LCD_clear, SendByte
        LOCFRAME ISTACK, 0, STACK
        LOCFRAME PSTACK, 0, STACK
        LOCFRAME XSTACK, 12, STACK
        LOCFRAME IOVERLAY, 0, STATIC
        LOCFRAME DOVERLAY, 0, STATIC
        ARGFRAME ISTACK, 0, STACK
        ARGFRAME PSTACK, 0, STACK
        ARGFRAME XSTACK, 12, STACK
        ARGFRAME IOVERLAY, 0, STATIC
        ARGFRAME DOVERLAY, 0, STATIC
        FUNCALL LCD_clear, SendByte
        LOCFRAME ISTACK, 0, STACK
        LOCFRAME PSTACK, 0, STACK
        LOCFRAME XSTACK, 12, STACK
        LOCFRAME IOVERLAY, 0, STATIC
        LOCFRAME DOVERLAY, 0, STATIC
        ARGFRAME ISTACK, 0, STACK
        ARGFRAME PSTACK, 0, STACK
        ARGFRAME XSTACK, 12, STACK
        ARGFRAME IOVERLAY, 0, STATIC
        ARGFRAME DOVERLAY, 0, STATIC
        FUNCALL LCD_clear, SendByte
        LOCFRAME ISTACK, 0, STACK
        LOCFRAME PSTACK, 0, STACK
        LOCFRAME XSTACK, 12, STACK
        LOCFRAME IOVERLAY, 0, STATIC
        LOCFRAME DOVERLAY, 0, STATIC
        ARGFRAME ISTACK, 0, STACK
        ARGFRAME PSTACK, 0, STACK
        ARGFRAME XSTACK, 12, STACK
        ARGFRAME IOVERLAY, 0, STATIC
        ARGFRAME DOVERLAY, 0, STATIC
        FUNCALL LCD_clear, SendByte
        LOCFRAME ISTACK, 0, STACK
        LOCFRAME PSTACK, 0, STACK
        LOCFRAME XSTACK, 12, STACK
        LOCFRAME IOVERLAY, 0, STATIC
        LOCFRAME DOVERLAY, 0, STATIC
        ARGFRAME ISTACK, 0, STACK
        ARGFRAME PSTACK, 0, STACK
        ARGFRAME XSTACK, 12, STACK
        ARGFRAME IOVERLAY, 0, STATIC
        ARGFRAME DOVERLAY, 0, STATIC
        FUNCALL LCD_clear, SendByte
        LOCFRAME ISTACK, 0, STACK
        LOCFRAME PSTACK, 0, STACK
        LOCFRAME XSTACK, 12, STACK
        LOCFRAME IOVERLAY, 0, STATIC
        LOCFRAME DOVERLAY, 0, STATIC
        ARGFRAME ISTACK, 0, STACK
        ARGFRAME PSTACK, 0, STACK
        ARGFRAME XSTACK, 12, STACK
        ARGFRAME IOVERLAY, 0, STATIC
        ARGFRAME DOVERLAY, 0, STATIC
        FUNCALL LCD_clear, SendByte
        LOCFRAME ISTACK, 0, STACK
        LOCFRAME PSTACK, 0, STACK
        LOCFRAME XSTACK, 12, STACK
        LOCFRAME IOVERLAY, 0, STATIC
        LOCFRAME DOVERLAY, 0, STATIC
        ARGFRAME ISTACK, 0, STACK
        ARGFRAME PSTACK, 0, STACK
        ARGFRAME XSTACK, 12, STACK
        ARGFRAME IOVERLAY, 0, STATIC
        ARGFRAME DOVERLAY, 0, STATIC
        FUNCALL LCD_clear, SendByte
        LOCFRAME ISTACK, 0, STACK
        LOCFRAME PSTACK, 0, STACK
        LOCFRAME XSTACK, 12, STACK
        LOCFRAME IOVERLAY, 0, STATIC
        LOCFRAME DOVERLAY, 0, STATIC
        ARGFRAME ISTACK, 0, STACK
        ARGFRAME PSTACK, 0, STACK
        ARGFRAME XSTACK, 12, STACK
        ARGFRAME IOVERLAY, 0, STATIC
        ARGFRAME DOVERLAY, 0, STATIC
        FUNCALL LCD_clear, SendByte
        LOCFRAME ISTACK, 0, STACK
        LOCFRAME PSTACK, 0, STACK
        LOCFRAME XSTACK, 12, STACK
        LOCFRAME IOVERLAY, 0, STATIC
        LOCFRAME DOVERLAY, 0, STATIC
        ARGFRAME ISTACK, 0, STACK
        ARGFRAME PSTACK, 0, STACK
        ARGFRAME XSTACK, 12, STACK
        ARGFRAME IOVERLAY, 0, STATIC
        ARGFRAME DOVERLAY, 0, STATIC
        MOV     A,#-0xc
        LCALL   ?BANKED_ENTER_XDATA
        CFI DPH0 load(1, XDATA, add(CFA_XSP16, literal(-1)))
        CFI DPL0 load(1, XDATA, add(CFA_XSP16, literal(-2)))
        CFI ?BRET_EXT load(1, XDATA, add(CFA_XSP16, literal(-3)))
        CFI ?RET_HIGH load(1, XDATA, add(CFA_XSP16, literal(-4)))
        CFI ?RET_LOW load(1, XDATA, add(CFA_XSP16, literal(-5)))
        CFI R7 load(1, XDATA, add(CFA_XSP16, literal(-6)))
        CFI V3 load(1, XDATA, add(CFA_XSP16, literal(-7)))
        CFI V2 load(1, XDATA, add(CFA_XSP16, literal(-8)))
        CFI V1 load(1, XDATA, add(CFA_XSP16, literal(-9)))
        CFI V0 load(1, XDATA, add(CFA_XSP16, literal(-10)))
        CFI VB load(1, XDATA, add(CFA_XSP16, literal(-11)))
        CFI R6 load(1, XDATA, add(CFA_XSP16, literal(-12)))
        CFI CFA_SP SP+0
        CFI CFA_XSP16 add(XSP16, 12)
        ; Saved register size: 12
        ; Auto size: 0
        MOV     ?V0 + 0,R2
        MOV     ?V0 + 1,R3
//  297   register unsigned int  i=0,j=0;
//  298   register unsigned char ch;
//  299   register unsigned char cl;
//  300   
//  301   LCD_set_window(0,0,X_MAX_PIXEL,Y_MAX_PIXEL);
        ; Setup parameters for call to function LCD_set_window
        MOV     ?V0 + 2,#-0x80
        MOV     ?V0 + 3,#0x0
        MOV     R0,#?V0 + 2
        LCALL   ?PUSH_XSTACK_I_TWO
        CFI CFA_XSP16 add(XSP16, 14)
        MOV     R0,#?V0 + 2
        LCALL   ?PUSH_XSTACK_I_TWO
        CFI CFA_XSP16 add(XSP16, 16)
        MOV     R4,#0x0
        MOV     R5,#0x0
        MOV     R2,#0x0
        MOV     R3,#0x0
        LCALL   ?Subroutine15 & 0xFFFF
??CrossCallReturnLabel_21:
        LCALL   ?DEALLOC_XSTACK8
        CFI CFA_XSP16 add(XSP16, 12)
//  302   ch = color>>8;
        MOV     R7,?V0 + 1
//  303   cl = color&0xFF;
        MOV     R6,?V0 + 0
//  304   LCD_write_byte(0x2C,LCD_COMMAND);
        ; Setup parameters for call to function LCD_write_byte
        MOV     R2,#0x0
        MOV     R1,#0x2c
        LCALL   ??LCD_write_byte?relay
//  305   //LCD_CS_CLR;
//  306   LCD_DC_SET;
        SETB    0x80.0
//  307   for (i=0;i<Y_MAX_PIXEL;i++)
        MOV     ?V0 + 1,#-0x80
//  308     for (j=0;j<2;j++)
??LCD_clear_0:
        MOV     ?V0 + 0,#0x2
//  309     {
//  310       SendByte(ch);
??LCD_clear_1:
        ; Setup parameters for call to function SendByte
        LCALL   ?Subroutine16 & 0xFFFF
//  311       SendByte(cl);
//  312       SendByte(ch);
//  313       SendByte(cl);
//  314       SendByte(ch);
//  315       SendByte(cl);
//  316       SendByte(ch);
//  317       SendByte(cl);
//  318       SendByte(ch);
//  319       SendByte(cl);
//  320       SendByte(ch);
//  321       SendByte(cl);
//  322       SendByte(ch);
//  323       SendByte(cl);
//  324       SendByte(ch);
//  325       SendByte(cl);
//  326       SendByte(ch);
//  327       SendByte(cl);
//  328       SendByte(ch);
//  329       SendByte(cl);
//  330       SendByte(ch);
//  331       SendByte(cl);
//  332       SendByte(ch);
//  333       SendByte(cl);
//  334       SendByte(ch);
//  335       SendByte(cl);
//  336       SendByte(ch);
//  337       SendByte(cl);
//  338       SendByte(ch);
//  339       SendByte(cl);
//  340       SendByte(ch);
//  341       SendByte(cl);
//  342       SendByte(ch);
//  343       SendByte(cl);
//  344       SendByte(ch);
//  345       SendByte(cl);
//  346       SendByte(ch);
//  347       SendByte(cl);
//  348       SendByte(ch);
//  349       SendByte(cl);
//  350       SendByte(ch);
//  351       SendByte(cl);
//  352       SendByte(ch);
//  353       SendByte(cl);
//  354       SendByte(ch);
//  355       SendByte(cl);
//  356       SendByte(ch);
//  357       SendByte(cl);
//  358       SendByte(ch);
//  359       SendByte(cl);
//  360       SendByte(ch);
//  361       SendByte(cl);
//  362       SendByte(ch);
//  363       SendByte(cl);
//  364       SendByte(ch);
//  365       SendByte(cl);
//  366       SendByte(ch);
//  367       SendByte(cl);
//  368       SendByte(ch);
//  369       SendByte(cl);
//  370       SendByte(ch);
//  371       SendByte(cl);
//  372       SendByte(ch);
//  373       SendByte(cl);      
//  374       SendByte(ch);
??CrossCallReturnLabel_26:
        ; Setup parameters for call to function SendByte
        LCALL   ?Subroutine16 & 0xFFFF
//  375       SendByte(cl);
//  376       SendByte(ch);
//  377       SendByte(cl);
//  378       SendByte(ch);
//  379       SendByte(cl);
//  380       SendByte(ch);
//  381       SendByte(cl);
//  382       SendByte(ch);
//  383       SendByte(cl);
//  384       SendByte(ch);
//  385       SendByte(cl);
//  386       SendByte(ch);
//  387       SendByte(cl);
//  388       SendByte(ch);
//  389       SendByte(cl);
//  390       SendByte(ch);
//  391       SendByte(cl);
//  392       SendByte(ch);
//  393       SendByte(cl);
//  394       SendByte(ch);
//  395       SendByte(cl);
//  396       SendByte(ch);
//  397       SendByte(cl);
//  398       SendByte(ch);
//  399       SendByte(cl);
//  400       SendByte(ch);
//  401       SendByte(cl);
//  402       SendByte(ch);
//  403       SendByte(cl);
//  404       SendByte(ch);
//  405       SendByte(cl);
//  406       SendByte(ch);
//  407       SendByte(cl);
//  408       SendByte(ch);
//  409       SendByte(cl);
//  410       SendByte(ch);
//  411       SendByte(cl);
//  412       SendByte(ch);
//  413       SendByte(cl);
//  414       SendByte(ch);
//  415       SendByte(cl);
//  416       SendByte(ch);
//  417       SendByte(cl);
//  418       SendByte(ch);
//  419       SendByte(cl);
//  420       SendByte(ch);
//  421       SendByte(cl);
//  422       SendByte(ch);
//  423       SendByte(cl);
//  424       SendByte(ch);
//  425       SendByte(cl);
//  426       SendByte(ch);
//  427       SendByte(cl);
//  428       SendByte(ch);
//  429       SendByte(cl);
//  430       SendByte(ch);
//  431       SendByte(cl);
//  432       SendByte(ch);
//  433       SendByte(cl);
//  434       SendByte(ch);
//  435       SendByte(cl);
//  436       SendByte(ch);
//  437       SendByte(cl);
//  438     }
??CrossCallReturnLabel_27:
        DEC     ?V0 + 0
        MOV     A,?V0 + 0
        JNZ     ??LCD_clear_1
        DEC     ?V0 + 1
        MOV     A,?V0 + 1
        JNZ     ??LCD_clear_0
//  439   LCD_DC_SET;
        SETB    0x80.0
//  440   //LCD_CS_SET;
//  441 }
        MOV     R7,#0x4
        LJMP    ?BANKED_LEAVE_XDATA
        CFI EndBlock cfiBlock127
        REQUIRE _A_P0

        RSEG BANKED_CODE:CODE:NOROOT(0)
?Subroutine16:
        CFI Block cfiCond128 Using cfiCommon0
        CFI NoFunction
        CFI Conditional ??CrossCallReturnLabel_26
        CFI R6 load(1, XDATA, add(CFA_XSP16, literal(-12)))
        CFI VB load(1, XDATA, add(CFA_XSP16, literal(-11)))
        CFI V0 load(1, XDATA, add(CFA_XSP16, literal(-10)))
        CFI V1 load(1, XDATA, add(CFA_XSP16, literal(-9)))
        CFI V2 load(1, XDATA, add(CFA_XSP16, literal(-8)))
        CFI V3 load(1, XDATA, add(CFA_XSP16, literal(-7)))
        CFI R7 load(1, XDATA, add(CFA_XSP16, literal(-6)))
        CFI ?RET_LOW load(1, XDATA, add(CFA_XSP16, literal(-5)))
        CFI ?RET_HIGH load(1, XDATA, add(CFA_XSP16, literal(-4)))
        CFI ?BRET_EXT load(1, XDATA, add(CFA_XSP16, literal(-3)))
        CFI DPL0 load(1, XDATA, add(CFA_XSP16, literal(-2)))
        CFI DPH0 load(1, XDATA, add(CFA_XSP16, literal(-1)))
        CFI CFA_SP SP+0
        CFI CFA_XSP16 add(XSP16, 12)
        CFI Block cfiCond129 Using cfiCommon0
        CFI (cfiCond129) NoFunction
        CFI (cfiCond129) Conditional ??CrossCallReturnLabel_27
        CFI (cfiCond129) R6 load(1, XDATA, add(CFA_XSP16, literal(-12)))
        CFI (cfiCond129) VB load(1, XDATA, add(CFA_XSP16, literal(-11)))
        CFI (cfiCond129) V0 load(1, XDATA, add(CFA_XSP16, literal(-10)))
        CFI (cfiCond129) V1 load(1, XDATA, add(CFA_XSP16, literal(-9)))
        CFI (cfiCond129) V2 load(1, XDATA, add(CFA_XSP16, literal(-8)))
        CFI (cfiCond129) V3 load(1, XDATA, add(CFA_XSP16, literal(-7)))
        CFI (cfiCond129) R7 load(1, XDATA, add(CFA_XSP16, literal(-6)))
        CFI (cfiCond129) ?RET_LOW load(1, XDATA, add(CFA_XSP16, literal(-5)))
        CFI (cfiCond129) ?RET_HIGH load(1, XDATA, add(CFA_XSP16, literal(-4)))
        CFI (cfiCond129) ?BRET_EXT load(1, XDATA, add(CFA_XSP16, literal(-3)))
        CFI (cfiCond129) DPL0 load(1, XDATA, add(CFA_XSP16, literal(-2)))
        CFI (cfiCond129) DPH0 load(1, XDATA, add(CFA_XSP16, literal(-1)))
        CFI (cfiCond129) CFA_SP SP+0
        CFI (cfiCond129) CFA_XSP16 add(XSP16, 12)
        CFI Block cfiPicker130 Using cfiCommon1
        CFI (cfiPicker130) NoFunction
        CFI (cfiPicker130) Picker
        LCALL   ?Subroutine26 & 0xFFFF
??CrossCallReturnLabel_48:
        ; Setup parameters for call to function SendByte
        ; Setup parameters for call to function SendByte
        LCALL   ?Subroutine26 & 0xFFFF
??CrossCallReturnLabel_49:
        RET
        CFI EndBlock cfiCond128
        CFI EndBlock cfiCond129
        CFI EndBlock cfiPicker130

        RSEG BANKED_CODE:CODE:NOROOT(0)
?Subroutine26:
        CFI Block cfiCond131 Using cfiCommon0
        CFI NoFunction
        CFI Conditional ??CrossCallReturnLabel_48, ??CrossCallReturnLabel_26
        CFI R6 load(1, XDATA, add(CFA_XSP16, literal(-12)))
        CFI VB load(1, XDATA, add(CFA_XSP16, literal(-11)))
        CFI V0 load(1, XDATA, add(CFA_XSP16, literal(-10)))
        CFI V1 load(1, XDATA, add(CFA_XSP16, literal(-9)))
        CFI V2 load(1, XDATA, add(CFA_XSP16, literal(-8)))
        CFI V3 load(1, XDATA, add(CFA_XSP16, literal(-7)))
        CFI R7 load(1, XDATA, add(CFA_XSP16, literal(-6)))
        CFI ?RET_LOW load(1, XDATA, add(CFA_XSP16, literal(-5)))
        CFI ?RET_HIGH load(1, XDATA, add(CFA_XSP16, literal(-4)))
        CFI ?BRET_EXT load(1, XDATA, add(CFA_XSP16, literal(-3)))
        CFI DPL0 load(1, XDATA, add(CFA_XSP16, literal(-2)))
        CFI DPH0 load(1, XDATA, add(CFA_XSP16, literal(-1)))
        CFI CFA_SP SP+0
        CFI CFA_XSP16 add(XSP16, 12)
        CFI Block cfiCond132 Using cfiCommon0
        CFI (cfiCond132) NoFunction
        CFI (cfiCond132) Conditional ??CrossCallReturnLabel_48, ??CrossCallReturnLabel_27
        CFI (cfiCond132) R6 load(1, XDATA, add(CFA_XSP16, literal(-12)))
        CFI (cfiCond132) VB load(1, XDATA, add(CFA_XSP16, literal(-11)))
        CFI (cfiCond132) V0 load(1, XDATA, add(CFA_XSP16, literal(-10)))
        CFI (cfiCond132) V1 load(1, XDATA, add(CFA_XSP16, literal(-9)))
        CFI (cfiCond132) V2 load(1, XDATA, add(CFA_XSP16, literal(-8)))
        CFI (cfiCond132) V3 load(1, XDATA, add(CFA_XSP16, literal(-7)))
        CFI (cfiCond132) R7 load(1, XDATA, add(CFA_XSP16, literal(-6)))
        CFI (cfiCond132) ?RET_LOW load(1, XDATA, add(CFA_XSP16, literal(-5)))
        CFI (cfiCond132) ?RET_HIGH load(1, XDATA, add(CFA_XSP16, literal(-4)))
        CFI (cfiCond132) ?BRET_EXT load(1, XDATA, add(CFA_XSP16, literal(-3)))
        CFI (cfiCond132) DPL0 load(1, XDATA, add(CFA_XSP16, literal(-2)))
        CFI (cfiCond132) DPH0 load(1, XDATA, add(CFA_XSP16, literal(-1)))
        CFI (cfiCond132) CFA_SP SP+0
        CFI (cfiCond132) CFA_XSP16 add(XSP16, 12)
        CFI Block cfiCond133 Using cfiCommon0
        CFI (cfiCond133) NoFunction
        CFI (cfiCond133) Conditional ??CrossCallReturnLabel_49, ??CrossCallReturnLabel_26
        CFI (cfiCond133) R6 load(1, XDATA, add(CFA_XSP16, literal(-12)))
        CFI (cfiCond133) VB load(1, XDATA, add(CFA_XSP16, literal(-11)))
        CFI (cfiCond133) V0 load(1, XDATA, add(CFA_XSP16, literal(-10)))
        CFI (cfiCond133) V1 load(1, XDATA, add(CFA_XSP16, literal(-9)))
        CFI (cfiCond133) V2 load(1, XDATA, add(CFA_XSP16, literal(-8)))
        CFI (cfiCond133) V3 load(1, XDATA, add(CFA_XSP16, literal(-7)))
        CFI (cfiCond133) R7 load(1, XDATA, add(CFA_XSP16, literal(-6)))
        CFI (cfiCond133) ?RET_LOW load(1, XDATA, add(CFA_XSP16, literal(-5)))
        CFI (cfiCond133) ?RET_HIGH load(1, XDATA, add(CFA_XSP16, literal(-4)))
        CFI (cfiCond133) ?BRET_EXT load(1, XDATA, add(CFA_XSP16, literal(-3)))
        CFI (cfiCond133) DPL0 load(1, XDATA, add(CFA_XSP16, literal(-2)))
        CFI (cfiCond133) DPH0 load(1, XDATA, add(CFA_XSP16, literal(-1)))
        CFI (cfiCond133) CFA_SP SP+0
        CFI (cfiCond133) CFA_XSP16 add(XSP16, 12)
        CFI Block cfiCond134 Using cfiCommon0
        CFI (cfiCond134) NoFunction
        CFI (cfiCond134) Conditional ??CrossCallReturnLabel_49, ??CrossCallReturnLabel_27
        CFI (cfiCond134) R6 load(1, XDATA, add(CFA_XSP16, literal(-12)))
        CFI (cfiCond134) VB load(1, XDATA, add(CFA_XSP16, literal(-11)))
        CFI (cfiCond134) V0 load(1, XDATA, add(CFA_XSP16, literal(-10)))
        CFI (cfiCond134) V1 load(1, XDATA, add(CFA_XSP16, literal(-9)))
        CFI (cfiCond134) V2 load(1, XDATA, add(CFA_XSP16, literal(-8)))
        CFI (cfiCond134) V3 load(1, XDATA, add(CFA_XSP16, literal(-7)))
        CFI (cfiCond134) R7 load(1, XDATA, add(CFA_XSP16, literal(-6)))
        CFI (cfiCond134) ?RET_LOW load(1, XDATA, add(CFA_XSP16, literal(-5)))
        CFI (cfiCond134) ?RET_HIGH load(1, XDATA, add(CFA_XSP16, literal(-4)))
        CFI (cfiCond134) ?BRET_EXT load(1, XDATA, add(CFA_XSP16, literal(-3)))
        CFI (cfiCond134) DPL0 load(1, XDATA, add(CFA_XSP16, literal(-2)))
        CFI (cfiCond134) DPH0 load(1, XDATA, add(CFA_XSP16, literal(-1)))
        CFI (cfiCond134) CFA_SP SP+0
        CFI (cfiCond134) CFA_XSP16 add(XSP16, 12)
        CFI Block cfiPicker135 Using cfiCommon1
        CFI (cfiPicker135) NoFunction
        CFI (cfiPicker135) Picker
        LCALL   ?Subroutine28 & 0xFFFF
??CrossCallReturnLabel_52:
        ; Setup parameters for call to function SendByte
        ; Setup parameters for call to function SendByte
        ; Setup parameters for call to function SendByte
        ; Setup parameters for call to function SendByte
        LCALL   ?Subroutine28 & 0xFFFF
??CrossCallReturnLabel_53:
        RET
        CFI EndBlock cfiCond131
        CFI EndBlock cfiCond132
        CFI EndBlock cfiCond133
        CFI EndBlock cfiCond134
        CFI EndBlock cfiPicker135

        RSEG BANKED_CODE:CODE:NOROOT(0)
?Subroutine28:
        CFI Block cfiCond136 Using cfiCommon0
        CFI NoFunction
        CFI Conditional ??CrossCallReturnLabel_52, ??CrossCallReturnLabel_48, ??CrossCallReturnLabel_26
        CFI R6 load(1, XDATA, add(CFA_XSP16, literal(-12)))
        CFI VB load(1, XDATA, add(CFA_XSP16, literal(-11)))
        CFI V0 load(1, XDATA, add(CFA_XSP16, literal(-10)))
        CFI V1 load(1, XDATA, add(CFA_XSP16, literal(-9)))
        CFI V2 load(1, XDATA, add(CFA_XSP16, literal(-8)))
        CFI V3 load(1, XDATA, add(CFA_XSP16, literal(-7)))
        CFI R7 load(1, XDATA, add(CFA_XSP16, literal(-6)))
        CFI ?RET_LOW load(1, XDATA, add(CFA_XSP16, literal(-5)))
        CFI ?RET_HIGH load(1, XDATA, add(CFA_XSP16, literal(-4)))
        CFI ?BRET_EXT load(1, XDATA, add(CFA_XSP16, literal(-3)))
        CFI DPL0 load(1, XDATA, add(CFA_XSP16, literal(-2)))
        CFI DPH0 load(1, XDATA, add(CFA_XSP16, literal(-1)))
        CFI CFA_SP SP+0
        CFI CFA_XSP16 add(XSP16, 12)
        CFI Block cfiCond137 Using cfiCommon0
        CFI (cfiCond137) NoFunction
        CFI (cfiCond137) Conditional ??CrossCallReturnLabel_52, ??CrossCallReturnLabel_48, ??CrossCallReturnLabel_27
        CFI (cfiCond137) R6 load(1, XDATA, add(CFA_XSP16, literal(-12)))
        CFI (cfiCond137) VB load(1, XDATA, add(CFA_XSP16, literal(-11)))
        CFI (cfiCond137) V0 load(1, XDATA, add(CFA_XSP16, literal(-10)))
        CFI (cfiCond137) V1 load(1, XDATA, add(CFA_XSP16, literal(-9)))
        CFI (cfiCond137) V2 load(1, XDATA, add(CFA_XSP16, literal(-8)))
        CFI (cfiCond137) V3 load(1, XDATA, add(CFA_XSP16, literal(-7)))
        CFI (cfiCond137) R7 load(1, XDATA, add(CFA_XSP16, literal(-6)))
        CFI (cfiCond137) ?RET_LOW load(1, XDATA, add(CFA_XSP16, literal(-5)))
        CFI (cfiCond137) ?RET_HIGH load(1, XDATA, add(CFA_XSP16, literal(-4)))
        CFI (cfiCond137) ?BRET_EXT load(1, XDATA, add(CFA_XSP16, literal(-3)))
        CFI (cfiCond137) DPL0 load(1, XDATA, add(CFA_XSP16, literal(-2)))
        CFI (cfiCond137) DPH0 load(1, XDATA, add(CFA_XSP16, literal(-1)))
        CFI (cfiCond137) CFA_SP SP+0
        CFI (cfiCond137) CFA_XSP16 add(XSP16, 12)
        CFI Block cfiCond138 Using cfiCommon0
        CFI (cfiCond138) NoFunction
        CFI (cfiCond138) Conditional ??CrossCallReturnLabel_52, ??CrossCallReturnLabel_49, ??CrossCallReturnLabel_26
        CFI (cfiCond138) R6 load(1, XDATA, add(CFA_XSP16, literal(-12)))
        CFI (cfiCond138) VB load(1, XDATA, add(CFA_XSP16, literal(-11)))
        CFI (cfiCond138) V0 load(1, XDATA, add(CFA_XSP16, literal(-10)))
        CFI (cfiCond138) V1 load(1, XDATA, add(CFA_XSP16, literal(-9)))
        CFI (cfiCond138) V2 load(1, XDATA, add(CFA_XSP16, literal(-8)))
        CFI (cfiCond138) V3 load(1, XDATA, add(CFA_XSP16, literal(-7)))
        CFI (cfiCond138) R7 load(1, XDATA, add(CFA_XSP16, literal(-6)))
        CFI (cfiCond138) ?RET_LOW load(1, XDATA, add(CFA_XSP16, literal(-5)))
        CFI (cfiCond138) ?RET_HIGH load(1, XDATA, add(CFA_XSP16, literal(-4)))
        CFI (cfiCond138) ?BRET_EXT load(1, XDATA, add(CFA_XSP16, literal(-3)))
        CFI (cfiCond138) DPL0 load(1, XDATA, add(CFA_XSP16, literal(-2)))
        CFI (cfiCond138) DPH0 load(1, XDATA, add(CFA_XSP16, literal(-1)))
        CFI (cfiCond138) CFA_SP SP+0
        CFI (cfiCond138) CFA_XSP16 add(XSP16, 12)
        CFI Block cfiCond139 Using cfiCommon0
        CFI (cfiCond139) NoFunction
        CFI (cfiCond139) Conditional ??CrossCallReturnLabel_52, ??CrossCallReturnLabel_49, ??CrossCallReturnLabel_27
        CFI (cfiCond139) R6 load(1, XDATA, add(CFA_XSP16, literal(-12)))
        CFI (cfiCond139) VB load(1, XDATA, add(CFA_XSP16, literal(-11)))
        CFI (cfiCond139) V0 load(1, XDATA, add(CFA_XSP16, literal(-10)))
        CFI (cfiCond139) V1 load(1, XDATA, add(CFA_XSP16, literal(-9)))
        CFI (cfiCond139) V2 load(1, XDATA, add(CFA_XSP16, literal(-8)))
        CFI (cfiCond139) V3 load(1, XDATA, add(CFA_XSP16, literal(-7)))
        CFI (cfiCond139) R7 load(1, XDATA, add(CFA_XSP16, literal(-6)))
        CFI (cfiCond139) ?RET_LOW load(1, XDATA, add(CFA_XSP16, literal(-5)))
        CFI (cfiCond139) ?RET_HIGH load(1, XDATA, add(CFA_XSP16, literal(-4)))
        CFI (cfiCond139) ?BRET_EXT load(1, XDATA, add(CFA_XSP16, literal(-3)))
        CFI (cfiCond139) DPL0 load(1, XDATA, add(CFA_XSP16, literal(-2)))
        CFI (cfiCond139) DPH0 load(1, XDATA, add(CFA_XSP16, literal(-1)))
        CFI (cfiCond139) CFA_SP SP+0
        CFI (cfiCond139) CFA_XSP16 add(XSP16, 12)
        CFI Block cfiCond140 Using cfiCommon0
        CFI (cfiCond140) NoFunction
        CFI (cfiCond140) Conditional ??CrossCallReturnLabel_53, ??CrossCallReturnLabel_48, ??CrossCallReturnLabel_26
        CFI (cfiCond140) R6 load(1, XDATA, add(CFA_XSP16, literal(-12)))
        CFI (cfiCond140) VB load(1, XDATA, add(CFA_XSP16, literal(-11)))
        CFI (cfiCond140) V0 load(1, XDATA, add(CFA_XSP16, literal(-10)))
        CFI (cfiCond140) V1 load(1, XDATA, add(CFA_XSP16, literal(-9)))
        CFI (cfiCond140) V2 load(1, XDATA, add(CFA_XSP16, literal(-8)))
        CFI (cfiCond140) V3 load(1, XDATA, add(CFA_XSP16, literal(-7)))
        CFI (cfiCond140) R7 load(1, XDATA, add(CFA_XSP16, literal(-6)))
        CFI (cfiCond140) ?RET_LOW load(1, XDATA, add(CFA_XSP16, literal(-5)))
        CFI (cfiCond140) ?RET_HIGH load(1, XDATA, add(CFA_XSP16, literal(-4)))
        CFI (cfiCond140) ?BRET_EXT load(1, XDATA, add(CFA_XSP16, literal(-3)))
        CFI (cfiCond140) DPL0 load(1, XDATA, add(CFA_XSP16, literal(-2)))
        CFI (cfiCond140) DPH0 load(1, XDATA, add(CFA_XSP16, literal(-1)))
        CFI (cfiCond140) CFA_SP SP+0
        CFI (cfiCond140) CFA_XSP16 add(XSP16, 12)
        CFI Block cfiCond141 Using cfiCommon0
        CFI (cfiCond141) NoFunction
        CFI (cfiCond141) Conditional ??CrossCallReturnLabel_53, ??CrossCallReturnLabel_48, ??CrossCallReturnLabel_27
        CFI (cfiCond141) R6 load(1, XDATA, add(CFA_XSP16, literal(-12)))
        CFI (cfiCond141) VB load(1, XDATA, add(CFA_XSP16, literal(-11)))
        CFI (cfiCond141) V0 load(1, XDATA, add(CFA_XSP16, literal(-10)))
        CFI (cfiCond141) V1 load(1, XDATA, add(CFA_XSP16, literal(-9)))
        CFI (cfiCond141) V2 load(1, XDATA, add(CFA_XSP16, literal(-8)))
        CFI (cfiCond141) V3 load(1, XDATA, add(CFA_XSP16, literal(-7)))
        CFI (cfiCond141) R7 load(1, XDATA, add(CFA_XSP16, literal(-6)))
        CFI (cfiCond141) ?RET_LOW load(1, XDATA, add(CFA_XSP16, literal(-5)))
        CFI (cfiCond141) ?RET_HIGH load(1, XDATA, add(CFA_XSP16, literal(-4)))
        CFI (cfiCond141) ?BRET_EXT load(1, XDATA, add(CFA_XSP16, literal(-3)))
        CFI (cfiCond141) DPL0 load(1, XDATA, add(CFA_XSP16, literal(-2)))
        CFI (cfiCond141) DPH0 load(1, XDATA, add(CFA_XSP16, literal(-1)))
        CFI (cfiCond141) CFA_SP SP+0
        CFI (cfiCond141) CFA_XSP16 add(XSP16, 12)
        CFI Block cfiCond142 Using cfiCommon0
        CFI (cfiCond142) NoFunction
        CFI (cfiCond142) Conditional ??CrossCallReturnLabel_53, ??CrossCallReturnLabel_49, ??CrossCallReturnLabel_26
        CFI (cfiCond142) R6 load(1, XDATA, add(CFA_XSP16, literal(-12)))
        CFI (cfiCond142) VB load(1, XDATA, add(CFA_XSP16, literal(-11)))
        CFI (cfiCond142) V0 load(1, XDATA, add(CFA_XSP16, literal(-10)))
        CFI (cfiCond142) V1 load(1, XDATA, add(CFA_XSP16, literal(-9)))
        CFI (cfiCond142) V2 load(1, XDATA, add(CFA_XSP16, literal(-8)))
        CFI (cfiCond142) V3 load(1, XDATA, add(CFA_XSP16, literal(-7)))
        CFI (cfiCond142) R7 load(1, XDATA, add(CFA_XSP16, literal(-6)))
        CFI (cfiCond142) ?RET_LOW load(1, XDATA, add(CFA_XSP16, literal(-5)))
        CFI (cfiCond142) ?RET_HIGH load(1, XDATA, add(CFA_XSP16, literal(-4)))
        CFI (cfiCond142) ?BRET_EXT load(1, XDATA, add(CFA_XSP16, literal(-3)))
        CFI (cfiCond142) DPL0 load(1, XDATA, add(CFA_XSP16, literal(-2)))
        CFI (cfiCond142) DPH0 load(1, XDATA, add(CFA_XSP16, literal(-1)))
        CFI (cfiCond142) CFA_SP SP+0
        CFI (cfiCond142) CFA_XSP16 add(XSP16, 12)
        CFI Block cfiCond143 Using cfiCommon0
        CFI (cfiCond143) NoFunction
        CFI (cfiCond143) Conditional ??CrossCallReturnLabel_53, ??CrossCallReturnLabel_49, ??CrossCallReturnLabel_27
        CFI (cfiCond143) R6 load(1, XDATA, add(CFA_XSP16, literal(-12)))
        CFI (cfiCond143) VB load(1, XDATA, add(CFA_XSP16, literal(-11)))
        CFI (cfiCond143) V0 load(1, XDATA, add(CFA_XSP16, literal(-10)))
        CFI (cfiCond143) V1 load(1, XDATA, add(CFA_XSP16, literal(-9)))
        CFI (cfiCond143) V2 load(1, XDATA, add(CFA_XSP16, literal(-8)))
        CFI (cfiCond143) V3 load(1, XDATA, add(CFA_XSP16, literal(-7)))
        CFI (cfiCond143) R7 load(1, XDATA, add(CFA_XSP16, literal(-6)))
        CFI (cfiCond143) ?RET_LOW load(1, XDATA, add(CFA_XSP16, literal(-5)))
        CFI (cfiCond143) ?RET_HIGH load(1, XDATA, add(CFA_XSP16, literal(-4)))
        CFI (cfiCond143) ?BRET_EXT load(1, XDATA, add(CFA_XSP16, literal(-3)))
        CFI (cfiCond143) DPL0 load(1, XDATA, add(CFA_XSP16, literal(-2)))
        CFI (cfiCond143) DPH0 load(1, XDATA, add(CFA_XSP16, literal(-1)))
        CFI (cfiCond143) CFA_SP SP+0
        CFI (cfiCond143) CFA_XSP16 add(XSP16, 12)
        CFI Block cfiPicker144 Using cfiCommon1
        CFI (cfiPicker144) NoFunction
        CFI (cfiPicker144) Picker
        LCALL   ?Subroutine31 & 0xFFFF
??CrossCallReturnLabel_56:
        ; Setup parameters for call to function SendByte
        ; Setup parameters for call to function SendByte
        ; Setup parameters for call to function SendByte
        ; Setup parameters for call to function SendByte
        ; Setup parameters for call to function SendByte
        ; Setup parameters for call to function SendByte
        ; Setup parameters for call to function SendByte
        ; Setup parameters for call to function SendByte
        LCALL   ?Subroutine31 & 0xFFFF
??CrossCallReturnLabel_57:
        RET
        CFI EndBlock cfiCond136
        CFI EndBlock cfiCond137
        CFI EndBlock cfiCond138
        CFI EndBlock cfiCond139
        CFI EndBlock cfiCond140
        CFI EndBlock cfiCond141
        CFI EndBlock cfiCond142
        CFI EndBlock cfiCond143
        CFI EndBlock cfiPicker144

        RSEG BANKED_CODE:CODE:NOROOT(0)
?Subroutine31:
        CFI Block cfiCond145 Using cfiCommon0
        CFI NoFunction
        CFI Conditional ??CrossCallReturnLabel_56, ??CrossCallReturnLabel_52, ??CrossCallReturnLabel_48, ??CrossCallReturnLabel_26
        CFI R6 load(1, XDATA, add(CFA_XSP16, literal(-12)))
        CFI VB load(1, XDATA, add(CFA_XSP16, literal(-11)))
        CFI V0 load(1, XDATA, add(CFA_XSP16, literal(-10)))
        CFI V1 load(1, XDATA, add(CFA_XSP16, literal(-9)))
        CFI V2 load(1, XDATA, add(CFA_XSP16, literal(-8)))
        CFI V3 load(1, XDATA, add(CFA_XSP16, literal(-7)))
        CFI R7 load(1, XDATA, add(CFA_XSP16, literal(-6)))
        CFI ?RET_LOW load(1, XDATA, add(CFA_XSP16, literal(-5)))
        CFI ?RET_HIGH load(1, XDATA, add(CFA_XSP16, literal(-4)))
        CFI ?BRET_EXT load(1, XDATA, add(CFA_XSP16, literal(-3)))
        CFI DPL0 load(1, XDATA, add(CFA_XSP16, literal(-2)))
        CFI DPH0 load(1, XDATA, add(CFA_XSP16, literal(-1)))
        CFI CFA_SP SP+0
        CFI CFA_XSP16 add(XSP16, 12)
        CFI Block cfiCond146 Using cfiCommon0
        CFI (cfiCond146) NoFunction
        CFI (cfiCond146) Conditional ??CrossCallReturnLabel_56, ??CrossCallReturnLabel_52, ??CrossCallReturnLabel_48, ??CrossCallReturnLabel_27
        CFI (cfiCond146) R6 load(1, XDATA, add(CFA_XSP16, literal(-12)))
        CFI (cfiCond146) VB load(1, XDATA, add(CFA_XSP16, literal(-11)))
        CFI (cfiCond146) V0 load(1, XDATA, add(CFA_XSP16, literal(-10)))
        CFI (cfiCond146) V1 load(1, XDATA, add(CFA_XSP16, literal(-9)))
        CFI (cfiCond146) V2 load(1, XDATA, add(CFA_XSP16, literal(-8)))
        CFI (cfiCond146) V3 load(1, XDATA, add(CFA_XSP16, literal(-7)))
        CFI (cfiCond146) R7 load(1, XDATA, add(CFA_XSP16, literal(-6)))
        CFI (cfiCond146) ?RET_LOW load(1, XDATA, add(CFA_XSP16, literal(-5)))
        CFI (cfiCond146) ?RET_HIGH load(1, XDATA, add(CFA_XSP16, literal(-4)))
        CFI (cfiCond146) ?BRET_EXT load(1, XDATA, add(CFA_XSP16, literal(-3)))
        CFI (cfiCond146) DPL0 load(1, XDATA, add(CFA_XSP16, literal(-2)))
        CFI (cfiCond146) DPH0 load(1, XDATA, add(CFA_XSP16, literal(-1)))
        CFI (cfiCond146) CFA_SP SP+0
        CFI (cfiCond146) CFA_XSP16 add(XSP16, 12)
        CFI Block cfiCond147 Using cfiCommon0
        CFI (cfiCond147) NoFunction
        CFI (cfiCond147) Conditional ??CrossCallReturnLabel_56, ??CrossCallReturnLabel_52, ??CrossCallReturnLabel_49, ??CrossCallReturnLabel_26
        CFI (cfiCond147) R6 load(1, XDATA, add(CFA_XSP16, literal(-12)))
        CFI (cfiCond147) VB load(1, XDATA, add(CFA_XSP16, literal(-11)))
        CFI (cfiCond147) V0 load(1, XDATA, add(CFA_XSP16, literal(-10)))
        CFI (cfiCond147) V1 load(1, XDATA, add(CFA_XSP16, literal(-9)))
        CFI (cfiCond147) V2 load(1, XDATA, add(CFA_XSP16, literal(-8)))
        CFI (cfiCond147) V3 load(1, XDATA, add(CFA_XSP16, literal(-7)))
        CFI (cfiCond147) R7 load(1, XDATA, add(CFA_XSP16, literal(-6)))
        CFI (cfiCond147) ?RET_LOW load(1, XDATA, add(CFA_XSP16, literal(-5)))
        CFI (cfiCond147) ?RET_HIGH load(1, XDATA, add(CFA_XSP16, literal(-4)))
        CFI (cfiCond147) ?BRET_EXT load(1, XDATA, add(CFA_XSP16, literal(-3)))
        CFI (cfiCond147) DPL0 load(1, XDATA, add(CFA_XSP16, literal(-2)))
        CFI (cfiCond147) DPH0 load(1, XDATA, add(CFA_XSP16, literal(-1)))
        CFI (cfiCond147) CFA_SP SP+0
        CFI (cfiCond147) CFA_XSP16 add(XSP16, 12)
        CFI Block cfiCond148 Using cfiCommon0
        CFI (cfiCond148) NoFunction
        CFI (cfiCond148) Conditional ??CrossCallReturnLabel_56, ??CrossCallReturnLabel_52, ??CrossCallReturnLabel_49, ??CrossCallReturnLabel_27
        CFI (cfiCond148) R6 load(1, XDATA, add(CFA_XSP16, literal(-12)))
        CFI (cfiCond148) VB load(1, XDATA, add(CFA_XSP16, literal(-11)))
        CFI (cfiCond148) V0 load(1, XDATA, add(CFA_XSP16, literal(-10)))
        CFI (cfiCond148) V1 load(1, XDATA, add(CFA_XSP16, literal(-9)))
        CFI (cfiCond148) V2 load(1, XDATA, add(CFA_XSP16, literal(-8)))
        CFI (cfiCond148) V3 load(1, XDATA, add(CFA_XSP16, literal(-7)))
        CFI (cfiCond148) R7 load(1, XDATA, add(CFA_XSP16, literal(-6)))
        CFI (cfiCond148) ?RET_LOW load(1, XDATA, add(CFA_XSP16, literal(-5)))
        CFI (cfiCond148) ?RET_HIGH load(1, XDATA, add(CFA_XSP16, literal(-4)))
        CFI (cfiCond148) ?BRET_EXT load(1, XDATA, add(CFA_XSP16, literal(-3)))
        CFI (cfiCond148) DPL0 load(1, XDATA, add(CFA_XSP16, literal(-2)))
        CFI (cfiCond148) DPH0 load(1, XDATA, add(CFA_XSP16, literal(-1)))
        CFI (cfiCond148) CFA_SP SP+0
        CFI (cfiCond148) CFA_XSP16 add(XSP16, 12)
        CFI Block cfiCond149 Using cfiCommon0
        CFI (cfiCond149) NoFunction
        CFI (cfiCond149) Conditional ??CrossCallReturnLabel_56, ??CrossCallReturnLabel_53, ??CrossCallReturnLabel_48, ??CrossCallReturnLabel_26
        CFI (cfiCond149) R6 load(1, XDATA, add(CFA_XSP16, literal(-12)))
        CFI (cfiCond149) VB load(1, XDATA, add(CFA_XSP16, literal(-11)))
        CFI (cfiCond149) V0 load(1, XDATA, add(CFA_XSP16, literal(-10)))
        CFI (cfiCond149) V1 load(1, XDATA, add(CFA_XSP16, literal(-9)))
        CFI (cfiCond149) V2 load(1, XDATA, add(CFA_XSP16, literal(-8)))
        CFI (cfiCond149) V3 load(1, XDATA, add(CFA_XSP16, literal(-7)))
        CFI (cfiCond149) R7 load(1, XDATA, add(CFA_XSP16, literal(-6)))
        CFI (cfiCond149) ?RET_LOW load(1, XDATA, add(CFA_XSP16, literal(-5)))
        CFI (cfiCond149) ?RET_HIGH load(1, XDATA, add(CFA_XSP16, literal(-4)))
        CFI (cfiCond149) ?BRET_EXT load(1, XDATA, add(CFA_XSP16, literal(-3)))
        CFI (cfiCond149) DPL0 load(1, XDATA, add(CFA_XSP16, literal(-2)))
        CFI (cfiCond149) DPH0 load(1, XDATA, add(CFA_XSP16, literal(-1)))
        CFI (cfiCond149) CFA_SP SP+0
        CFI (cfiCond149) CFA_XSP16 add(XSP16, 12)
        CFI Block cfiCond150 Using cfiCommon0
        CFI (cfiCond150) NoFunction
        CFI (cfiCond150) Conditional ??CrossCallReturnLabel_56, ??CrossCallReturnLabel_53, ??CrossCallReturnLabel_48, ??CrossCallReturnLabel_27
        CFI (cfiCond150) R6 load(1, XDATA, add(CFA_XSP16, literal(-12)))
        CFI (cfiCond150) VB load(1, XDATA, add(CFA_XSP16, literal(-11)))
        CFI (cfiCond150) V0 load(1, XDATA, add(CFA_XSP16, literal(-10)))
        CFI (cfiCond150) V1 load(1, XDATA, add(CFA_XSP16, literal(-9)))
        CFI (cfiCond150) V2 load(1, XDATA, add(CFA_XSP16, literal(-8)))
        CFI (cfiCond150) V3 load(1, XDATA, add(CFA_XSP16, literal(-7)))
        CFI (cfiCond150) R7 load(1, XDATA, add(CFA_XSP16, literal(-6)))
        CFI (cfiCond150) ?RET_LOW load(1, XDATA, add(CFA_XSP16, literal(-5)))
        CFI (cfiCond150) ?RET_HIGH load(1, XDATA, add(CFA_XSP16, literal(-4)))
        CFI (cfiCond150) ?BRET_EXT load(1, XDATA, add(CFA_XSP16, literal(-3)))
        CFI (cfiCond150) DPL0 load(1, XDATA, add(CFA_XSP16, literal(-2)))
        CFI (cfiCond150) DPH0 load(1, XDATA, add(CFA_XSP16, literal(-1)))
        CFI (cfiCond150) CFA_SP SP+0
        CFI (cfiCond150) CFA_XSP16 add(XSP16, 12)
        CFI Block cfiCond151 Using cfiCommon0
        CFI (cfiCond151) NoFunction
        CFI (cfiCond151) Conditional ??CrossCallReturnLabel_56, ??CrossCallReturnLabel_53, ??CrossCallReturnLabel_49, ??CrossCallReturnLabel_26
        CFI (cfiCond151) R6 load(1, XDATA, add(CFA_XSP16, literal(-12)))
        CFI (cfiCond151) VB load(1, XDATA, add(CFA_XSP16, literal(-11)))
        CFI (cfiCond151) V0 load(1, XDATA, add(CFA_XSP16, literal(-10)))
        CFI (cfiCond151) V1 load(1, XDATA, add(CFA_XSP16, literal(-9)))
        CFI (cfiCond151) V2 load(1, XDATA, add(CFA_XSP16, literal(-8)))
        CFI (cfiCond151) V3 load(1, XDATA, add(CFA_XSP16, literal(-7)))
        CFI (cfiCond151) R7 load(1, XDATA, add(CFA_XSP16, literal(-6)))
        CFI (cfiCond151) ?RET_LOW load(1, XDATA, add(CFA_XSP16, literal(-5)))
        CFI (cfiCond151) ?RET_HIGH load(1, XDATA, add(CFA_XSP16, literal(-4)))
        CFI (cfiCond151) ?BRET_EXT load(1, XDATA, add(CFA_XSP16, literal(-3)))
        CFI (cfiCond151) DPL0 load(1, XDATA, add(CFA_XSP16, literal(-2)))
        CFI (cfiCond151) DPH0 load(1, XDATA, add(CFA_XSP16, literal(-1)))
        CFI (cfiCond151) CFA_SP SP+0
        CFI (cfiCond151) CFA_XSP16 add(XSP16, 12)
        CFI Block cfiCond152 Using cfiCommon0
        CFI (cfiCond152) NoFunction
        CFI (cfiCond152) Conditional ??CrossCallReturnLabel_56, ??CrossCallReturnLabel_53, ??CrossCallReturnLabel_49, ??CrossCallReturnLabel_27
        CFI (cfiCond152) R6 load(1, XDATA, add(CFA_XSP16, literal(-12)))
        CFI (cfiCond152) VB load(1, XDATA, add(CFA_XSP16, literal(-11)))
        CFI (cfiCond152) V0 load(1, XDATA, add(CFA_XSP16, literal(-10)))
        CFI (cfiCond152) V1 load(1, XDATA, add(CFA_XSP16, literal(-9)))
        CFI (cfiCond152) V2 load(1, XDATA, add(CFA_XSP16, literal(-8)))
        CFI (cfiCond152) V3 load(1, XDATA, add(CFA_XSP16, literal(-7)))
        CFI (cfiCond152) R7 load(1, XDATA, add(CFA_XSP16, literal(-6)))
        CFI (cfiCond152) ?RET_LOW load(1, XDATA, add(CFA_XSP16, literal(-5)))
        CFI (cfiCond152) ?RET_HIGH load(1, XDATA, add(CFA_XSP16, literal(-4)))
        CFI (cfiCond152) ?BRET_EXT load(1, XDATA, add(CFA_XSP16, literal(-3)))
        CFI (cfiCond152) DPL0 load(1, XDATA, add(CFA_XSP16, literal(-2)))
        CFI (cfiCond152) DPH0 load(1, XDATA, add(CFA_XSP16, literal(-1)))
        CFI (cfiCond152) CFA_SP SP+0
        CFI (cfiCond152) CFA_XSP16 add(XSP16, 12)
        CFI Block cfiCond153 Using cfiCommon0
        CFI (cfiCond153) NoFunction
        CFI (cfiCond153) Conditional ??CrossCallReturnLabel_57, ??CrossCallReturnLabel_52, ??CrossCallReturnLabel_48, ??CrossCallReturnLabel_26
        CFI (cfiCond153) R6 load(1, XDATA, add(CFA_XSP16, literal(-12)))
        CFI (cfiCond153) VB load(1, XDATA, add(CFA_XSP16, literal(-11)))
        CFI (cfiCond153) V0 load(1, XDATA, add(CFA_XSP16, literal(-10)))
        CFI (cfiCond153) V1 load(1, XDATA, add(CFA_XSP16, literal(-9)))
        CFI (cfiCond153) V2 load(1, XDATA, add(CFA_XSP16, literal(-8)))
        CFI (cfiCond153) V3 load(1, XDATA, add(CFA_XSP16, literal(-7)))
        CFI (cfiCond153) R7 load(1, XDATA, add(CFA_XSP16, literal(-6)))
        CFI (cfiCond153) ?RET_LOW load(1, XDATA, add(CFA_XSP16, literal(-5)))
        CFI (cfiCond153) ?RET_HIGH load(1, XDATA, add(CFA_XSP16, literal(-4)))
        CFI (cfiCond153) ?BRET_EXT load(1, XDATA, add(CFA_XSP16, literal(-3)))
        CFI (cfiCond153) DPL0 load(1, XDATA, add(CFA_XSP16, literal(-2)))
        CFI (cfiCond153) DPH0 load(1, XDATA, add(CFA_XSP16, literal(-1)))
        CFI (cfiCond153) CFA_SP SP+0
        CFI (cfiCond153) CFA_XSP16 add(XSP16, 12)
        CFI Block cfiCond154 Using cfiCommon0
        CFI (cfiCond154) NoFunction
        CFI (cfiCond154) Conditional ??CrossCallReturnLabel_57, ??CrossCallReturnLabel_52, ??CrossCallReturnLabel_48, ??CrossCallReturnLabel_27
        CFI (cfiCond154) R6 load(1, XDATA, add(CFA_XSP16, literal(-12)))
        CFI (cfiCond154) VB load(1, XDATA, add(CFA_XSP16, literal(-11)))
        CFI (cfiCond154) V0 load(1, XDATA, add(CFA_XSP16, literal(-10)))
        CFI (cfiCond154) V1 load(1, XDATA, add(CFA_XSP16, literal(-9)))
        CFI (cfiCond154) V2 load(1, XDATA, add(CFA_XSP16, literal(-8)))
        CFI (cfiCond154) V3 load(1, XDATA, add(CFA_XSP16, literal(-7)))
        CFI (cfiCond154) R7 load(1, XDATA, add(CFA_XSP16, literal(-6)))
        CFI (cfiCond154) ?RET_LOW load(1, XDATA, add(CFA_XSP16, literal(-5)))
        CFI (cfiCond154) ?RET_HIGH load(1, XDATA, add(CFA_XSP16, literal(-4)))
        CFI (cfiCond154) ?BRET_EXT load(1, XDATA, add(CFA_XSP16, literal(-3)))
        CFI (cfiCond154) DPL0 load(1, XDATA, add(CFA_XSP16, literal(-2)))
        CFI (cfiCond154) DPH0 load(1, XDATA, add(CFA_XSP16, literal(-1)))
        CFI (cfiCond154) CFA_SP SP+0
        CFI (cfiCond154) CFA_XSP16 add(XSP16, 12)
        CFI Block cfiCond155 Using cfiCommon0
        CFI (cfiCond155) NoFunction
        CFI (cfiCond155) Conditional ??CrossCallReturnLabel_57, ??CrossCallReturnLabel_52, ??CrossCallReturnLabel_49, ??CrossCallReturnLabel_26
        CFI (cfiCond155) R6 load(1, XDATA, add(CFA_XSP16, literal(-12)))
        CFI (cfiCond155) VB load(1, XDATA, add(CFA_XSP16, literal(-11)))
        CFI (cfiCond155) V0 load(1, XDATA, add(CFA_XSP16, literal(-10)))
        CFI (cfiCond155) V1 load(1, XDATA, add(CFA_XSP16, literal(-9)))
        CFI (cfiCond155) V2 load(1, XDATA, add(CFA_XSP16, literal(-8)))
        CFI (cfiCond155) V3 load(1, XDATA, add(CFA_XSP16, literal(-7)))
        CFI (cfiCond155) R7 load(1, XDATA, add(CFA_XSP16, literal(-6)))
        CFI (cfiCond155) ?RET_LOW load(1, XDATA, add(CFA_XSP16, literal(-5)))
        CFI (cfiCond155) ?RET_HIGH load(1, XDATA, add(CFA_XSP16, literal(-4)))
        CFI (cfiCond155) ?BRET_EXT load(1, XDATA, add(CFA_XSP16, literal(-3)))
        CFI (cfiCond155) DPL0 load(1, XDATA, add(CFA_XSP16, literal(-2)))
        CFI (cfiCond155) DPH0 load(1, XDATA, add(CFA_XSP16, literal(-1)))
        CFI (cfiCond155) CFA_SP SP+0
        CFI (cfiCond155) CFA_XSP16 add(XSP16, 12)
        CFI Block cfiCond156 Using cfiCommon0
        CFI (cfiCond156) NoFunction
        CFI (cfiCond156) Conditional ??CrossCallReturnLabel_57, ??CrossCallReturnLabel_52, ??CrossCallReturnLabel_49, ??CrossCallReturnLabel_27
        CFI (cfiCond156) R6 load(1, XDATA, add(CFA_XSP16, literal(-12)))
        CFI (cfiCond156) VB load(1, XDATA, add(CFA_XSP16, literal(-11)))
        CFI (cfiCond156) V0 load(1, XDATA, add(CFA_XSP16, literal(-10)))
        CFI (cfiCond156) V1 load(1, XDATA, add(CFA_XSP16, literal(-9)))
        CFI (cfiCond156) V2 load(1, XDATA, add(CFA_XSP16, literal(-8)))
        CFI (cfiCond156) V3 load(1, XDATA, add(CFA_XSP16, literal(-7)))
        CFI (cfiCond156) R7 load(1, XDATA, add(CFA_XSP16, literal(-6)))
        CFI (cfiCond156) ?RET_LOW load(1, XDATA, add(CFA_XSP16, literal(-5)))
        CFI (cfiCond156) ?RET_HIGH load(1, XDATA, add(CFA_XSP16, literal(-4)))
        CFI (cfiCond156) ?BRET_EXT load(1, XDATA, add(CFA_XSP16, literal(-3)))
        CFI (cfiCond156) DPL0 load(1, XDATA, add(CFA_XSP16, literal(-2)))
        CFI (cfiCond156) DPH0 load(1, XDATA, add(CFA_XSP16, literal(-1)))
        CFI (cfiCond156) CFA_SP SP+0
        CFI (cfiCond156) CFA_XSP16 add(XSP16, 12)
        CFI Block cfiCond157 Using cfiCommon0
        CFI (cfiCond157) NoFunction
        CFI (cfiCond157) Conditional ??CrossCallReturnLabel_57, ??CrossCallReturnLabel_53, ??CrossCallReturnLabel_48, ??CrossCallReturnLabel_26
        CFI (cfiCond157) R6 load(1, XDATA, add(CFA_XSP16, literal(-12)))
        CFI (cfiCond157) VB load(1, XDATA, add(CFA_XSP16, literal(-11)))
        CFI (cfiCond157) V0 load(1, XDATA, add(CFA_XSP16, literal(-10)))
        CFI (cfiCond157) V1 load(1, XDATA, add(CFA_XSP16, literal(-9)))
        CFI (cfiCond157) V2 load(1, XDATA, add(CFA_XSP16, literal(-8)))
        CFI (cfiCond157) V3 load(1, XDATA, add(CFA_XSP16, literal(-7)))
        CFI (cfiCond157) R7 load(1, XDATA, add(CFA_XSP16, literal(-6)))
        CFI (cfiCond157) ?RET_LOW load(1, XDATA, add(CFA_XSP16, literal(-5)))
        CFI (cfiCond157) ?RET_HIGH load(1, XDATA, add(CFA_XSP16, literal(-4)))
        CFI (cfiCond157) ?BRET_EXT load(1, XDATA, add(CFA_XSP16, literal(-3)))
        CFI (cfiCond157) DPL0 load(1, XDATA, add(CFA_XSP16, literal(-2)))
        CFI (cfiCond157) DPH0 load(1, XDATA, add(CFA_XSP16, literal(-1)))
        CFI (cfiCond157) CFA_SP SP+0
        CFI (cfiCond157) CFA_XSP16 add(XSP16, 12)
        CFI Block cfiCond158 Using cfiCommon0
        CFI (cfiCond158) NoFunction
        CFI (cfiCond158) Conditional ??CrossCallReturnLabel_57, ??CrossCallReturnLabel_53, ??CrossCallReturnLabel_48, ??CrossCallReturnLabel_27
        CFI (cfiCond158) R6 load(1, XDATA, add(CFA_XSP16, literal(-12)))
        CFI (cfiCond158) VB load(1, XDATA, add(CFA_XSP16, literal(-11)))
        CFI (cfiCond158) V0 load(1, XDATA, add(CFA_XSP16, literal(-10)))
        CFI (cfiCond158) V1 load(1, XDATA, add(CFA_XSP16, literal(-9)))
        CFI (cfiCond158) V2 load(1, XDATA, add(CFA_XSP16, literal(-8)))
        CFI (cfiCond158) V3 load(1, XDATA, add(CFA_XSP16, literal(-7)))
        CFI (cfiCond158) R7 load(1, XDATA, add(CFA_XSP16, literal(-6)))
        CFI (cfiCond158) ?RET_LOW load(1, XDATA, add(CFA_XSP16, literal(-5)))
        CFI (cfiCond158) ?RET_HIGH load(1, XDATA, add(CFA_XSP16, literal(-4)))
        CFI (cfiCond158) ?BRET_EXT load(1, XDATA, add(CFA_XSP16, literal(-3)))
        CFI (cfiCond158) DPL0 load(1, XDATA, add(CFA_XSP16, literal(-2)))
        CFI (cfiCond158) DPH0 load(1, XDATA, add(CFA_XSP16, literal(-1)))
        CFI (cfiCond158) CFA_SP SP+0
        CFI (cfiCond158) CFA_XSP16 add(XSP16, 12)
        CFI Block cfiCond159 Using cfiCommon0
        CFI (cfiCond159) NoFunction
        CFI (cfiCond159) Conditional ??CrossCallReturnLabel_57, ??CrossCallReturnLabel_53, ??CrossCallReturnLabel_49, ??CrossCallReturnLabel_26
        CFI (cfiCond159) R6 load(1, XDATA, add(CFA_XSP16, literal(-12)))
        CFI (cfiCond159) VB load(1, XDATA, add(CFA_XSP16, literal(-11)))
        CFI (cfiCond159) V0 load(1, XDATA, add(CFA_XSP16, literal(-10)))
        CFI (cfiCond159) V1 load(1, XDATA, add(CFA_XSP16, literal(-9)))
        CFI (cfiCond159) V2 load(1, XDATA, add(CFA_XSP16, literal(-8)))
        CFI (cfiCond159) V3 load(1, XDATA, add(CFA_XSP16, literal(-7)))
        CFI (cfiCond159) R7 load(1, XDATA, add(CFA_XSP16, literal(-6)))
        CFI (cfiCond159) ?RET_LOW load(1, XDATA, add(CFA_XSP16, literal(-5)))
        CFI (cfiCond159) ?RET_HIGH load(1, XDATA, add(CFA_XSP16, literal(-4)))
        CFI (cfiCond159) ?BRET_EXT load(1, XDATA, add(CFA_XSP16, literal(-3)))
        CFI (cfiCond159) DPL0 load(1, XDATA, add(CFA_XSP16, literal(-2)))
        CFI (cfiCond159) DPH0 load(1, XDATA, add(CFA_XSP16, literal(-1)))
        CFI (cfiCond159) CFA_SP SP+0
        CFI (cfiCond159) CFA_XSP16 add(XSP16, 12)
        CFI Block cfiCond160 Using cfiCommon0
        CFI (cfiCond160) NoFunction
        CFI (cfiCond160) Conditional ??CrossCallReturnLabel_57, ??CrossCallReturnLabel_53, ??CrossCallReturnLabel_49, ??CrossCallReturnLabel_27
        CFI (cfiCond160) R6 load(1, XDATA, add(CFA_XSP16, literal(-12)))
        CFI (cfiCond160) VB load(1, XDATA, add(CFA_XSP16, literal(-11)))
        CFI (cfiCond160) V0 load(1, XDATA, add(CFA_XSP16, literal(-10)))
        CFI (cfiCond160) V1 load(1, XDATA, add(CFA_XSP16, literal(-9)))
        CFI (cfiCond160) V2 load(1, XDATA, add(CFA_XSP16, literal(-8)))
        CFI (cfiCond160) V3 load(1, XDATA, add(CFA_XSP16, literal(-7)))
        CFI (cfiCond160) R7 load(1, XDATA, add(CFA_XSP16, literal(-6)))
        CFI (cfiCond160) ?RET_LOW load(1, XDATA, add(CFA_XSP16, literal(-5)))
        CFI (cfiCond160) ?RET_HIGH load(1, XDATA, add(CFA_XSP16, literal(-4)))
        CFI (cfiCond160) ?BRET_EXT load(1, XDATA, add(CFA_XSP16, literal(-3)))
        CFI (cfiCond160) DPL0 load(1, XDATA, add(CFA_XSP16, literal(-2)))
        CFI (cfiCond160) DPH0 load(1, XDATA, add(CFA_XSP16, literal(-1)))
        CFI (cfiCond160) CFA_SP SP+0
        CFI (cfiCond160) CFA_XSP16 add(XSP16, 12)
        CFI Block cfiPicker161 Using cfiCommon1
        CFI (cfiPicker161) NoFunction
        CFI (cfiPicker161) Picker
        LCALL   ?Subroutine33 & 0xFFFF
??CrossCallReturnLabel_60:
        ; Setup parameters for call to function SendByte
        ; Setup parameters for call to function SendByte
        ; Setup parameters for call to function SendByte
        ; Setup parameters for call to function SendByte
        ; Setup parameters for call to function SendByte
        ; Setup parameters for call to function SendByte
        ; Setup parameters for call to function SendByte
        ; Setup parameters for call to function SendByte
        ; Setup parameters for call to function SendByte
        ; Setup parameters for call to function SendByte
        ; Setup parameters for call to function SendByte
        ; Setup parameters for call to function SendByte
        ; Setup parameters for call to function SendByte
        ; Setup parameters for call to function SendByte
        ; Setup parameters for call to function SendByte
        ; Setup parameters for call to function SendByte
        LCALL   ?Subroutine33 & 0xFFFF
??CrossCallReturnLabel_61:
        RET
        CFI EndBlock cfiCond145
        CFI EndBlock cfiCond146
        CFI EndBlock cfiCond147
        CFI EndBlock cfiCond148
        CFI EndBlock cfiCond149
        CFI EndBlock cfiCond150
        CFI EndBlock cfiCond151
        CFI EndBlock cfiCond152
        CFI EndBlock cfiCond153
        CFI EndBlock cfiCond154
        CFI EndBlock cfiCond155
        CFI EndBlock cfiCond156
        CFI EndBlock cfiCond157
        CFI EndBlock cfiCond158
        CFI EndBlock cfiCond159
        CFI EndBlock cfiCond160
        CFI EndBlock cfiPicker161

        RSEG BANKED_CODE:CODE:NOROOT(0)
?Subroutine33:
        CFI Block cfiCond162 Using cfiCommon0
        CFI NoFunction
        CFI Conditional ??CrossCallReturnLabel_60, ??CrossCallReturnLabel_56, ??CrossCallReturnLabel_52, ??CrossCallReturnLabel_48, ??CrossCallReturnLabel_26
        CFI R6 load(1, XDATA, add(CFA_XSP16, literal(-12)))
        CFI VB load(1, XDATA, add(CFA_XSP16, literal(-11)))
        CFI V0 load(1, XDATA, add(CFA_XSP16, literal(-10)))
        CFI V1 load(1, XDATA, add(CFA_XSP16, literal(-9)))
        CFI V2 load(1, XDATA, add(CFA_XSP16, literal(-8)))
        CFI V3 load(1, XDATA, add(CFA_XSP16, literal(-7)))
        CFI R7 load(1, XDATA, add(CFA_XSP16, literal(-6)))
        CFI ?RET_LOW load(1, XDATA, add(CFA_XSP16, literal(-5)))
        CFI ?RET_HIGH load(1, XDATA, add(CFA_XSP16, literal(-4)))
        CFI ?BRET_EXT load(1, XDATA, add(CFA_XSP16, literal(-3)))
        CFI DPL0 load(1, XDATA, add(CFA_XSP16, literal(-2)))
        CFI DPH0 load(1, XDATA, add(CFA_XSP16, literal(-1)))
        CFI CFA_SP SP+0
        CFI CFA_XSP16 add(XSP16, 12)
        CFI Block cfiCond163 Using cfiCommon0
        CFI (cfiCond163) NoFunction
        CFI (cfiCond163) Conditional ??CrossCallReturnLabel_60, ??CrossCallReturnLabel_56, ??CrossCallReturnLabel_52, ??CrossCallReturnLabel_48, ??CrossCallReturnLabel_27
        CFI (cfiCond163) R6 load(1, XDATA, add(CFA_XSP16, literal(-12)))
        CFI (cfiCond163) VB load(1, XDATA, add(CFA_XSP16, literal(-11)))
        CFI (cfiCond163) V0 load(1, XDATA, add(CFA_XSP16, literal(-10)))
        CFI (cfiCond163) V1 load(1, XDATA, add(CFA_XSP16, literal(-9)))
        CFI (cfiCond163) V2 load(1, XDATA, add(CFA_XSP16, literal(-8)))
        CFI (cfiCond163) V3 load(1, XDATA, add(CFA_XSP16, literal(-7)))
        CFI (cfiCond163) R7 load(1, XDATA, add(CFA_XSP16, literal(-6)))
        CFI (cfiCond163) ?RET_LOW load(1, XDATA, add(CFA_XSP16, literal(-5)))
        CFI (cfiCond163) ?RET_HIGH load(1, XDATA, add(CFA_XSP16, literal(-4)))
        CFI (cfiCond163) ?BRET_EXT load(1, XDATA, add(CFA_XSP16, literal(-3)))
        CFI (cfiCond163) DPL0 load(1, XDATA, add(CFA_XSP16, literal(-2)))
        CFI (cfiCond163) DPH0 load(1, XDATA, add(CFA_XSP16, literal(-1)))
        CFI (cfiCond163) CFA_SP SP+0
        CFI (cfiCond163) CFA_XSP16 add(XSP16, 12)
        CFI Block cfiCond164 Using cfiCommon0
        CFI (cfiCond164) NoFunction
        CFI (cfiCond164) Conditional ??CrossCallReturnLabel_60, ??CrossCallReturnLabel_56, ??CrossCallReturnLabel_52, ??CrossCallReturnLabel_49, ??CrossCallReturnLabel_26
        CFI (cfiCond164) R6 load(1, XDATA, add(CFA_XSP16, literal(-12)))
        CFI (cfiCond164) VB load(1, XDATA, add(CFA_XSP16, literal(-11)))
        CFI (cfiCond164) V0 load(1, XDATA, add(CFA_XSP16, literal(-10)))
        CFI (cfiCond164) V1 load(1, XDATA, add(CFA_XSP16, literal(-9)))
        CFI (cfiCond164) V2 load(1, XDATA, add(CFA_XSP16, literal(-8)))
        CFI (cfiCond164) V3 load(1, XDATA, add(CFA_XSP16, literal(-7)))
        CFI (cfiCond164) R7 load(1, XDATA, add(CFA_XSP16, literal(-6)))
        CFI (cfiCond164) ?RET_LOW load(1, XDATA, add(CFA_XSP16, literal(-5)))
        CFI (cfiCond164) ?RET_HIGH load(1, XDATA, add(CFA_XSP16, literal(-4)))
        CFI (cfiCond164) ?BRET_EXT load(1, XDATA, add(CFA_XSP16, literal(-3)))
        CFI (cfiCond164) DPL0 load(1, XDATA, add(CFA_XSP16, literal(-2)))
        CFI (cfiCond164) DPH0 load(1, XDATA, add(CFA_XSP16, literal(-1)))
        CFI (cfiCond164) CFA_SP SP+0
        CFI (cfiCond164) CFA_XSP16 add(XSP16, 12)
        CFI Block cfiCond165 Using cfiCommon0
        CFI (cfiCond165) NoFunction
        CFI (cfiCond165) Conditional ??CrossCallReturnLabel_60, ??CrossCallReturnLabel_56, ??CrossCallReturnLabel_52, ??CrossCallReturnLabel_49, ??CrossCallReturnLabel_27
        CFI (cfiCond165) R6 load(1, XDATA, add(CFA_XSP16, literal(-12)))
        CFI (cfiCond165) VB load(1, XDATA, add(CFA_XSP16, literal(-11)))
        CFI (cfiCond165) V0 load(1, XDATA, add(CFA_XSP16, literal(-10)))
        CFI (cfiCond165) V1 load(1, XDATA, add(CFA_XSP16, literal(-9)))
        CFI (cfiCond165) V2 load(1, XDATA, add(CFA_XSP16, literal(-8)))
        CFI (cfiCond165) V3 load(1, XDATA, add(CFA_XSP16, literal(-7)))
        CFI (cfiCond165) R7 load(1, XDATA, add(CFA_XSP16, literal(-6)))
        CFI (cfiCond165) ?RET_LOW load(1, XDATA, add(CFA_XSP16, literal(-5)))
        CFI (cfiCond165) ?RET_HIGH load(1, XDATA, add(CFA_XSP16, literal(-4)))
        CFI (cfiCond165) ?BRET_EXT load(1, XDATA, add(CFA_XSP16, literal(-3)))
        CFI (cfiCond165) DPL0 load(1, XDATA, add(CFA_XSP16, literal(-2)))
        CFI (cfiCond165) DPH0 load(1, XDATA, add(CFA_XSP16, literal(-1)))
        CFI (cfiCond165) CFA_SP SP+0
        CFI (cfiCond165) CFA_XSP16 add(XSP16, 12)
        CFI Block cfiCond166 Using cfiCommon0
        CFI (cfiCond166) NoFunction
        CFI (cfiCond166) Conditional ??CrossCallReturnLabel_60, ??CrossCallReturnLabel_56, ??CrossCallReturnLabel_53, ??CrossCallReturnLabel_48, ??CrossCallReturnLabel_26
        CFI (cfiCond166) R6 load(1, XDATA, add(CFA_XSP16, literal(-12)))
        CFI (cfiCond166) VB load(1, XDATA, add(CFA_XSP16, literal(-11)))
        CFI (cfiCond166) V0 load(1, XDATA, add(CFA_XSP16, literal(-10)))
        CFI (cfiCond166) V1 load(1, XDATA, add(CFA_XSP16, literal(-9)))
        CFI (cfiCond166) V2 load(1, XDATA, add(CFA_XSP16, literal(-8)))
        CFI (cfiCond166) V3 load(1, XDATA, add(CFA_XSP16, literal(-7)))
        CFI (cfiCond166) R7 load(1, XDATA, add(CFA_XSP16, literal(-6)))
        CFI (cfiCond166) ?RET_LOW load(1, XDATA, add(CFA_XSP16, literal(-5)))
        CFI (cfiCond166) ?RET_HIGH load(1, XDATA, add(CFA_XSP16, literal(-4)))
        CFI (cfiCond166) ?BRET_EXT load(1, XDATA, add(CFA_XSP16, literal(-3)))
        CFI (cfiCond166) DPL0 load(1, XDATA, add(CFA_XSP16, literal(-2)))
        CFI (cfiCond166) DPH0 load(1, XDATA, add(CFA_XSP16, literal(-1)))
        CFI (cfiCond166) CFA_SP SP+0
        CFI (cfiCond166) CFA_XSP16 add(XSP16, 12)
        CFI Block cfiCond167 Using cfiCommon0
        CFI (cfiCond167) NoFunction
        CFI (cfiCond167) Conditional ??CrossCallReturnLabel_60, ??CrossCallReturnLabel_56, ??CrossCallReturnLabel_53, ??CrossCallReturnLabel_48, ??CrossCallReturnLabel_27
        CFI (cfiCond167) R6 load(1, XDATA, add(CFA_XSP16, literal(-12)))
        CFI (cfiCond167) VB load(1, XDATA, add(CFA_XSP16, literal(-11)))
        CFI (cfiCond167) V0 load(1, XDATA, add(CFA_XSP16, literal(-10)))
        CFI (cfiCond167) V1 load(1, XDATA, add(CFA_XSP16, literal(-9)))
        CFI (cfiCond167) V2 load(1, XDATA, add(CFA_XSP16, literal(-8)))
        CFI (cfiCond167) V3 load(1, XDATA, add(CFA_XSP16, literal(-7)))
        CFI (cfiCond167) R7 load(1, XDATA, add(CFA_XSP16, literal(-6)))
        CFI (cfiCond167) ?RET_LOW load(1, XDATA, add(CFA_XSP16, literal(-5)))
        CFI (cfiCond167) ?RET_HIGH load(1, XDATA, add(CFA_XSP16, literal(-4)))
        CFI (cfiCond167) ?BRET_EXT load(1, XDATA, add(CFA_XSP16, literal(-3)))
        CFI (cfiCond167) DPL0 load(1, XDATA, add(CFA_XSP16, literal(-2)))
        CFI (cfiCond167) DPH0 load(1, XDATA, add(CFA_XSP16, literal(-1)))
        CFI (cfiCond167) CFA_SP SP+0
        CFI (cfiCond167) CFA_XSP16 add(XSP16, 12)
        CFI Block cfiCond168 Using cfiCommon0
        CFI (cfiCond168) NoFunction
        CFI (cfiCond168) Conditional ??CrossCallReturnLabel_60, ??CrossCallReturnLabel_56, ??CrossCallReturnLabel_53, ??CrossCallReturnLabel_49, ??CrossCallReturnLabel_26
        CFI (cfiCond168) R6 load(1, XDATA, add(CFA_XSP16, literal(-12)))
        CFI (cfiCond168) VB load(1, XDATA, add(CFA_XSP16, literal(-11)))
        CFI (cfiCond168) V0 load(1, XDATA, add(CFA_XSP16, literal(-10)))
        CFI (cfiCond168) V1 load(1, XDATA, add(CFA_XSP16, literal(-9)))
        CFI (cfiCond168) V2 load(1, XDATA, add(CFA_XSP16, literal(-8)))
        CFI (cfiCond168) V3 load(1, XDATA, add(CFA_XSP16, literal(-7)))
        CFI (cfiCond168) R7 load(1, XDATA, add(CFA_XSP16, literal(-6)))
        CFI (cfiCond168) ?RET_LOW load(1, XDATA, add(CFA_XSP16, literal(-5)))
        CFI (cfiCond168) ?RET_HIGH load(1, XDATA, add(CFA_XSP16, literal(-4)))
        CFI (cfiCond168) ?BRET_EXT load(1, XDATA, add(CFA_XSP16, literal(-3)))
        CFI (cfiCond168) DPL0 load(1, XDATA, add(CFA_XSP16, literal(-2)))
        CFI (cfiCond168) DPH0 load(1, XDATA, add(CFA_XSP16, literal(-1)))
        CFI (cfiCond168) CFA_SP SP+0
        CFI (cfiCond168) CFA_XSP16 add(XSP16, 12)
        CFI Block cfiCond169 Using cfiCommon0
        CFI (cfiCond169) NoFunction
        CFI (cfiCond169) Conditional ??CrossCallReturnLabel_60, ??CrossCallReturnLabel_56, ??CrossCallReturnLabel_53, ??CrossCallReturnLabel_49, ??CrossCallReturnLabel_27
        CFI (cfiCond169) R6 load(1, XDATA, add(CFA_XSP16, literal(-12)))
        CFI (cfiCond169) VB load(1, XDATA, add(CFA_XSP16, literal(-11)))
        CFI (cfiCond169) V0 load(1, XDATA, add(CFA_XSP16, literal(-10)))
        CFI (cfiCond169) V1 load(1, XDATA, add(CFA_XSP16, literal(-9)))
        CFI (cfiCond169) V2 load(1, XDATA, add(CFA_XSP16, literal(-8)))
        CFI (cfiCond169) V3 load(1, XDATA, add(CFA_XSP16, literal(-7)))
        CFI (cfiCond169) R7 load(1, XDATA, add(CFA_XSP16, literal(-6)))
        CFI (cfiCond169) ?RET_LOW load(1, XDATA, add(CFA_XSP16, literal(-5)))
        CFI (cfiCond169) ?RET_HIGH load(1, XDATA, add(CFA_XSP16, literal(-4)))
        CFI (cfiCond169) ?BRET_EXT load(1, XDATA, add(CFA_XSP16, literal(-3)))
        CFI (cfiCond169) DPL0 load(1, XDATA, add(CFA_XSP16, literal(-2)))
        CFI (cfiCond169) DPH0 load(1, XDATA, add(CFA_XSP16, literal(-1)))
        CFI (cfiCond169) CFA_SP SP+0
        CFI (cfiCond169) CFA_XSP16 add(XSP16, 12)
        CFI Block cfiCond170 Using cfiCommon0
        CFI (cfiCond170) NoFunction
        CFI (cfiCond170) Conditional ??CrossCallReturnLabel_60, ??CrossCallReturnLabel_57, ??CrossCallReturnLabel_52, ??CrossCallReturnLabel_48, ??CrossCallReturnLabel_26
        CFI (cfiCond170) R6 load(1, XDATA, add(CFA_XSP16, literal(-12)))
        CFI (cfiCond170) VB load(1, XDATA, add(CFA_XSP16, literal(-11)))
        CFI (cfiCond170) V0 load(1, XDATA, add(CFA_XSP16, literal(-10)))
        CFI (cfiCond170) V1 load(1, XDATA, add(CFA_XSP16, literal(-9)))
        CFI (cfiCond170) V2 load(1, XDATA, add(CFA_XSP16, literal(-8)))
        CFI (cfiCond170) V3 load(1, XDATA, add(CFA_XSP16, literal(-7)))
        CFI (cfiCond170) R7 load(1, XDATA, add(CFA_XSP16, literal(-6)))
        CFI (cfiCond170) ?RET_LOW load(1, XDATA, add(CFA_XSP16, literal(-5)))
        CFI (cfiCond170) ?RET_HIGH load(1, XDATA, add(CFA_XSP16, literal(-4)))
        CFI (cfiCond170) ?BRET_EXT load(1, XDATA, add(CFA_XSP16, literal(-3)))
        CFI (cfiCond170) DPL0 load(1, XDATA, add(CFA_XSP16, literal(-2)))
        CFI (cfiCond170) DPH0 load(1, XDATA, add(CFA_XSP16, literal(-1)))
        CFI (cfiCond170) CFA_SP SP+0
        CFI (cfiCond170) CFA_XSP16 add(XSP16, 12)
        CFI Block cfiCond171 Using cfiCommon0
        CFI (cfiCond171) NoFunction
        CFI (cfiCond171) Conditional ??CrossCallReturnLabel_60, ??CrossCallReturnLabel_57, ??CrossCallReturnLabel_52, ??CrossCallReturnLabel_48, ??CrossCallReturnLabel_27
        CFI (cfiCond171) R6 load(1, XDATA, add(CFA_XSP16, literal(-12)))
        CFI (cfiCond171) VB load(1, XDATA, add(CFA_XSP16, literal(-11)))
        CFI (cfiCond171) V0 load(1, XDATA, add(CFA_XSP16, literal(-10)))
        CFI (cfiCond171) V1 load(1, XDATA, add(CFA_XSP16, literal(-9)))
        CFI (cfiCond171) V2 load(1, XDATA, add(CFA_XSP16, literal(-8)))
        CFI (cfiCond171) V3 load(1, XDATA, add(CFA_XSP16, literal(-7)))
        CFI (cfiCond171) R7 load(1, XDATA, add(CFA_XSP16, literal(-6)))
        CFI (cfiCond171) ?RET_LOW load(1, XDATA, add(CFA_XSP16, literal(-5)))
        CFI (cfiCond171) ?RET_HIGH load(1, XDATA, add(CFA_XSP16, literal(-4)))
        CFI (cfiCond171) ?BRET_EXT load(1, XDATA, add(CFA_XSP16, literal(-3)))
        CFI (cfiCond171) DPL0 load(1, XDATA, add(CFA_XSP16, literal(-2)))
        CFI (cfiCond171) DPH0 load(1, XDATA, add(CFA_XSP16, literal(-1)))
        CFI (cfiCond171) CFA_SP SP+0
        CFI (cfiCond171) CFA_XSP16 add(XSP16, 12)
        CFI Block cfiCond172 Using cfiCommon0
        CFI (cfiCond172) NoFunction
        CFI (cfiCond172) Conditional ??CrossCallReturnLabel_60, ??CrossCallReturnLabel_57, ??CrossCallReturnLabel_52, ??CrossCallReturnLabel_49, ??CrossCallReturnLabel_26
        CFI (cfiCond172) R6 load(1, XDATA, add(CFA_XSP16, literal(-12)))
        CFI (cfiCond172) VB load(1, XDATA, add(CFA_XSP16, literal(-11)))
        CFI (cfiCond172) V0 load(1, XDATA, add(CFA_XSP16, literal(-10)))
        CFI (cfiCond172) V1 load(1, XDATA, add(CFA_XSP16, literal(-9)))
        CFI (cfiCond172) V2 load(1, XDATA, add(CFA_XSP16, literal(-8)))
        CFI (cfiCond172) V3 load(1, XDATA, add(CFA_XSP16, literal(-7)))
        CFI (cfiCond172) R7 load(1, XDATA, add(CFA_XSP16, literal(-6)))
        CFI (cfiCond172) ?RET_LOW load(1, XDATA, add(CFA_XSP16, literal(-5)))
        CFI (cfiCond172) ?RET_HIGH load(1, XDATA, add(CFA_XSP16, literal(-4)))
        CFI (cfiCond172) ?BRET_EXT load(1, XDATA, add(CFA_XSP16, literal(-3)))
        CFI (cfiCond172) DPL0 load(1, XDATA, add(CFA_XSP16, literal(-2)))
        CFI (cfiCond172) DPH0 load(1, XDATA, add(CFA_XSP16, literal(-1)))
        CFI (cfiCond172) CFA_SP SP+0
        CFI (cfiCond172) CFA_XSP16 add(XSP16, 12)
        CFI Block cfiCond173 Using cfiCommon0
        CFI (cfiCond173) NoFunction
        CFI (cfiCond173) Conditional ??CrossCallReturnLabel_60, ??CrossCallReturnLabel_57, ??CrossCallReturnLabel_52, ??CrossCallReturnLabel_49, ??CrossCallReturnLabel_27
        CFI (cfiCond173) R6 load(1, XDATA, add(CFA_XSP16, literal(-12)))
        CFI (cfiCond173) VB load(1, XDATA, add(CFA_XSP16, literal(-11)))
        CFI (cfiCond173) V0 load(1, XDATA, add(CFA_XSP16, literal(-10)))
        CFI (cfiCond173) V1 load(1, XDATA, add(CFA_XSP16, literal(-9)))
        CFI (cfiCond173) V2 load(1, XDATA, add(CFA_XSP16, literal(-8)))
        CFI (cfiCond173) V3 load(1, XDATA, add(CFA_XSP16, literal(-7)))
        CFI (cfiCond173) R7 load(1, XDATA, add(CFA_XSP16, literal(-6)))
        CFI (cfiCond173) ?RET_LOW load(1, XDATA, add(CFA_XSP16, literal(-5)))
        CFI (cfiCond173) ?RET_HIGH load(1, XDATA, add(CFA_XSP16, literal(-4)))
        CFI (cfiCond173) ?BRET_EXT load(1, XDATA, add(CFA_XSP16, literal(-3)))
        CFI (cfiCond173) DPL0 load(1, XDATA, add(CFA_XSP16, literal(-2)))
        CFI (cfiCond173) DPH0 load(1, XDATA, add(CFA_XSP16, literal(-1)))
        CFI (cfiCond173) CFA_SP SP+0
        CFI (cfiCond173) CFA_XSP16 add(XSP16, 12)
        CFI Block cfiCond174 Using cfiCommon0
        CFI (cfiCond174) NoFunction
        CFI (cfiCond174) Conditional ??CrossCallReturnLabel_60, ??CrossCallReturnLabel_57, ??CrossCallReturnLabel_53, ??CrossCallReturnLabel_48, ??CrossCallReturnLabel_26
        CFI (cfiCond174) R6 load(1, XDATA, add(CFA_XSP16, literal(-12)))
        CFI (cfiCond174) VB load(1, XDATA, add(CFA_XSP16, literal(-11)))
        CFI (cfiCond174) V0 load(1, XDATA, add(CFA_XSP16, literal(-10)))
        CFI (cfiCond174) V1 load(1, XDATA, add(CFA_XSP16, literal(-9)))
        CFI (cfiCond174) V2 load(1, XDATA, add(CFA_XSP16, literal(-8)))
        CFI (cfiCond174) V3 load(1, XDATA, add(CFA_XSP16, literal(-7)))
        CFI (cfiCond174) R7 load(1, XDATA, add(CFA_XSP16, literal(-6)))
        CFI (cfiCond174) ?RET_LOW load(1, XDATA, add(CFA_XSP16, literal(-5)))
        CFI (cfiCond174) ?RET_HIGH load(1, XDATA, add(CFA_XSP16, literal(-4)))
        CFI (cfiCond174) ?BRET_EXT load(1, XDATA, add(CFA_XSP16, literal(-3)))
        CFI (cfiCond174) DPL0 load(1, XDATA, add(CFA_XSP16, literal(-2)))
        CFI (cfiCond174) DPH0 load(1, XDATA, add(CFA_XSP16, literal(-1)))
        CFI (cfiCond174) CFA_SP SP+0
        CFI (cfiCond174) CFA_XSP16 add(XSP16, 12)
        CFI Block cfiCond175 Using cfiCommon0
        CFI (cfiCond175) NoFunction
        CFI (cfiCond175) Conditional ??CrossCallReturnLabel_60, ??CrossCallReturnLabel_57, ??CrossCallReturnLabel_53, ??CrossCallReturnLabel_48, ??CrossCallReturnLabel_27
        CFI (cfiCond175) R6 load(1, XDATA, add(CFA_XSP16, literal(-12)))
        CFI (cfiCond175) VB load(1, XDATA, add(CFA_XSP16, literal(-11)))
        CFI (cfiCond175) V0 load(1, XDATA, add(CFA_XSP16, literal(-10)))
        CFI (cfiCond175) V1 load(1, XDATA, add(CFA_XSP16, literal(-9)))
        CFI (cfiCond175) V2 load(1, XDATA, add(CFA_XSP16, literal(-8)))
        CFI (cfiCond175) V3 load(1, XDATA, add(CFA_XSP16, literal(-7)))
        CFI (cfiCond175) R7 load(1, XDATA, add(CFA_XSP16, literal(-6)))
        CFI (cfiCond175) ?RET_LOW load(1, XDATA, add(CFA_XSP16, literal(-5)))
        CFI (cfiCond175) ?RET_HIGH load(1, XDATA, add(CFA_XSP16, literal(-4)))
        CFI (cfiCond175) ?BRET_EXT load(1, XDATA, add(CFA_XSP16, literal(-3)))
        CFI (cfiCond175) DPL0 load(1, XDATA, add(CFA_XSP16, literal(-2)))
        CFI (cfiCond175) DPH0 load(1, XDATA, add(CFA_XSP16, literal(-1)))
        CFI (cfiCond175) CFA_SP SP+0
        CFI (cfiCond175) CFA_XSP16 add(XSP16, 12)
        CFI Block cfiCond176 Using cfiCommon0
        CFI (cfiCond176) NoFunction
        CFI (cfiCond176) Conditional ??CrossCallReturnLabel_60, ??CrossCallReturnLabel_57, ??CrossCallReturnLabel_53, ??CrossCallReturnLabel_49, ??CrossCallReturnLabel_26
        CFI (cfiCond176) R6 load(1, XDATA, add(CFA_XSP16, literal(-12)))
        CFI (cfiCond176) VB load(1, XDATA, add(CFA_XSP16, literal(-11)))
        CFI (cfiCond176) V0 load(1, XDATA, add(CFA_XSP16, literal(-10)))
        CFI (cfiCond176) V1 load(1, XDATA, add(CFA_XSP16, literal(-9)))
        CFI (cfiCond176) V2 load(1, XDATA, add(CFA_XSP16, literal(-8)))
        CFI (cfiCond176) V3 load(1, XDATA, add(CFA_XSP16, literal(-7)))
        CFI (cfiCond176) R7 load(1, XDATA, add(CFA_XSP16, literal(-6)))
        CFI (cfiCond176) ?RET_LOW load(1, XDATA, add(CFA_XSP16, literal(-5)))
        CFI (cfiCond176) ?RET_HIGH load(1, XDATA, add(CFA_XSP16, literal(-4)))
        CFI (cfiCond176) ?BRET_EXT load(1, XDATA, add(CFA_XSP16, literal(-3)))
        CFI (cfiCond176) DPL0 load(1, XDATA, add(CFA_XSP16, literal(-2)))
        CFI (cfiCond176) DPH0 load(1, XDATA, add(CFA_XSP16, literal(-1)))
        CFI (cfiCond176) CFA_SP SP+0
        CFI (cfiCond176) CFA_XSP16 add(XSP16, 12)
        CFI Block cfiCond177 Using cfiCommon0
        CFI (cfiCond177) NoFunction
        CFI (cfiCond177) Conditional ??CrossCallReturnLabel_60, ??CrossCallReturnLabel_57, ??CrossCallReturnLabel_53, ??CrossCallReturnLabel_49, ??CrossCallReturnLabel_27
        CFI (cfiCond177) R6 load(1, XDATA, add(CFA_XSP16, literal(-12)))
        CFI (cfiCond177) VB load(1, XDATA, add(CFA_XSP16, literal(-11)))
        CFI (cfiCond177) V0 load(1, XDATA, add(CFA_XSP16, literal(-10)))
        CFI (cfiCond177) V1 load(1, XDATA, add(CFA_XSP16, literal(-9)))
        CFI (cfiCond177) V2 load(1, XDATA, add(CFA_XSP16, literal(-8)))
        CFI (cfiCond177) V3 load(1, XDATA, add(CFA_XSP16, literal(-7)))
        CFI (cfiCond177) R7 load(1, XDATA, add(CFA_XSP16, literal(-6)))
        CFI (cfiCond177) ?RET_LOW load(1, XDATA, add(CFA_XSP16, literal(-5)))
        CFI (cfiCond177) ?RET_HIGH load(1, XDATA, add(CFA_XSP16, literal(-4)))
        CFI (cfiCond177) ?BRET_EXT load(1, XDATA, add(CFA_XSP16, literal(-3)))
        CFI (cfiCond177) DPL0 load(1, XDATA, add(CFA_XSP16, literal(-2)))
        CFI (cfiCond177) DPH0 load(1, XDATA, add(CFA_XSP16, literal(-1)))
        CFI (cfiCond177) CFA_SP SP+0
        CFI (cfiCond177) CFA_XSP16 add(XSP16, 12)
        CFI Block cfiCond178 Using cfiCommon0
        CFI (cfiCond178) NoFunction
        CFI (cfiCond178) Conditional ??CrossCallReturnLabel_61, ??CrossCallReturnLabel_56, ??CrossCallReturnLabel_52, ??CrossCallReturnLabel_48, ??CrossCallReturnLabel_26
        CFI (cfiCond178) R6 load(1, XDATA, add(CFA_XSP16, literal(-12)))
        CFI (cfiCond178) VB load(1, XDATA, add(CFA_XSP16, literal(-11)))
        CFI (cfiCond178) V0 load(1, XDATA, add(CFA_XSP16, literal(-10)))
        CFI (cfiCond178) V1 load(1, XDATA, add(CFA_XSP16, literal(-9)))
        CFI (cfiCond178) V2 load(1, XDATA, add(CFA_XSP16, literal(-8)))
        CFI (cfiCond178) V3 load(1, XDATA, add(CFA_XSP16, literal(-7)))
        CFI (cfiCond178) R7 load(1, XDATA, add(CFA_XSP16, literal(-6)))
        CFI (cfiCond178) ?RET_LOW load(1, XDATA, add(CFA_XSP16, literal(-5)))
        CFI (cfiCond178) ?RET_HIGH load(1, XDATA, add(CFA_XSP16, literal(-4)))
        CFI (cfiCond178) ?BRET_EXT load(1, XDATA, add(CFA_XSP16, literal(-3)))
        CFI (cfiCond178) DPL0 load(1, XDATA, add(CFA_XSP16, literal(-2)))
        CFI (cfiCond178) DPH0 load(1, XDATA, add(CFA_XSP16, literal(-1)))
        CFI (cfiCond178) CFA_SP SP+0
        CFI (cfiCond178) CFA_XSP16 add(XSP16, 12)
        CFI Block cfiCond179 Using cfiCommon0
        CFI (cfiCond179) NoFunction
        CFI (cfiCond179) Conditional ??CrossCallReturnLabel_61, ??CrossCallReturnLabel_56, ??CrossCallReturnLabel_52, ??CrossCallReturnLabel_48, ??CrossCallReturnLabel_27
        CFI (cfiCond179) R6 load(1, XDATA, add(CFA_XSP16, literal(-12)))
        CFI (cfiCond179) VB load(1, XDATA, add(CFA_XSP16, literal(-11)))
        CFI (cfiCond179) V0 load(1, XDATA, add(CFA_XSP16, literal(-10)))
        CFI (cfiCond179) V1 load(1, XDATA, add(CFA_XSP16, literal(-9)))
        CFI (cfiCond179) V2 load(1, XDATA, add(CFA_XSP16, literal(-8)))
        CFI (cfiCond179) V3 load(1, XDATA, add(CFA_XSP16, literal(-7)))
        CFI (cfiCond179) R7 load(1, XDATA, add(CFA_XSP16, literal(-6)))
        CFI (cfiCond179) ?RET_LOW load(1, XDATA, add(CFA_XSP16, literal(-5)))
        CFI (cfiCond179) ?RET_HIGH load(1, XDATA, add(CFA_XSP16, literal(-4)))
        CFI (cfiCond179) ?BRET_EXT load(1, XDATA, add(CFA_XSP16, literal(-3)))
        CFI (cfiCond179) DPL0 load(1, XDATA, add(CFA_XSP16, literal(-2)))
        CFI (cfiCond179) DPH0 load(1, XDATA, add(CFA_XSP16, literal(-1)))
        CFI (cfiCond179) CFA_SP SP+0
        CFI (cfiCond179) CFA_XSP16 add(XSP16, 12)
        CFI Block cfiCond180 Using cfiCommon0
        CFI (cfiCond180) NoFunction
        CFI (cfiCond180) Conditional ??CrossCallReturnLabel_61, ??CrossCallReturnLabel_56, ??CrossCallReturnLabel_52, ??CrossCallReturnLabel_49, ??CrossCallReturnLabel_26
        CFI (cfiCond180) R6 load(1, XDATA, add(CFA_XSP16, literal(-12)))
        CFI (cfiCond180) VB load(1, XDATA, add(CFA_XSP16, literal(-11)))
        CFI (cfiCond180) V0 load(1, XDATA, add(CFA_XSP16, literal(-10)))
        CFI (cfiCond180) V1 load(1, XDATA, add(CFA_XSP16, literal(-9)))
        CFI (cfiCond180) V2 load(1, XDATA, add(CFA_XSP16, literal(-8)))
        CFI (cfiCond180) V3 load(1, XDATA, add(CFA_XSP16, literal(-7)))
        CFI (cfiCond180) R7 load(1, XDATA, add(CFA_XSP16, literal(-6)))
        CFI (cfiCond180) ?RET_LOW load(1, XDATA, add(CFA_XSP16, literal(-5)))
        CFI (cfiCond180) ?RET_HIGH load(1, XDATA, add(CFA_XSP16, literal(-4)))
        CFI (cfiCond180) ?BRET_EXT load(1, XDATA, add(CFA_XSP16, literal(-3)))
        CFI (cfiCond180) DPL0 load(1, XDATA, add(CFA_XSP16, literal(-2)))
        CFI (cfiCond180) DPH0 load(1, XDATA, add(CFA_XSP16, literal(-1)))
        CFI (cfiCond180) CFA_SP SP+0
        CFI (cfiCond180) CFA_XSP16 add(XSP16, 12)
        CFI Block cfiCond181 Using cfiCommon0
        CFI (cfiCond181) NoFunction
        CFI (cfiCond181) Conditional ??CrossCallReturnLabel_61, ??CrossCallReturnLabel_56, ??CrossCallReturnLabel_52, ??CrossCallReturnLabel_49, ??CrossCallReturnLabel_27
        CFI (cfiCond181) R6 load(1, XDATA, add(CFA_XSP16, literal(-12)))
        CFI (cfiCond181) VB load(1, XDATA, add(CFA_XSP16, literal(-11)))
        CFI (cfiCond181) V0 load(1, XDATA, add(CFA_XSP16, literal(-10)))
        CFI (cfiCond181) V1 load(1, XDATA, add(CFA_XSP16, literal(-9)))
        CFI (cfiCond181) V2 load(1, XDATA, add(CFA_XSP16, literal(-8)))
        CFI (cfiCond181) V3 load(1, XDATA, add(CFA_XSP16, literal(-7)))
        CFI (cfiCond181) R7 load(1, XDATA, add(CFA_XSP16, literal(-6)))
        CFI (cfiCond181) ?RET_LOW load(1, XDATA, add(CFA_XSP16, literal(-5)))
        CFI (cfiCond181) ?RET_HIGH load(1, XDATA, add(CFA_XSP16, literal(-4)))
        CFI (cfiCond181) ?BRET_EXT load(1, XDATA, add(CFA_XSP16, literal(-3)))
        CFI (cfiCond181) DPL0 load(1, XDATA, add(CFA_XSP16, literal(-2)))
        CFI (cfiCond181) DPH0 load(1, XDATA, add(CFA_XSP16, literal(-1)))
        CFI (cfiCond181) CFA_SP SP+0
        CFI (cfiCond181) CFA_XSP16 add(XSP16, 12)
        CFI Block cfiCond182 Using cfiCommon0
        CFI (cfiCond182) NoFunction
        CFI (cfiCond182) Conditional ??CrossCallReturnLabel_61, ??CrossCallReturnLabel_56, ??CrossCallReturnLabel_53, ??CrossCallReturnLabel_48, ??CrossCallReturnLabel_26
        CFI (cfiCond182) R6 load(1, XDATA, add(CFA_XSP16, literal(-12)))
        CFI (cfiCond182) VB load(1, XDATA, add(CFA_XSP16, literal(-11)))
        CFI (cfiCond182) V0 load(1, XDATA, add(CFA_XSP16, literal(-10)))
        CFI (cfiCond182) V1 load(1, XDATA, add(CFA_XSP16, literal(-9)))
        CFI (cfiCond182) V2 load(1, XDATA, add(CFA_XSP16, literal(-8)))
        CFI (cfiCond182) V3 load(1, XDATA, add(CFA_XSP16, literal(-7)))
        CFI (cfiCond182) R7 load(1, XDATA, add(CFA_XSP16, literal(-6)))
        CFI (cfiCond182) ?RET_LOW load(1, XDATA, add(CFA_XSP16, literal(-5)))
        CFI (cfiCond182) ?RET_HIGH load(1, XDATA, add(CFA_XSP16, literal(-4)))
        CFI (cfiCond182) ?BRET_EXT load(1, XDATA, add(CFA_XSP16, literal(-3)))
        CFI (cfiCond182) DPL0 load(1, XDATA, add(CFA_XSP16, literal(-2)))
        CFI (cfiCond182) DPH0 load(1, XDATA, add(CFA_XSP16, literal(-1)))
        CFI (cfiCond182) CFA_SP SP+0
        CFI (cfiCond182) CFA_XSP16 add(XSP16, 12)
        CFI Block cfiCond183 Using cfiCommon0
        CFI (cfiCond183) NoFunction
        CFI (cfiCond183) Conditional ??CrossCallReturnLabel_61, ??CrossCallReturnLabel_56, ??CrossCallReturnLabel_53, ??CrossCallReturnLabel_48, ??CrossCallReturnLabel_27
        CFI (cfiCond183) R6 load(1, XDATA, add(CFA_XSP16, literal(-12)))
        CFI (cfiCond183) VB load(1, XDATA, add(CFA_XSP16, literal(-11)))
        CFI (cfiCond183) V0 load(1, XDATA, add(CFA_XSP16, literal(-10)))
        CFI (cfiCond183) V1 load(1, XDATA, add(CFA_XSP16, literal(-9)))
        CFI (cfiCond183) V2 load(1, XDATA, add(CFA_XSP16, literal(-8)))
        CFI (cfiCond183) V3 load(1, XDATA, add(CFA_XSP16, literal(-7)))
        CFI (cfiCond183) R7 load(1, XDATA, add(CFA_XSP16, literal(-6)))
        CFI (cfiCond183) ?RET_LOW load(1, XDATA, add(CFA_XSP16, literal(-5)))
        CFI (cfiCond183) ?RET_HIGH load(1, XDATA, add(CFA_XSP16, literal(-4)))
        CFI (cfiCond183) ?BRET_EXT load(1, XDATA, add(CFA_XSP16, literal(-3)))
        CFI (cfiCond183) DPL0 load(1, XDATA, add(CFA_XSP16, literal(-2)))
        CFI (cfiCond183) DPH0 load(1, XDATA, add(CFA_XSP16, literal(-1)))
        CFI (cfiCond183) CFA_SP SP+0
        CFI (cfiCond183) CFA_XSP16 add(XSP16, 12)
        CFI Block cfiCond184 Using cfiCommon0
        CFI (cfiCond184) NoFunction
        CFI (cfiCond184) Conditional ??CrossCallReturnLabel_61, ??CrossCallReturnLabel_56, ??CrossCallReturnLabel_53, ??CrossCallReturnLabel_49, ??CrossCallReturnLabel_26
        CFI (cfiCond184) R6 load(1, XDATA, add(CFA_XSP16, literal(-12)))
        CFI (cfiCond184) VB load(1, XDATA, add(CFA_XSP16, literal(-11)))
        CFI (cfiCond184) V0 load(1, XDATA, add(CFA_XSP16, literal(-10)))
        CFI (cfiCond184) V1 load(1, XDATA, add(CFA_XSP16, literal(-9)))
        CFI (cfiCond184) V2 load(1, XDATA, add(CFA_XSP16, literal(-8)))
        CFI (cfiCond184) V3 load(1, XDATA, add(CFA_XSP16, literal(-7)))
        CFI (cfiCond184) R7 load(1, XDATA, add(CFA_XSP16, literal(-6)))
        CFI (cfiCond184) ?RET_LOW load(1, XDATA, add(CFA_XSP16, literal(-5)))
        CFI (cfiCond184) ?RET_HIGH load(1, XDATA, add(CFA_XSP16, literal(-4)))
        CFI (cfiCond184) ?BRET_EXT load(1, XDATA, add(CFA_XSP16, literal(-3)))
        CFI (cfiCond184) DPL0 load(1, XDATA, add(CFA_XSP16, literal(-2)))
        CFI (cfiCond184) DPH0 load(1, XDATA, add(CFA_XSP16, literal(-1)))
        CFI (cfiCond184) CFA_SP SP+0
        CFI (cfiCond184) CFA_XSP16 add(XSP16, 12)
        CFI Block cfiCond185 Using cfiCommon0
        CFI (cfiCond185) NoFunction
        CFI (cfiCond185) Conditional ??CrossCallReturnLabel_61, ??CrossCallReturnLabel_56, ??CrossCallReturnLabel_53, ??CrossCallReturnLabel_49, ??CrossCallReturnLabel_27
        CFI (cfiCond185) R6 load(1, XDATA, add(CFA_XSP16, literal(-12)))
        CFI (cfiCond185) VB load(1, XDATA, add(CFA_XSP16, literal(-11)))
        CFI (cfiCond185) V0 load(1, XDATA, add(CFA_XSP16, literal(-10)))
        CFI (cfiCond185) V1 load(1, XDATA, add(CFA_XSP16, literal(-9)))
        CFI (cfiCond185) V2 load(1, XDATA, add(CFA_XSP16, literal(-8)))
        CFI (cfiCond185) V3 load(1, XDATA, add(CFA_XSP16, literal(-7)))
        CFI (cfiCond185) R7 load(1, XDATA, add(CFA_XSP16, literal(-6)))
        CFI (cfiCond185) ?RET_LOW load(1, XDATA, add(CFA_XSP16, literal(-5)))
        CFI (cfiCond185) ?RET_HIGH load(1, XDATA, add(CFA_XSP16, literal(-4)))
        CFI (cfiCond185) ?BRET_EXT load(1, XDATA, add(CFA_XSP16, literal(-3)))
        CFI (cfiCond185) DPL0 load(1, XDATA, add(CFA_XSP16, literal(-2)))
        CFI (cfiCond185) DPH0 load(1, XDATA, add(CFA_XSP16, literal(-1)))
        CFI (cfiCond185) CFA_SP SP+0
        CFI (cfiCond185) CFA_XSP16 add(XSP16, 12)
        CFI Block cfiCond186 Using cfiCommon0
        CFI (cfiCond186) NoFunction
        CFI (cfiCond186) Conditional ??CrossCallReturnLabel_61, ??CrossCallReturnLabel_57, ??CrossCallReturnLabel_52, ??CrossCallReturnLabel_48, ??CrossCallReturnLabel_26
        CFI (cfiCond186) R6 load(1, XDATA, add(CFA_XSP16, literal(-12)))
        CFI (cfiCond186) VB load(1, XDATA, add(CFA_XSP16, literal(-11)))
        CFI (cfiCond186) V0 load(1, XDATA, add(CFA_XSP16, literal(-10)))
        CFI (cfiCond186) V1 load(1, XDATA, add(CFA_XSP16, literal(-9)))
        CFI (cfiCond186) V2 load(1, XDATA, add(CFA_XSP16, literal(-8)))
        CFI (cfiCond186) V3 load(1, XDATA, add(CFA_XSP16, literal(-7)))
        CFI (cfiCond186) R7 load(1, XDATA, add(CFA_XSP16, literal(-6)))
        CFI (cfiCond186) ?RET_LOW load(1, XDATA, add(CFA_XSP16, literal(-5)))
        CFI (cfiCond186) ?RET_HIGH load(1, XDATA, add(CFA_XSP16, literal(-4)))
        CFI (cfiCond186) ?BRET_EXT load(1, XDATA, add(CFA_XSP16, literal(-3)))
        CFI (cfiCond186) DPL0 load(1, XDATA, add(CFA_XSP16, literal(-2)))
        CFI (cfiCond186) DPH0 load(1, XDATA, add(CFA_XSP16, literal(-1)))
        CFI (cfiCond186) CFA_SP SP+0
        CFI (cfiCond186) CFA_XSP16 add(XSP16, 12)
        CFI Block cfiCond187 Using cfiCommon0
        CFI (cfiCond187) NoFunction
        CFI (cfiCond187) Conditional ??CrossCallReturnLabel_61, ??CrossCallReturnLabel_57, ??CrossCallReturnLabel_52, ??CrossCallReturnLabel_48, ??CrossCallReturnLabel_27
        CFI (cfiCond187) R6 load(1, XDATA, add(CFA_XSP16, literal(-12)))
        CFI (cfiCond187) VB load(1, XDATA, add(CFA_XSP16, literal(-11)))
        CFI (cfiCond187) V0 load(1, XDATA, add(CFA_XSP16, literal(-10)))
        CFI (cfiCond187) V1 load(1, XDATA, add(CFA_XSP16, literal(-9)))
        CFI (cfiCond187) V2 load(1, XDATA, add(CFA_XSP16, literal(-8)))
        CFI (cfiCond187) V3 load(1, XDATA, add(CFA_XSP16, literal(-7)))
        CFI (cfiCond187) R7 load(1, XDATA, add(CFA_XSP16, literal(-6)))
        CFI (cfiCond187) ?RET_LOW load(1, XDATA, add(CFA_XSP16, literal(-5)))
        CFI (cfiCond187) ?RET_HIGH load(1, XDATA, add(CFA_XSP16, literal(-4)))
        CFI (cfiCond187) ?BRET_EXT load(1, XDATA, add(CFA_XSP16, literal(-3)))
        CFI (cfiCond187) DPL0 load(1, XDATA, add(CFA_XSP16, literal(-2)))
        CFI (cfiCond187) DPH0 load(1, XDATA, add(CFA_XSP16, literal(-1)))
        CFI (cfiCond187) CFA_SP SP+0
        CFI (cfiCond187) CFA_XSP16 add(XSP16, 12)
        CFI Block cfiCond188 Using cfiCommon0
        CFI (cfiCond188) NoFunction
        CFI (cfiCond188) Conditional ??CrossCallReturnLabel_61, ??CrossCallReturnLabel_57, ??CrossCallReturnLabel_52, ??CrossCallReturnLabel_49, ??CrossCallReturnLabel_26
        CFI (cfiCond188) R6 load(1, XDATA, add(CFA_XSP16, literal(-12)))
        CFI (cfiCond188) VB load(1, XDATA, add(CFA_XSP16, literal(-11)))
        CFI (cfiCond188) V0 load(1, XDATA, add(CFA_XSP16, literal(-10)))
        CFI (cfiCond188) V1 load(1, XDATA, add(CFA_XSP16, literal(-9)))
        CFI (cfiCond188) V2 load(1, XDATA, add(CFA_XSP16, literal(-8)))
        CFI (cfiCond188) V3 load(1, XDATA, add(CFA_XSP16, literal(-7)))
        CFI (cfiCond188) R7 load(1, XDATA, add(CFA_XSP16, literal(-6)))
        CFI (cfiCond188) ?RET_LOW load(1, XDATA, add(CFA_XSP16, literal(-5)))
        CFI (cfiCond188) ?RET_HIGH load(1, XDATA, add(CFA_XSP16, literal(-4)))
        CFI (cfiCond188) ?BRET_EXT load(1, XDATA, add(CFA_XSP16, literal(-3)))
        CFI (cfiCond188) DPL0 load(1, XDATA, add(CFA_XSP16, literal(-2)))
        CFI (cfiCond188) DPH0 load(1, XDATA, add(CFA_XSP16, literal(-1)))
        CFI (cfiCond188) CFA_SP SP+0
        CFI (cfiCond188) CFA_XSP16 add(XSP16, 12)
        CFI Block cfiCond189 Using cfiCommon0
        CFI (cfiCond189) NoFunction
        CFI (cfiCond189) Conditional ??CrossCallReturnLabel_61, ??CrossCallReturnLabel_57, ??CrossCallReturnLabel_52, ??CrossCallReturnLabel_49, ??CrossCallReturnLabel_27
        CFI (cfiCond189) R6 load(1, XDATA, add(CFA_XSP16, literal(-12)))
        CFI (cfiCond189) VB load(1, XDATA, add(CFA_XSP16, literal(-11)))
        CFI (cfiCond189) V0 load(1, XDATA, add(CFA_XSP16, literal(-10)))
        CFI (cfiCond189) V1 load(1, XDATA, add(CFA_XSP16, literal(-9)))
        CFI (cfiCond189) V2 load(1, XDATA, add(CFA_XSP16, literal(-8)))
        CFI (cfiCond189) V3 load(1, XDATA, add(CFA_XSP16, literal(-7)))
        CFI (cfiCond189) R7 load(1, XDATA, add(CFA_XSP16, literal(-6)))
        CFI (cfiCond189) ?RET_LOW load(1, XDATA, add(CFA_XSP16, literal(-5)))
        CFI (cfiCond189) ?RET_HIGH load(1, XDATA, add(CFA_XSP16, literal(-4)))
        CFI (cfiCond189) ?BRET_EXT load(1, XDATA, add(CFA_XSP16, literal(-3)))
        CFI (cfiCond189) DPL0 load(1, XDATA, add(CFA_XSP16, literal(-2)))
        CFI (cfiCond189) DPH0 load(1, XDATA, add(CFA_XSP16, literal(-1)))
        CFI (cfiCond189) CFA_SP SP+0
        CFI (cfiCond189) CFA_XSP16 add(XSP16, 12)
        CFI Block cfiCond190 Using cfiCommon0
        CFI (cfiCond190) NoFunction
        CFI (cfiCond190) Conditional ??CrossCallReturnLabel_61, ??CrossCallReturnLabel_57, ??CrossCallReturnLabel_53, ??CrossCallReturnLabel_48, ??CrossCallReturnLabel_26
        CFI (cfiCond190) R6 load(1, XDATA, add(CFA_XSP16, literal(-12)))
        CFI (cfiCond190) VB load(1, XDATA, add(CFA_XSP16, literal(-11)))
        CFI (cfiCond190) V0 load(1, XDATA, add(CFA_XSP16, literal(-10)))
        CFI (cfiCond190) V1 load(1, XDATA, add(CFA_XSP16, literal(-9)))
        CFI (cfiCond190) V2 load(1, XDATA, add(CFA_XSP16, literal(-8)))
        CFI (cfiCond190) V3 load(1, XDATA, add(CFA_XSP16, literal(-7)))
        CFI (cfiCond190) R7 load(1, XDATA, add(CFA_XSP16, literal(-6)))
        CFI (cfiCond190) ?RET_LOW load(1, XDATA, add(CFA_XSP16, literal(-5)))
        CFI (cfiCond190) ?RET_HIGH load(1, XDATA, add(CFA_XSP16, literal(-4)))
        CFI (cfiCond190) ?BRET_EXT load(1, XDATA, add(CFA_XSP16, literal(-3)))
        CFI (cfiCond190) DPL0 load(1, XDATA, add(CFA_XSP16, literal(-2)))
        CFI (cfiCond190) DPH0 load(1, XDATA, add(CFA_XSP16, literal(-1)))
        CFI (cfiCond190) CFA_SP SP+0
        CFI (cfiCond190) CFA_XSP16 add(XSP16, 12)
        CFI Block cfiCond191 Using cfiCommon0
        CFI (cfiCond191) NoFunction
        CFI (cfiCond191) Conditional ??CrossCallReturnLabel_61, ??CrossCallReturnLabel_57, ??CrossCallReturnLabel_53, ??CrossCallReturnLabel_48, ??CrossCallReturnLabel_27
        CFI (cfiCond191) R6 load(1, XDATA, add(CFA_XSP16, literal(-12)))
        CFI (cfiCond191) VB load(1, XDATA, add(CFA_XSP16, literal(-11)))
        CFI (cfiCond191) V0 load(1, XDATA, add(CFA_XSP16, literal(-10)))
        CFI (cfiCond191) V1 load(1, XDATA, add(CFA_XSP16, literal(-9)))
        CFI (cfiCond191) V2 load(1, XDATA, add(CFA_XSP16, literal(-8)))
        CFI (cfiCond191) V3 load(1, XDATA, add(CFA_XSP16, literal(-7)))
        CFI (cfiCond191) R7 load(1, XDATA, add(CFA_XSP16, literal(-6)))
        CFI (cfiCond191) ?RET_LOW load(1, XDATA, add(CFA_XSP16, literal(-5)))
        CFI (cfiCond191) ?RET_HIGH load(1, XDATA, add(CFA_XSP16, literal(-4)))
        CFI (cfiCond191) ?BRET_EXT load(1, XDATA, add(CFA_XSP16, literal(-3)))
        CFI (cfiCond191) DPL0 load(1, XDATA, add(CFA_XSP16, literal(-2)))
        CFI (cfiCond191) DPH0 load(1, XDATA, add(CFA_XSP16, literal(-1)))
        CFI (cfiCond191) CFA_SP SP+0
        CFI (cfiCond191) CFA_XSP16 add(XSP16, 12)
        CFI Block cfiCond192 Using cfiCommon0
        CFI (cfiCond192) NoFunction
        CFI (cfiCond192) Conditional ??CrossCallReturnLabel_61, ??CrossCallReturnLabel_57, ??CrossCallReturnLabel_53, ??CrossCallReturnLabel_49, ??CrossCallReturnLabel_26
        CFI (cfiCond192) R6 load(1, XDATA, add(CFA_XSP16, literal(-12)))
        CFI (cfiCond192) VB load(1, XDATA, add(CFA_XSP16, literal(-11)))
        CFI (cfiCond192) V0 load(1, XDATA, add(CFA_XSP16, literal(-10)))
        CFI (cfiCond192) V1 load(1, XDATA, add(CFA_XSP16, literal(-9)))
        CFI (cfiCond192) V2 load(1, XDATA, add(CFA_XSP16, literal(-8)))
        CFI (cfiCond192) V3 load(1, XDATA, add(CFA_XSP16, literal(-7)))
        CFI (cfiCond192) R7 load(1, XDATA, add(CFA_XSP16, literal(-6)))
        CFI (cfiCond192) ?RET_LOW load(1, XDATA, add(CFA_XSP16, literal(-5)))
        CFI (cfiCond192) ?RET_HIGH load(1, XDATA, add(CFA_XSP16, literal(-4)))
        CFI (cfiCond192) ?BRET_EXT load(1, XDATA, add(CFA_XSP16, literal(-3)))
        CFI (cfiCond192) DPL0 load(1, XDATA, add(CFA_XSP16, literal(-2)))
        CFI (cfiCond192) DPH0 load(1, XDATA, add(CFA_XSP16, literal(-1)))
        CFI (cfiCond192) CFA_SP SP+0
        CFI (cfiCond192) CFA_XSP16 add(XSP16, 12)
        CFI Block cfiCond193 Using cfiCommon0
        CFI (cfiCond193) NoFunction
        CFI (cfiCond193) Conditional ??CrossCallReturnLabel_61, ??CrossCallReturnLabel_57, ??CrossCallReturnLabel_53, ??CrossCallReturnLabel_49, ??CrossCallReturnLabel_27
        CFI (cfiCond193) R6 load(1, XDATA, add(CFA_XSP16, literal(-12)))
        CFI (cfiCond193) VB load(1, XDATA, add(CFA_XSP16, literal(-11)))
        CFI (cfiCond193) V0 load(1, XDATA, add(CFA_XSP16, literal(-10)))
        CFI (cfiCond193) V1 load(1, XDATA, add(CFA_XSP16, literal(-9)))
        CFI (cfiCond193) V2 load(1, XDATA, add(CFA_XSP16, literal(-8)))
        CFI (cfiCond193) V3 load(1, XDATA, add(CFA_XSP16, literal(-7)))
        CFI (cfiCond193) R7 load(1, XDATA, add(CFA_XSP16, literal(-6)))
        CFI (cfiCond193) ?RET_LOW load(1, XDATA, add(CFA_XSP16, literal(-5)))
        CFI (cfiCond193) ?RET_HIGH load(1, XDATA, add(CFA_XSP16, literal(-4)))
        CFI (cfiCond193) ?BRET_EXT load(1, XDATA, add(CFA_XSP16, literal(-3)))
        CFI (cfiCond193) DPL0 load(1, XDATA, add(CFA_XSP16, literal(-2)))
        CFI (cfiCond193) DPH0 load(1, XDATA, add(CFA_XSP16, literal(-1)))
        CFI (cfiCond193) CFA_SP SP+0
        CFI (cfiCond193) CFA_XSP16 add(XSP16, 12)
        CFI Block cfiPicker194 Using cfiCommon1
        CFI (cfiPicker194) NoFunction
        CFI (cfiPicker194) Picker
        LCALL   ?Subroutine34 & 0xFFFF
??CrossCallReturnLabel_62:
        ; Setup parameters for call to function SendByte
        ; Setup parameters for call to function SendByte
        ; Setup parameters for call to function SendByte
        ; Setup parameters for call to function SendByte
        ; Setup parameters for call to function SendByte
        ; Setup parameters for call to function SendByte
        ; Setup parameters for call to function SendByte
        ; Setup parameters for call to function SendByte
        ; Setup parameters for call to function SendByte
        ; Setup parameters for call to function SendByte
        ; Setup parameters for call to function SendByte
        ; Setup parameters for call to function SendByte
        ; Setup parameters for call to function SendByte
        ; Setup parameters for call to function SendByte
        ; Setup parameters for call to function SendByte
        ; Setup parameters for call to function SendByte
        ; Setup parameters for call to function SendByte
        ; Setup parameters for call to function SendByte
        ; Setup parameters for call to function SendByte
        ; Setup parameters for call to function SendByte
        ; Setup parameters for call to function SendByte
        ; Setup parameters for call to function SendByte
        ; Setup parameters for call to function SendByte
        ; Setup parameters for call to function SendByte
        ; Setup parameters for call to function SendByte
        ; Setup parameters for call to function SendByte
        ; Setup parameters for call to function SendByte
        ; Setup parameters for call to function SendByte
        ; Setup parameters for call to function SendByte
        ; Setup parameters for call to function SendByte
        ; Setup parameters for call to function SendByte
        ; Setup parameters for call to function SendByte
        LCALL   ?Subroutine34 & 0xFFFF
??CrossCallReturnLabel_63:
        RET
        CFI EndBlock cfiCond162
        CFI EndBlock cfiCond163
        CFI EndBlock cfiCond164
        CFI EndBlock cfiCond165
        CFI EndBlock cfiCond166
        CFI EndBlock cfiCond167
        CFI EndBlock cfiCond168
        CFI EndBlock cfiCond169
        CFI EndBlock cfiCond170
        CFI EndBlock cfiCond171
        CFI EndBlock cfiCond172
        CFI EndBlock cfiCond173
        CFI EndBlock cfiCond174
        CFI EndBlock cfiCond175
        CFI EndBlock cfiCond176
        CFI EndBlock cfiCond177
        CFI EndBlock cfiCond178
        CFI EndBlock cfiCond179
        CFI EndBlock cfiCond180
        CFI EndBlock cfiCond181
        CFI EndBlock cfiCond182
        CFI EndBlock cfiCond183
        CFI EndBlock cfiCond184
        CFI EndBlock cfiCond185
        CFI EndBlock cfiCond186
        CFI EndBlock cfiCond187
        CFI EndBlock cfiCond188
        CFI EndBlock cfiCond189
        CFI EndBlock cfiCond190
        CFI EndBlock cfiCond191
        CFI EndBlock cfiCond192
        CFI EndBlock cfiCond193
        CFI EndBlock cfiPicker194

        RSEG BANKED_CODE:CODE:NOROOT(0)
?Subroutine34:
        CFI Block cfiCond195 Using cfiCommon0
        CFI NoFunction
        CFI Conditional ??CrossCallReturnLabel_62, ??CrossCallReturnLabel_60, ??CrossCallReturnLabel_56, ??CrossCallReturnLabel_52, ??CrossCallReturnLabel_48, ??CrossCallReturnLabel_26
        CFI R6 load(1, XDATA, add(CFA_XSP16, literal(-12)))
        CFI VB load(1, XDATA, add(CFA_XSP16, literal(-11)))
        CFI V0 load(1, XDATA, add(CFA_XSP16, literal(-10)))
        CFI V1 load(1, XDATA, add(CFA_XSP16, literal(-9)))
        CFI V2 load(1, XDATA, add(CFA_XSP16, literal(-8)))
        CFI V3 load(1, XDATA, add(CFA_XSP16, literal(-7)))
        CFI R7 load(1, XDATA, add(CFA_XSP16, literal(-6)))
        CFI ?RET_LOW load(1, XDATA, add(CFA_XSP16, literal(-5)))
        CFI ?RET_HIGH load(1, XDATA, add(CFA_XSP16, literal(-4)))
        CFI ?BRET_EXT load(1, XDATA, add(CFA_XSP16, literal(-3)))
        CFI DPL0 load(1, XDATA, add(CFA_XSP16, literal(-2)))
        CFI DPH0 load(1, XDATA, add(CFA_XSP16, literal(-1)))
        CFI CFA_SP SP+0
        CFI CFA_XSP16 add(XSP16, 12)
        CFI Block cfiCond196 Using cfiCommon0
        CFI (cfiCond196) NoFunction
        CFI (cfiCond196) Conditional ??CrossCallReturnLabel_62, ??CrossCallReturnLabel_60, ??CrossCallReturnLabel_56, ??CrossCallReturnLabel_52, ??CrossCallReturnLabel_48, ??CrossCallReturnLabel_27
        CFI (cfiCond196) R6 load(1, XDATA, add(CFA_XSP16, literal(-12)))
        CFI (cfiCond196) VB load(1, XDATA, add(CFA_XSP16, literal(-11)))
        CFI (cfiCond196) V0 load(1, XDATA, add(CFA_XSP16, literal(-10)))
        CFI (cfiCond196) V1 load(1, XDATA, add(CFA_XSP16, literal(-9)))
        CFI (cfiCond196) V2 load(1, XDATA, add(CFA_XSP16, literal(-8)))
        CFI (cfiCond196) V3 load(1, XDATA, add(CFA_XSP16, literal(-7)))
        CFI (cfiCond196) R7 load(1, XDATA, add(CFA_XSP16, literal(-6)))
        CFI (cfiCond196) ?RET_LOW load(1, XDATA, add(CFA_XSP16, literal(-5)))
        CFI (cfiCond196) ?RET_HIGH load(1, XDATA, add(CFA_XSP16, literal(-4)))
        CFI (cfiCond196) ?BRET_EXT load(1, XDATA, add(CFA_XSP16, literal(-3)))
        CFI (cfiCond196) DPL0 load(1, XDATA, add(CFA_XSP16, literal(-2)))
        CFI (cfiCond196) DPH0 load(1, XDATA, add(CFA_XSP16, literal(-1)))
        CFI (cfiCond196) CFA_SP SP+0
        CFI (cfiCond196) CFA_XSP16 add(XSP16, 12)
        CFI Block cfiCond197 Using cfiCommon0
        CFI (cfiCond197) NoFunction
        CFI (cfiCond197) Conditional ??CrossCallReturnLabel_62, ??CrossCallReturnLabel_60, ??CrossCallReturnLabel_56, ??CrossCallReturnLabel_52, ??CrossCallReturnLabel_49, ??CrossCallReturnLabel_26
        CFI (cfiCond197) R6 load(1, XDATA, add(CFA_XSP16, literal(-12)))
        CFI (cfiCond197) VB load(1, XDATA, add(CFA_XSP16, literal(-11)))
        CFI (cfiCond197) V0 load(1, XDATA, add(CFA_XSP16, literal(-10)))
        CFI (cfiCond197) V1 load(1, XDATA, add(CFA_XSP16, literal(-9)))
        CFI (cfiCond197) V2 load(1, XDATA, add(CFA_XSP16, literal(-8)))
        CFI (cfiCond197) V3 load(1, XDATA, add(CFA_XSP16, literal(-7)))
        CFI (cfiCond197) R7 load(1, XDATA, add(CFA_XSP16, literal(-6)))
        CFI (cfiCond197) ?RET_LOW load(1, XDATA, add(CFA_XSP16, literal(-5)))
        CFI (cfiCond197) ?RET_HIGH load(1, XDATA, add(CFA_XSP16, literal(-4)))
        CFI (cfiCond197) ?BRET_EXT load(1, XDATA, add(CFA_XSP16, literal(-3)))
        CFI (cfiCond197) DPL0 load(1, XDATA, add(CFA_XSP16, literal(-2)))
        CFI (cfiCond197) DPH0 load(1, XDATA, add(CFA_XSP16, literal(-1)))
        CFI (cfiCond197) CFA_SP SP+0
        CFI (cfiCond197) CFA_XSP16 add(XSP16, 12)
        CFI Block cfiCond198 Using cfiCommon0
        CFI (cfiCond198) NoFunction
        CFI (cfiCond198) Conditional ??CrossCallReturnLabel_62, ??CrossCallReturnLabel_60, ??CrossCallReturnLabel_56, ??CrossCallReturnLabel_52, ??CrossCallReturnLabel_49, ??CrossCallReturnLabel_27
        CFI (cfiCond198) R6 load(1, XDATA, add(CFA_XSP16, literal(-12)))
        CFI (cfiCond198) VB load(1, XDATA, add(CFA_XSP16, literal(-11)))
        CFI (cfiCond198) V0 load(1, XDATA, add(CFA_XSP16, literal(-10)))
        CFI (cfiCond198) V1 load(1, XDATA, add(CFA_XSP16, literal(-9)))
        CFI (cfiCond198) V2 load(1, XDATA, add(CFA_XSP16, literal(-8)))
        CFI (cfiCond198) V3 load(1, XDATA, add(CFA_XSP16, literal(-7)))
        CFI (cfiCond198) R7 load(1, XDATA, add(CFA_XSP16, literal(-6)))
        CFI (cfiCond198) ?RET_LOW load(1, XDATA, add(CFA_XSP16, literal(-5)))
        CFI (cfiCond198) ?RET_HIGH load(1, XDATA, add(CFA_XSP16, literal(-4)))
        CFI (cfiCond198) ?BRET_EXT load(1, XDATA, add(CFA_XSP16, literal(-3)))
        CFI (cfiCond198) DPL0 load(1, XDATA, add(CFA_XSP16, literal(-2)))
        CFI (cfiCond198) DPH0 load(1, XDATA, add(CFA_XSP16, literal(-1)))
        CFI (cfiCond198) CFA_SP SP+0
        CFI (cfiCond198) CFA_XSP16 add(XSP16, 12)
        CFI Block cfiCond199 Using cfiCommon0
        CFI (cfiCond199) NoFunction
        CFI (cfiCond199) Conditional ??CrossCallReturnLabel_62, ??CrossCallReturnLabel_60, ??CrossCallReturnLabel_56, ??CrossCallReturnLabel_53, ??CrossCallReturnLabel_48, ??CrossCallReturnLabel_26
        CFI (cfiCond199) R6 load(1, XDATA, add(CFA_XSP16, literal(-12)))
        CFI (cfiCond199) VB load(1, XDATA, add(CFA_XSP16, literal(-11)))
        CFI (cfiCond199) V0 load(1, XDATA, add(CFA_XSP16, literal(-10)))
        CFI (cfiCond199) V1 load(1, XDATA, add(CFA_XSP16, literal(-9)))
        CFI (cfiCond199) V2 load(1, XDATA, add(CFA_XSP16, literal(-8)))
        CFI (cfiCond199) V3 load(1, XDATA, add(CFA_XSP16, literal(-7)))
        CFI (cfiCond199) R7 load(1, XDATA, add(CFA_XSP16, literal(-6)))
        CFI (cfiCond199) ?RET_LOW load(1, XDATA, add(CFA_XSP16, literal(-5)))
        CFI (cfiCond199) ?RET_HIGH load(1, XDATA, add(CFA_XSP16, literal(-4)))
        CFI (cfiCond199) ?BRET_EXT load(1, XDATA, add(CFA_XSP16, literal(-3)))
        CFI (cfiCond199) DPL0 load(1, XDATA, add(CFA_XSP16, literal(-2)))
        CFI (cfiCond199) DPH0 load(1, XDATA, add(CFA_XSP16, literal(-1)))
        CFI (cfiCond199) CFA_SP SP+0
        CFI (cfiCond199) CFA_XSP16 add(XSP16, 12)
        CFI Block cfiCond200 Using cfiCommon0
        CFI (cfiCond200) NoFunction
        CFI (cfiCond200) Conditional ??CrossCallReturnLabel_62, ??CrossCallReturnLabel_60, ??CrossCallReturnLabel_56, ??CrossCallReturnLabel_53, ??CrossCallReturnLabel_48, ??CrossCallReturnLabel_27
        CFI (cfiCond200) R6 load(1, XDATA, add(CFA_XSP16, literal(-12)))
        CFI (cfiCond200) VB load(1, XDATA, add(CFA_XSP16, literal(-11)))
        CFI (cfiCond200) V0 load(1, XDATA, add(CFA_XSP16, literal(-10)))
        CFI (cfiCond200) V1 load(1, XDATA, add(CFA_XSP16, literal(-9)))
        CFI (cfiCond200) V2 load(1, XDATA, add(CFA_XSP16, literal(-8)))
        CFI (cfiCond200) V3 load(1, XDATA, add(CFA_XSP16, literal(-7)))
        CFI (cfiCond200) R7 load(1, XDATA, add(CFA_XSP16, literal(-6)))
        CFI (cfiCond200) ?RET_LOW load(1, XDATA, add(CFA_XSP16, literal(-5)))
        CFI (cfiCond200) ?RET_HIGH load(1, XDATA, add(CFA_XSP16, literal(-4)))
        CFI (cfiCond200) ?BRET_EXT load(1, XDATA, add(CFA_XSP16, literal(-3)))
        CFI (cfiCond200) DPL0 load(1, XDATA, add(CFA_XSP16, literal(-2)))
        CFI (cfiCond200) DPH0 load(1, XDATA, add(CFA_XSP16, literal(-1)))
        CFI (cfiCond200) CFA_SP SP+0
        CFI (cfiCond200) CFA_XSP16 add(XSP16, 12)
        CFI Block cfiCond201 Using cfiCommon0
        CFI (cfiCond201) NoFunction
        CFI (cfiCond201) Conditional ??CrossCallReturnLabel_62, ??CrossCallReturnLabel_60, ??CrossCallReturnLabel_56, ??CrossCallReturnLabel_53, ??CrossCallReturnLabel_49, ??CrossCallReturnLabel_26
        CFI (cfiCond201) R6 load(1, XDATA, add(CFA_XSP16, literal(-12)))
        CFI (cfiCond201) VB load(1, XDATA, add(CFA_XSP16, literal(-11)))
        CFI (cfiCond201) V0 load(1, XDATA, add(CFA_XSP16, literal(-10)))
        CFI (cfiCond201) V1 load(1, XDATA, add(CFA_XSP16, literal(-9)))
        CFI (cfiCond201) V2 load(1, XDATA, add(CFA_XSP16, literal(-8)))
        CFI (cfiCond201) V3 load(1, XDATA, add(CFA_XSP16, literal(-7)))
        CFI (cfiCond201) R7 load(1, XDATA, add(CFA_XSP16, literal(-6)))
        CFI (cfiCond201) ?RET_LOW load(1, XDATA, add(CFA_XSP16, literal(-5)))
        CFI (cfiCond201) ?RET_HIGH load(1, XDATA, add(CFA_XSP16, literal(-4)))
        CFI (cfiCond201) ?BRET_EXT load(1, XDATA, add(CFA_XSP16, literal(-3)))
        CFI (cfiCond201) DPL0 load(1, XDATA, add(CFA_XSP16, literal(-2)))
        CFI (cfiCond201) DPH0 load(1, XDATA, add(CFA_XSP16, literal(-1)))
        CFI (cfiCond201) CFA_SP SP+0
        CFI (cfiCond201) CFA_XSP16 add(XSP16, 12)
        CFI Block cfiCond202 Using cfiCommon0
        CFI (cfiCond202) NoFunction
        CFI (cfiCond202) Conditional ??CrossCallReturnLabel_62, ??CrossCallReturnLabel_60, ??CrossCallReturnLabel_56, ??CrossCallReturnLabel_53, ??CrossCallReturnLabel_49, ??CrossCallReturnLabel_27
        CFI (cfiCond202) R6 load(1, XDATA, add(CFA_XSP16, literal(-12)))
        CFI (cfiCond202) VB load(1, XDATA, add(CFA_XSP16, literal(-11)))
        CFI (cfiCond202) V0 load(1, XDATA, add(CFA_XSP16, literal(-10)))
        CFI (cfiCond202) V1 load(1, XDATA, add(CFA_XSP16, literal(-9)))
        CFI (cfiCond202) V2 load(1, XDATA, add(CFA_XSP16, literal(-8)))
        CFI (cfiCond202) V3 load(1, XDATA, add(CFA_XSP16, literal(-7)))
        CFI (cfiCond202) R7 load(1, XDATA, add(CFA_XSP16, literal(-6)))
        CFI (cfiCond202) ?RET_LOW load(1, XDATA, add(CFA_XSP16, literal(-5)))
        CFI (cfiCond202) ?RET_HIGH load(1, XDATA, add(CFA_XSP16, literal(-4)))
        CFI (cfiCond202) ?BRET_EXT load(1, XDATA, add(CFA_XSP16, literal(-3)))
        CFI (cfiCond202) DPL0 load(1, XDATA, add(CFA_XSP16, literal(-2)))
        CFI (cfiCond202) DPH0 load(1, XDATA, add(CFA_XSP16, literal(-1)))
        CFI (cfiCond202) CFA_SP SP+0
        CFI (cfiCond202) CFA_XSP16 add(XSP16, 12)
        CFI Block cfiCond203 Using cfiCommon0
        CFI (cfiCond203) NoFunction
        CFI (cfiCond203) Conditional ??CrossCallReturnLabel_62, ??CrossCallReturnLabel_60, ??CrossCallReturnLabel_57, ??CrossCallReturnLabel_52, ??CrossCallReturnLabel_48, ??CrossCallReturnLabel_26
        CFI (cfiCond203) R6 load(1, XDATA, add(CFA_XSP16, literal(-12)))
        CFI (cfiCond203) VB load(1, XDATA, add(CFA_XSP16, literal(-11)))
        CFI (cfiCond203) V0 load(1, XDATA, add(CFA_XSP16, literal(-10)))
        CFI (cfiCond203) V1 load(1, XDATA, add(CFA_XSP16, literal(-9)))
        CFI (cfiCond203) V2 load(1, XDATA, add(CFA_XSP16, literal(-8)))
        CFI (cfiCond203) V3 load(1, XDATA, add(CFA_XSP16, literal(-7)))
        CFI (cfiCond203) R7 load(1, XDATA, add(CFA_XSP16, literal(-6)))
        CFI (cfiCond203) ?RET_LOW load(1, XDATA, add(CFA_XSP16, literal(-5)))
        CFI (cfiCond203) ?RET_HIGH load(1, XDATA, add(CFA_XSP16, literal(-4)))
        CFI (cfiCond203) ?BRET_EXT load(1, XDATA, add(CFA_XSP16, literal(-3)))
        CFI (cfiCond203) DPL0 load(1, XDATA, add(CFA_XSP16, literal(-2)))
        CFI (cfiCond203) DPH0 load(1, XDATA, add(CFA_XSP16, literal(-1)))
        CFI (cfiCond203) CFA_SP SP+0
        CFI (cfiCond203) CFA_XSP16 add(XSP16, 12)
        CFI Block cfiCond204 Using cfiCommon0
        CFI (cfiCond204) NoFunction
        CFI (cfiCond204) Conditional ??CrossCallReturnLabel_62, ??CrossCallReturnLabel_60, ??CrossCallReturnLabel_57, ??CrossCallReturnLabel_52, ??CrossCallReturnLabel_48, ??CrossCallReturnLabel_27
        CFI (cfiCond204) R6 load(1, XDATA, add(CFA_XSP16, literal(-12)))
        CFI (cfiCond204) VB load(1, XDATA, add(CFA_XSP16, literal(-11)))
        CFI (cfiCond204) V0 load(1, XDATA, add(CFA_XSP16, literal(-10)))
        CFI (cfiCond204) V1 load(1, XDATA, add(CFA_XSP16, literal(-9)))
        CFI (cfiCond204) V2 load(1, XDATA, add(CFA_XSP16, literal(-8)))
        CFI (cfiCond204) V3 load(1, XDATA, add(CFA_XSP16, literal(-7)))
        CFI (cfiCond204) R7 load(1, XDATA, add(CFA_XSP16, literal(-6)))
        CFI (cfiCond204) ?RET_LOW load(1, XDATA, add(CFA_XSP16, literal(-5)))
        CFI (cfiCond204) ?RET_HIGH load(1, XDATA, add(CFA_XSP16, literal(-4)))
        CFI (cfiCond204) ?BRET_EXT load(1, XDATA, add(CFA_XSP16, literal(-3)))
        CFI (cfiCond204) DPL0 load(1, XDATA, add(CFA_XSP16, literal(-2)))
        CFI (cfiCond204) DPH0 load(1, XDATA, add(CFA_XSP16, literal(-1)))
        CFI (cfiCond204) CFA_SP SP+0
        CFI (cfiCond204) CFA_XSP16 add(XSP16, 12)
        CFI Block cfiCond205 Using cfiCommon0
        CFI (cfiCond205) NoFunction
        CFI (cfiCond205) Conditional ??CrossCallReturnLabel_62, ??CrossCallReturnLabel_60, ??CrossCallReturnLabel_57, ??CrossCallReturnLabel_52, ??CrossCallReturnLabel_49, ??CrossCallReturnLabel_26
        CFI (cfiCond205) R6 load(1, XDATA, add(CFA_XSP16, literal(-12)))
        CFI (cfiCond205) VB load(1, XDATA, add(CFA_XSP16, literal(-11)))
        CFI (cfiCond205) V0 load(1, XDATA, add(CFA_XSP16, literal(-10)))
        CFI (cfiCond205) V1 load(1, XDATA, add(CFA_XSP16, literal(-9)))
        CFI (cfiCond205) V2 load(1, XDATA, add(CFA_XSP16, literal(-8)))
        CFI (cfiCond205) V3 load(1, XDATA, add(CFA_XSP16, literal(-7)))
        CFI (cfiCond205) R7 load(1, XDATA, add(CFA_XSP16, literal(-6)))
        CFI (cfiCond205) ?RET_LOW load(1, XDATA, add(CFA_XSP16, literal(-5)))
        CFI (cfiCond205) ?RET_HIGH load(1, XDATA, add(CFA_XSP16, literal(-4)))
        CFI (cfiCond205) ?BRET_EXT load(1, XDATA, add(CFA_XSP16, literal(-3)))
        CFI (cfiCond205) DPL0 load(1, XDATA, add(CFA_XSP16, literal(-2)))
        CFI (cfiCond205) DPH0 load(1, XDATA, add(CFA_XSP16, literal(-1)))
        CFI (cfiCond205) CFA_SP SP+0
        CFI (cfiCond205) CFA_XSP16 add(XSP16, 12)
        CFI Block cfiCond206 Using cfiCommon0
        CFI (cfiCond206) NoFunction
        CFI (cfiCond206) Conditional ??CrossCallReturnLabel_62, ??CrossCallReturnLabel_60, ??CrossCallReturnLabel_57, ??CrossCallReturnLabel_52, ??CrossCallReturnLabel_49, ??CrossCallReturnLabel_27
        CFI (cfiCond206) R6 load(1, XDATA, add(CFA_XSP16, literal(-12)))
        CFI (cfiCond206) VB load(1, XDATA, add(CFA_XSP16, literal(-11)))
        CFI (cfiCond206) V0 load(1, XDATA, add(CFA_XSP16, literal(-10)))
        CFI (cfiCond206) V1 load(1, XDATA, add(CFA_XSP16, literal(-9)))
        CFI (cfiCond206) V2 load(1, XDATA, add(CFA_XSP16, literal(-8)))
        CFI (cfiCond206) V3 load(1, XDATA, add(CFA_XSP16, literal(-7)))
        CFI (cfiCond206) R7 load(1, XDATA, add(CFA_XSP16, literal(-6)))
        CFI (cfiCond206) ?RET_LOW load(1, XDATA, add(CFA_XSP16, literal(-5)))
        CFI (cfiCond206) ?RET_HIGH load(1, XDATA, add(CFA_XSP16, literal(-4)))
        CFI (cfiCond206) ?BRET_EXT load(1, XDATA, add(CFA_XSP16, literal(-3)))
        CFI (cfiCond206) DPL0 load(1, XDATA, add(CFA_XSP16, literal(-2)))
        CFI (cfiCond206) DPH0 load(1, XDATA, add(CFA_XSP16, literal(-1)))
        CFI (cfiCond206) CFA_SP SP+0
        CFI (cfiCond206) CFA_XSP16 add(XSP16, 12)
        CFI Block cfiCond207 Using cfiCommon0
        CFI (cfiCond207) NoFunction
        CFI (cfiCond207) Conditional ??CrossCallReturnLabel_62, ??CrossCallReturnLabel_60, ??CrossCallReturnLabel_57, ??CrossCallReturnLabel_53, ??CrossCallReturnLabel_48, ??CrossCallReturnLabel_26
        CFI (cfiCond207) R6 load(1, XDATA, add(CFA_XSP16, literal(-12)))
        CFI (cfiCond207) VB load(1, XDATA, add(CFA_XSP16, literal(-11)))
        CFI (cfiCond207) V0 load(1, XDATA, add(CFA_XSP16, literal(-10)))
        CFI (cfiCond207) V1 load(1, XDATA, add(CFA_XSP16, literal(-9)))
        CFI (cfiCond207) V2 load(1, XDATA, add(CFA_XSP16, literal(-8)))
        CFI (cfiCond207) V3 load(1, XDATA, add(CFA_XSP16, literal(-7)))
        CFI (cfiCond207) R7 load(1, XDATA, add(CFA_XSP16, literal(-6)))
        CFI (cfiCond207) ?RET_LOW load(1, XDATA, add(CFA_XSP16, literal(-5)))
        CFI (cfiCond207) ?RET_HIGH load(1, XDATA, add(CFA_XSP16, literal(-4)))
        CFI (cfiCond207) ?BRET_EXT load(1, XDATA, add(CFA_XSP16, literal(-3)))
        CFI (cfiCond207) DPL0 load(1, XDATA, add(CFA_XSP16, literal(-2)))
        CFI (cfiCond207) DPH0 load(1, XDATA, add(CFA_XSP16, literal(-1)))
        CFI (cfiCond207) CFA_SP SP+0
        CFI (cfiCond207) CFA_XSP16 add(XSP16, 12)
        CFI Block cfiCond208 Using cfiCommon0
        CFI (cfiCond208) NoFunction
        CFI (cfiCond208) Conditional ??CrossCallReturnLabel_62, ??CrossCallReturnLabel_60, ??CrossCallReturnLabel_57, ??CrossCallReturnLabel_53, ??CrossCallReturnLabel_48, ??CrossCallReturnLabel_27
        CFI (cfiCond208) R6 load(1, XDATA, add(CFA_XSP16, literal(-12)))
        CFI (cfiCond208) VB load(1, XDATA, add(CFA_XSP16, literal(-11)))
        CFI (cfiCond208) V0 load(1, XDATA, add(CFA_XSP16, literal(-10)))
        CFI (cfiCond208) V1 load(1, XDATA, add(CFA_XSP16, literal(-9)))
        CFI (cfiCond208) V2 load(1, XDATA, add(CFA_XSP16, literal(-8)))
        CFI (cfiCond208) V3 load(1, XDATA, add(CFA_XSP16, literal(-7)))
        CFI (cfiCond208) R7 load(1, XDATA, add(CFA_XSP16, literal(-6)))
        CFI (cfiCond208) ?RET_LOW load(1, XDATA, add(CFA_XSP16, literal(-5)))
        CFI (cfiCond208) ?RET_HIGH load(1, XDATA, add(CFA_XSP16, literal(-4)))
        CFI (cfiCond208) ?BRET_EXT load(1, XDATA, add(CFA_XSP16, literal(-3)))
        CFI (cfiCond208) DPL0 load(1, XDATA, add(CFA_XSP16, literal(-2)))
        CFI (cfiCond208) DPH0 load(1, XDATA, add(CFA_XSP16, literal(-1)))
        CFI (cfiCond208) CFA_SP SP+0
        CFI (cfiCond208) CFA_XSP16 add(XSP16, 12)
        CFI Block cfiCond209 Using cfiCommon0
        CFI (cfiCond209) NoFunction
        CFI (cfiCond209) Conditional ??CrossCallReturnLabel_62, ??CrossCallReturnLabel_60, ??CrossCallReturnLabel_57, ??CrossCallReturnLabel_53, ??CrossCallReturnLabel_49, ??CrossCallReturnLabel_26
        CFI (cfiCond209) R6 load(1, XDATA, add(CFA_XSP16, literal(-12)))
        CFI (cfiCond209) VB load(1, XDATA, add(CFA_XSP16, literal(-11)))
        CFI (cfiCond209) V0 load(1, XDATA, add(CFA_XSP16, literal(-10)))
        CFI (cfiCond209) V1 load(1, XDATA, add(CFA_XSP16, literal(-9)))
        CFI (cfiCond209) V2 load(1, XDATA, add(CFA_XSP16, literal(-8)))
        CFI (cfiCond209) V3 load(1, XDATA, add(CFA_XSP16, literal(-7)))
        CFI (cfiCond209) R7 load(1, XDATA, add(CFA_XSP16, literal(-6)))
        CFI (cfiCond209) ?RET_LOW load(1, XDATA, add(CFA_XSP16, literal(-5)))
        CFI (cfiCond209) ?RET_HIGH load(1, XDATA, add(CFA_XSP16, literal(-4)))
        CFI (cfiCond209) ?BRET_EXT load(1, XDATA, add(CFA_XSP16, literal(-3)))
        CFI (cfiCond209) DPL0 load(1, XDATA, add(CFA_XSP16, literal(-2)))
        CFI (cfiCond209) DPH0 load(1, XDATA, add(CFA_XSP16, literal(-1)))
        CFI (cfiCond209) CFA_SP SP+0
        CFI (cfiCond209) CFA_XSP16 add(XSP16, 12)
        CFI Block cfiCond210 Using cfiCommon0
        CFI (cfiCond210) NoFunction
        CFI (cfiCond210) Conditional ??CrossCallReturnLabel_62, ??CrossCallReturnLabel_60, ??CrossCallReturnLabel_57, ??CrossCallReturnLabel_53, ??CrossCallReturnLabel_49, ??CrossCallReturnLabel_27
        CFI (cfiCond210) R6 load(1, XDATA, add(CFA_XSP16, literal(-12)))
        CFI (cfiCond210) VB load(1, XDATA, add(CFA_XSP16, literal(-11)))
        CFI (cfiCond210) V0 load(1, XDATA, add(CFA_XSP16, literal(-10)))
        CFI (cfiCond210) V1 load(1, XDATA, add(CFA_XSP16, literal(-9)))
        CFI (cfiCond210) V2 load(1, XDATA, add(CFA_XSP16, literal(-8)))
        CFI (cfiCond210) V3 load(1, XDATA, add(CFA_XSP16, literal(-7)))
        CFI (cfiCond210) R7 load(1, XDATA, add(CFA_XSP16, literal(-6)))
        CFI (cfiCond210) ?RET_LOW load(1, XDATA, add(CFA_XSP16, literal(-5)))
        CFI (cfiCond210) ?RET_HIGH load(1, XDATA, add(CFA_XSP16, literal(-4)))
        CFI (cfiCond210) ?BRET_EXT load(1, XDATA, add(CFA_XSP16, literal(-3)))
        CFI (cfiCond210) DPL0 load(1, XDATA, add(CFA_XSP16, literal(-2)))
        CFI (cfiCond210) DPH0 load(1, XDATA, add(CFA_XSP16, literal(-1)))
        CFI (cfiCond210) CFA_SP SP+0
        CFI (cfiCond210) CFA_XSP16 add(XSP16, 12)
        CFI Block cfiCond211 Using cfiCommon0
        CFI (cfiCond211) NoFunction
        CFI (cfiCond211) Conditional ??CrossCallReturnLabel_62, ??CrossCallReturnLabel_61, ??CrossCallReturnLabel_56, ??CrossCallReturnLabel_52, ??CrossCallReturnLabel_48, ??CrossCallReturnLabel_26
        CFI (cfiCond211) R6 load(1, XDATA, add(CFA_XSP16, literal(-12)))
        CFI (cfiCond211) VB load(1, XDATA, add(CFA_XSP16, literal(-11)))
        CFI (cfiCond211) V0 load(1, XDATA, add(CFA_XSP16, literal(-10)))
        CFI (cfiCond211) V1 load(1, XDATA, add(CFA_XSP16, literal(-9)))
        CFI (cfiCond211) V2 load(1, XDATA, add(CFA_XSP16, literal(-8)))
        CFI (cfiCond211) V3 load(1, XDATA, add(CFA_XSP16, literal(-7)))
        CFI (cfiCond211) R7 load(1, XDATA, add(CFA_XSP16, literal(-6)))
        CFI (cfiCond211) ?RET_LOW load(1, XDATA, add(CFA_XSP16, literal(-5)))
        CFI (cfiCond211) ?RET_HIGH load(1, XDATA, add(CFA_XSP16, literal(-4)))
        CFI (cfiCond211) ?BRET_EXT load(1, XDATA, add(CFA_XSP16, literal(-3)))
        CFI (cfiCond211) DPL0 load(1, XDATA, add(CFA_XSP16, literal(-2)))
        CFI (cfiCond211) DPH0 load(1, XDATA, add(CFA_XSP16, literal(-1)))
        CFI (cfiCond211) CFA_SP SP+0
        CFI (cfiCond211) CFA_XSP16 add(XSP16, 12)
        CFI Block cfiCond212 Using cfiCommon0
        CFI (cfiCond212) NoFunction
        CFI (cfiCond212) Conditional ??CrossCallReturnLabel_62, ??CrossCallReturnLabel_61, ??CrossCallReturnLabel_56, ??CrossCallReturnLabel_52, ??CrossCallReturnLabel_48, ??CrossCallReturnLabel_27
        CFI (cfiCond212) R6 load(1, XDATA, add(CFA_XSP16, literal(-12)))
        CFI (cfiCond212) VB load(1, XDATA, add(CFA_XSP16, literal(-11)))
        CFI (cfiCond212) V0 load(1, XDATA, add(CFA_XSP16, literal(-10)))
        CFI (cfiCond212) V1 load(1, XDATA, add(CFA_XSP16, literal(-9)))
        CFI (cfiCond212) V2 load(1, XDATA, add(CFA_XSP16, literal(-8)))
        CFI (cfiCond212) V3 load(1, XDATA, add(CFA_XSP16, literal(-7)))
        CFI (cfiCond212) R7 load(1, XDATA, add(CFA_XSP16, literal(-6)))
        CFI (cfiCond212) ?RET_LOW load(1, XDATA, add(CFA_XSP16, literal(-5)))
        CFI (cfiCond212) ?RET_HIGH load(1, XDATA, add(CFA_XSP16, literal(-4)))
        CFI (cfiCond212) ?BRET_EXT load(1, XDATA, add(CFA_XSP16, literal(-3)))
        CFI (cfiCond212) DPL0 load(1, XDATA, add(CFA_XSP16, literal(-2)))
        CFI (cfiCond212) DPH0 load(1, XDATA, add(CFA_XSP16, literal(-1)))
        CFI (cfiCond212) CFA_SP SP+0
        CFI (cfiCond212) CFA_XSP16 add(XSP16, 12)
        CFI Block cfiCond213 Using cfiCommon0
        CFI (cfiCond213) NoFunction
        CFI (cfiCond213) Conditional ??CrossCallReturnLabel_62, ??CrossCallReturnLabel_61, ??CrossCallReturnLabel_56, ??CrossCallReturnLabel_52, ??CrossCallReturnLabel_49, ??CrossCallReturnLabel_26
        CFI (cfiCond213) R6 load(1, XDATA, add(CFA_XSP16, literal(-12)))
        CFI (cfiCond213) VB load(1, XDATA, add(CFA_XSP16, literal(-11)))
        CFI (cfiCond213) V0 load(1, XDATA, add(CFA_XSP16, literal(-10)))
        CFI (cfiCond213) V1 load(1, XDATA, add(CFA_XSP16, literal(-9)))
        CFI (cfiCond213) V2 load(1, XDATA, add(CFA_XSP16, literal(-8)))
        CFI (cfiCond213) V3 load(1, XDATA, add(CFA_XSP16, literal(-7)))
        CFI (cfiCond213) R7 load(1, XDATA, add(CFA_XSP16, literal(-6)))
        CFI (cfiCond213) ?RET_LOW load(1, XDATA, add(CFA_XSP16, literal(-5)))
        CFI (cfiCond213) ?RET_HIGH load(1, XDATA, add(CFA_XSP16, literal(-4)))
        CFI (cfiCond213) ?BRET_EXT load(1, XDATA, add(CFA_XSP16, literal(-3)))
        CFI (cfiCond213) DPL0 load(1, XDATA, add(CFA_XSP16, literal(-2)))
        CFI (cfiCond213) DPH0 load(1, XDATA, add(CFA_XSP16, literal(-1)))
        CFI (cfiCond213) CFA_SP SP+0
        CFI (cfiCond213) CFA_XSP16 add(XSP16, 12)
        CFI Block cfiCond214 Using cfiCommon0
        CFI (cfiCond214) NoFunction
        CFI (cfiCond214) Conditional ??CrossCallReturnLabel_62, ??CrossCallReturnLabel_61, ??CrossCallReturnLabel_56, ??CrossCallReturnLabel_52, ??CrossCallReturnLabel_49, ??CrossCallReturnLabel_27
        CFI (cfiCond214) R6 load(1, XDATA, add(CFA_XSP16, literal(-12)))
        CFI (cfiCond214) VB load(1, XDATA, add(CFA_XSP16, literal(-11)))
        CFI (cfiCond214) V0 load(1, XDATA, add(CFA_XSP16, literal(-10)))
        CFI (cfiCond214) V1 load(1, XDATA, add(CFA_XSP16, literal(-9)))
        CFI (cfiCond214) V2 load(1, XDATA, add(CFA_XSP16, literal(-8)))
        CFI (cfiCond214) V3 load(1, XDATA, add(CFA_XSP16, literal(-7)))
        CFI (cfiCond214) R7 load(1, XDATA, add(CFA_XSP16, literal(-6)))
        CFI (cfiCond214) ?RET_LOW load(1, XDATA, add(CFA_XSP16, literal(-5)))
        CFI (cfiCond214) ?RET_HIGH load(1, XDATA, add(CFA_XSP16, literal(-4)))
        CFI (cfiCond214) ?BRET_EXT load(1, XDATA, add(CFA_XSP16, literal(-3)))
        CFI (cfiCond214) DPL0 load(1, XDATA, add(CFA_XSP16, literal(-2)))
        CFI (cfiCond214) DPH0 load(1, XDATA, add(CFA_XSP16, literal(-1)))
        CFI (cfiCond214) CFA_SP SP+0
        CFI (cfiCond214) CFA_XSP16 add(XSP16, 12)
        CFI Block cfiCond215 Using cfiCommon0
        CFI (cfiCond215) NoFunction
        CFI (cfiCond215) Conditional ??CrossCallReturnLabel_62, ??CrossCallReturnLabel_61, ??CrossCallReturnLabel_56, ??CrossCallReturnLabel_53, ??CrossCallReturnLabel_48, ??CrossCallReturnLabel_26
        CFI (cfiCond215) R6 load(1, XDATA, add(CFA_XSP16, literal(-12)))
        CFI (cfiCond215) VB load(1, XDATA, add(CFA_XSP16, literal(-11)))
        CFI (cfiCond215) V0 load(1, XDATA, add(CFA_XSP16, literal(-10)))
        CFI (cfiCond215) V1 load(1, XDATA, add(CFA_XSP16, literal(-9)))
        CFI (cfiCond215) V2 load(1, XDATA, add(CFA_XSP16, literal(-8)))
        CFI (cfiCond215) V3 load(1, XDATA, add(CFA_XSP16, literal(-7)))
        CFI (cfiCond215) R7 load(1, XDATA, add(CFA_XSP16, literal(-6)))
        CFI (cfiCond215) ?RET_LOW load(1, XDATA, add(CFA_XSP16, literal(-5)))
        CFI (cfiCond215) ?RET_HIGH load(1, XDATA, add(CFA_XSP16, literal(-4)))
        CFI (cfiCond215) ?BRET_EXT load(1, XDATA, add(CFA_XSP16, literal(-3)))
        CFI (cfiCond215) DPL0 load(1, XDATA, add(CFA_XSP16, literal(-2)))
        CFI (cfiCond215) DPH0 load(1, XDATA, add(CFA_XSP16, literal(-1)))
        CFI (cfiCond215) CFA_SP SP+0
        CFI (cfiCond215) CFA_XSP16 add(XSP16, 12)
        CFI Block cfiCond216 Using cfiCommon0
        CFI (cfiCond216) NoFunction
        CFI (cfiCond216) Conditional ??CrossCallReturnLabel_62, ??CrossCallReturnLabel_61, ??CrossCallReturnLabel_56, ??CrossCallReturnLabel_53, ??CrossCallReturnLabel_48, ??CrossCallReturnLabel_27
        CFI (cfiCond216) R6 load(1, XDATA, add(CFA_XSP16, literal(-12)))
        CFI (cfiCond216) VB load(1, XDATA, add(CFA_XSP16, literal(-11)))
        CFI (cfiCond216) V0 load(1, XDATA, add(CFA_XSP16, literal(-10)))
        CFI (cfiCond216) V1 load(1, XDATA, add(CFA_XSP16, literal(-9)))
        CFI (cfiCond216) V2 load(1, XDATA, add(CFA_XSP16, literal(-8)))
        CFI (cfiCond216) V3 load(1, XDATA, add(CFA_XSP16, literal(-7)))
        CFI (cfiCond216) R7 load(1, XDATA, add(CFA_XSP16, literal(-6)))
        CFI (cfiCond216) ?RET_LOW load(1, XDATA, add(CFA_XSP16, literal(-5)))
        CFI (cfiCond216) ?RET_HIGH load(1, XDATA, add(CFA_XSP16, literal(-4)))
        CFI (cfiCond216) ?BRET_EXT load(1, XDATA, add(CFA_XSP16, literal(-3)))
        CFI (cfiCond216) DPL0 load(1, XDATA, add(CFA_XSP16, literal(-2)))
        CFI (cfiCond216) DPH0 load(1, XDATA, add(CFA_XSP16, literal(-1)))
        CFI (cfiCond216) CFA_SP SP+0
        CFI (cfiCond216) CFA_XSP16 add(XSP16, 12)
        CFI Block cfiCond217 Using cfiCommon0
        CFI (cfiCond217) NoFunction
        CFI (cfiCond217) Conditional ??CrossCallReturnLabel_62, ??CrossCallReturnLabel_61, ??CrossCallReturnLabel_56, ??CrossCallReturnLabel_53, ??CrossCallReturnLabel_49, ??CrossCallReturnLabel_26
        CFI (cfiCond217) R6 load(1, XDATA, add(CFA_XSP16, literal(-12)))
        CFI (cfiCond217) VB load(1, XDATA, add(CFA_XSP16, literal(-11)))
        CFI (cfiCond217) V0 load(1, XDATA, add(CFA_XSP16, literal(-10)))
        CFI (cfiCond217) V1 load(1, XDATA, add(CFA_XSP16, literal(-9)))
        CFI (cfiCond217) V2 load(1, XDATA, add(CFA_XSP16, literal(-8)))
        CFI (cfiCond217) V3 load(1, XDATA, add(CFA_XSP16, literal(-7)))
        CFI (cfiCond217) R7 load(1, XDATA, add(CFA_XSP16, literal(-6)))
        CFI (cfiCond217) ?RET_LOW load(1, XDATA, add(CFA_XSP16, literal(-5)))
        CFI (cfiCond217) ?RET_HIGH load(1, XDATA, add(CFA_XSP16, literal(-4)))
        CFI (cfiCond217) ?BRET_EXT load(1, XDATA, add(CFA_XSP16, literal(-3)))
        CFI (cfiCond217) DPL0 load(1, XDATA, add(CFA_XSP16, literal(-2)))
        CFI (cfiCond217) DPH0 load(1, XDATA, add(CFA_XSP16, literal(-1)))
        CFI (cfiCond217) CFA_SP SP+0
        CFI (cfiCond217) CFA_XSP16 add(XSP16, 12)
        CFI Block cfiCond218 Using cfiCommon0
        CFI (cfiCond218) NoFunction
        CFI (cfiCond218) Conditional ??CrossCallReturnLabel_62, ??CrossCallReturnLabel_61, ??CrossCallReturnLabel_56, ??CrossCallReturnLabel_53, ??CrossCallReturnLabel_49, ??CrossCallReturnLabel_27
        CFI (cfiCond218) R6 load(1, XDATA, add(CFA_XSP16, literal(-12)))
        CFI (cfiCond218) VB load(1, XDATA, add(CFA_XSP16, literal(-11)))
        CFI (cfiCond218) V0 load(1, XDATA, add(CFA_XSP16, literal(-10)))
        CFI (cfiCond218) V1 load(1, XDATA, add(CFA_XSP16, literal(-9)))
        CFI (cfiCond218) V2 load(1, XDATA, add(CFA_XSP16, literal(-8)))
        CFI (cfiCond218) V3 load(1, XDATA, add(CFA_XSP16, literal(-7)))
        CFI (cfiCond218) R7 load(1, XDATA, add(CFA_XSP16, literal(-6)))
        CFI (cfiCond218) ?RET_LOW load(1, XDATA, add(CFA_XSP16, literal(-5)))
        CFI (cfiCond218) ?RET_HIGH load(1, XDATA, add(CFA_XSP16, literal(-4)))
        CFI (cfiCond218) ?BRET_EXT load(1, XDATA, add(CFA_XSP16, literal(-3)))
        CFI (cfiCond218) DPL0 load(1, XDATA, add(CFA_XSP16, literal(-2)))
        CFI (cfiCond218) DPH0 load(1, XDATA, add(CFA_XSP16, literal(-1)))
        CFI (cfiCond218) CFA_SP SP+0
        CFI (cfiCond218) CFA_XSP16 add(XSP16, 12)
        CFI Block cfiCond219 Using cfiCommon0
        CFI (cfiCond219) NoFunction
        CFI (cfiCond219) Conditional ??CrossCallReturnLabel_62, ??CrossCallReturnLabel_61, ??CrossCallReturnLabel_57, ??CrossCallReturnLabel_52, ??CrossCallReturnLabel_48, ??CrossCallReturnLabel_26
        CFI (cfiCond219) R6 load(1, XDATA, add(CFA_XSP16, literal(-12)))
        CFI (cfiCond219) VB load(1, XDATA, add(CFA_XSP16, literal(-11)))
        CFI (cfiCond219) V0 load(1, XDATA, add(CFA_XSP16, literal(-10)))
        CFI (cfiCond219) V1 load(1, XDATA, add(CFA_XSP16, literal(-9)))
        CFI (cfiCond219) V2 load(1, XDATA, add(CFA_XSP16, literal(-8)))
        CFI (cfiCond219) V3 load(1, XDATA, add(CFA_XSP16, literal(-7)))
        CFI (cfiCond219) R7 load(1, XDATA, add(CFA_XSP16, literal(-6)))
        CFI (cfiCond219) ?RET_LOW load(1, XDATA, add(CFA_XSP16, literal(-5)))
        CFI (cfiCond219) ?RET_HIGH load(1, XDATA, add(CFA_XSP16, literal(-4)))
        CFI (cfiCond219) ?BRET_EXT load(1, XDATA, add(CFA_XSP16, literal(-3)))
        CFI (cfiCond219) DPL0 load(1, XDATA, add(CFA_XSP16, literal(-2)))
        CFI (cfiCond219) DPH0 load(1, XDATA, add(CFA_XSP16, literal(-1)))
        CFI (cfiCond219) CFA_SP SP+0
        CFI (cfiCond219) CFA_XSP16 add(XSP16, 12)
        CFI Block cfiCond220 Using cfiCommon0
        CFI (cfiCond220) NoFunction
        CFI (cfiCond220) Conditional ??CrossCallReturnLabel_62, ??CrossCallReturnLabel_61, ??CrossCallReturnLabel_57, ??CrossCallReturnLabel_52, ??CrossCallReturnLabel_48, ??CrossCallReturnLabel_27
        CFI (cfiCond220) R6 load(1, XDATA, add(CFA_XSP16, literal(-12)))
        CFI (cfiCond220) VB load(1, XDATA, add(CFA_XSP16, literal(-11)))
        CFI (cfiCond220) V0 load(1, XDATA, add(CFA_XSP16, literal(-10)))
        CFI (cfiCond220) V1 load(1, XDATA, add(CFA_XSP16, literal(-9)))
        CFI (cfiCond220) V2 load(1, XDATA, add(CFA_XSP16, literal(-8)))
        CFI (cfiCond220) V3 load(1, XDATA, add(CFA_XSP16, literal(-7)))
        CFI (cfiCond220) R7 load(1, XDATA, add(CFA_XSP16, literal(-6)))
        CFI (cfiCond220) ?RET_LOW load(1, XDATA, add(CFA_XSP16, literal(-5)))
        CFI (cfiCond220) ?RET_HIGH load(1, XDATA, add(CFA_XSP16, literal(-4)))
        CFI (cfiCond220) ?BRET_EXT load(1, XDATA, add(CFA_XSP16, literal(-3)))
        CFI (cfiCond220) DPL0 load(1, XDATA, add(CFA_XSP16, literal(-2)))
        CFI (cfiCond220) DPH0 load(1, XDATA, add(CFA_XSP16, literal(-1)))
        CFI (cfiCond220) CFA_SP SP+0
        CFI (cfiCond220) CFA_XSP16 add(XSP16, 12)
        CFI Block cfiCond221 Using cfiCommon0
        CFI (cfiCond221) NoFunction
        CFI (cfiCond221) Conditional ??CrossCallReturnLabel_62, ??CrossCallReturnLabel_61, ??CrossCallReturnLabel_57, ??CrossCallReturnLabel_52, ??CrossCallReturnLabel_49, ??CrossCallReturnLabel_26
        CFI (cfiCond221) R6 load(1, XDATA, add(CFA_XSP16, literal(-12)))
        CFI (cfiCond221) VB load(1, XDATA, add(CFA_XSP16, literal(-11)))
        CFI (cfiCond221) V0 load(1, XDATA, add(CFA_XSP16, literal(-10)))
        CFI (cfiCond221) V1 load(1, XDATA, add(CFA_XSP16, literal(-9)))
        CFI (cfiCond221) V2 load(1, XDATA, add(CFA_XSP16, literal(-8)))
        CFI (cfiCond221) V3 load(1, XDATA, add(CFA_XSP16, literal(-7)))
        CFI (cfiCond221) R7 load(1, XDATA, add(CFA_XSP16, literal(-6)))
        CFI (cfiCond221) ?RET_LOW load(1, XDATA, add(CFA_XSP16, literal(-5)))
        CFI (cfiCond221) ?RET_HIGH load(1, XDATA, add(CFA_XSP16, literal(-4)))
        CFI (cfiCond221) ?BRET_EXT load(1, XDATA, add(CFA_XSP16, literal(-3)))
        CFI (cfiCond221) DPL0 load(1, XDATA, add(CFA_XSP16, literal(-2)))
        CFI (cfiCond221) DPH0 load(1, XDATA, add(CFA_XSP16, literal(-1)))
        CFI (cfiCond221) CFA_SP SP+0
        CFI (cfiCond221) CFA_XSP16 add(XSP16, 12)
        CFI Block cfiCond222 Using cfiCommon0
        CFI (cfiCond222) NoFunction
        CFI (cfiCond222) Conditional ??CrossCallReturnLabel_62, ??CrossCallReturnLabel_61, ??CrossCallReturnLabel_57, ??CrossCallReturnLabel_52, ??CrossCallReturnLabel_49, ??CrossCallReturnLabel_27
        CFI (cfiCond222) R6 load(1, XDATA, add(CFA_XSP16, literal(-12)))
        CFI (cfiCond222) VB load(1, XDATA, add(CFA_XSP16, literal(-11)))
        CFI (cfiCond222) V0 load(1, XDATA, add(CFA_XSP16, literal(-10)))
        CFI (cfiCond222) V1 load(1, XDATA, add(CFA_XSP16, literal(-9)))
        CFI (cfiCond222) V2 load(1, XDATA, add(CFA_XSP16, literal(-8)))
        CFI (cfiCond222) V3 load(1, XDATA, add(CFA_XSP16, literal(-7)))
        CFI (cfiCond222) R7 load(1, XDATA, add(CFA_XSP16, literal(-6)))
        CFI (cfiCond222) ?RET_LOW load(1, XDATA, add(CFA_XSP16, literal(-5)))
        CFI (cfiCond222) ?RET_HIGH load(1, XDATA, add(CFA_XSP16, literal(-4)))
        CFI (cfiCond222) ?BRET_EXT load(1, XDATA, add(CFA_XSP16, literal(-3)))
        CFI (cfiCond222) DPL0 load(1, XDATA, add(CFA_XSP16, literal(-2)))
        CFI (cfiCond222) DPH0 load(1, XDATA, add(CFA_XSP16, literal(-1)))
        CFI (cfiCond222) CFA_SP SP+0
        CFI (cfiCond222) CFA_XSP16 add(XSP16, 12)
        CFI Block cfiCond223 Using cfiCommon0
        CFI (cfiCond223) NoFunction
        CFI (cfiCond223) Conditional ??CrossCallReturnLabel_62, ??CrossCallReturnLabel_61, ??CrossCallReturnLabel_57, ??CrossCallReturnLabel_53, ??CrossCallReturnLabel_48, ??CrossCallReturnLabel_26
        CFI (cfiCond223) R6 load(1, XDATA, add(CFA_XSP16, literal(-12)))
        CFI (cfiCond223) VB load(1, XDATA, add(CFA_XSP16, literal(-11)))
        CFI (cfiCond223) V0 load(1, XDATA, add(CFA_XSP16, literal(-10)))
        CFI (cfiCond223) V1 load(1, XDATA, add(CFA_XSP16, literal(-9)))
        CFI (cfiCond223) V2 load(1, XDATA, add(CFA_XSP16, literal(-8)))
        CFI (cfiCond223) V3 load(1, XDATA, add(CFA_XSP16, literal(-7)))
        CFI (cfiCond223) R7 load(1, XDATA, add(CFA_XSP16, literal(-6)))
        CFI (cfiCond223) ?RET_LOW load(1, XDATA, add(CFA_XSP16, literal(-5)))
        CFI (cfiCond223) ?RET_HIGH load(1, XDATA, add(CFA_XSP16, literal(-4)))
        CFI (cfiCond223) ?BRET_EXT load(1, XDATA, add(CFA_XSP16, literal(-3)))
        CFI (cfiCond223) DPL0 load(1, XDATA, add(CFA_XSP16, literal(-2)))
        CFI (cfiCond223) DPH0 load(1, XDATA, add(CFA_XSP16, literal(-1)))
        CFI (cfiCond223) CFA_SP SP+0
        CFI (cfiCond223) CFA_XSP16 add(XSP16, 12)
        CFI Block cfiCond224 Using cfiCommon0
        CFI (cfiCond224) NoFunction
        CFI (cfiCond224) Conditional ??CrossCallReturnLabel_62, ??CrossCallReturnLabel_61, ??CrossCallReturnLabel_57, ??CrossCallReturnLabel_53, ??CrossCallReturnLabel_48, ??CrossCallReturnLabel_27
        CFI (cfiCond224) R6 load(1, XDATA, add(CFA_XSP16, literal(-12)))
        CFI (cfiCond224) VB load(1, XDATA, add(CFA_XSP16, literal(-11)))
        CFI (cfiCond224) V0 load(1, XDATA, add(CFA_XSP16, literal(-10)))
        CFI (cfiCond224) V1 load(1, XDATA, add(CFA_XSP16, literal(-9)))
        CFI (cfiCond224) V2 load(1, XDATA, add(CFA_XSP16, literal(-8)))
        CFI (cfiCond224) V3 load(1, XDATA, add(CFA_XSP16, literal(-7)))
        CFI (cfiCond224) R7 load(1, XDATA, add(CFA_XSP16, literal(-6)))
        CFI (cfiCond224) ?RET_LOW load(1, XDATA, add(CFA_XSP16, literal(-5)))
        CFI (cfiCond224) ?RET_HIGH load(1, XDATA, add(CFA_XSP16, literal(-4)))
        CFI (cfiCond224) ?BRET_EXT load(1, XDATA, add(CFA_XSP16, literal(-3)))
        CFI (cfiCond224) DPL0 load(1, XDATA, add(CFA_XSP16, literal(-2)))
        CFI (cfiCond224) DPH0 load(1, XDATA, add(CFA_XSP16, literal(-1)))
        CFI (cfiCond224) CFA_SP SP+0
        CFI (cfiCond224) CFA_XSP16 add(XSP16, 12)
        CFI Block cfiCond225 Using cfiCommon0
        CFI (cfiCond225) NoFunction
        CFI (cfiCond225) Conditional ??CrossCallReturnLabel_62, ??CrossCallReturnLabel_61, ??CrossCallReturnLabel_57, ??CrossCallReturnLabel_53, ??CrossCallReturnLabel_49, ??CrossCallReturnLabel_26
        CFI (cfiCond225) R6 load(1, XDATA, add(CFA_XSP16, literal(-12)))
        CFI (cfiCond225) VB load(1, XDATA, add(CFA_XSP16, literal(-11)))
        CFI (cfiCond225) V0 load(1, XDATA, add(CFA_XSP16, literal(-10)))
        CFI (cfiCond225) V1 load(1, XDATA, add(CFA_XSP16, literal(-9)))
        CFI (cfiCond225) V2 load(1, XDATA, add(CFA_XSP16, literal(-8)))
        CFI (cfiCond225) V3 load(1, XDATA, add(CFA_XSP16, literal(-7)))
        CFI (cfiCond225) R7 load(1, XDATA, add(CFA_XSP16, literal(-6)))
        CFI (cfiCond225) ?RET_LOW load(1, XDATA, add(CFA_XSP16, literal(-5)))
        CFI (cfiCond225) ?RET_HIGH load(1, XDATA, add(CFA_XSP16, literal(-4)))
        CFI (cfiCond225) ?BRET_EXT load(1, XDATA, add(CFA_XSP16, literal(-3)))
        CFI (cfiCond225) DPL0 load(1, XDATA, add(CFA_XSP16, literal(-2)))
        CFI (cfiCond225) DPH0 load(1, XDATA, add(CFA_XSP16, literal(-1)))
        CFI (cfiCond225) CFA_SP SP+0
        CFI (cfiCond225) CFA_XSP16 add(XSP16, 12)
        CFI Block cfiCond226 Using cfiCommon0
        CFI (cfiCond226) NoFunction
        CFI (cfiCond226) Conditional ??CrossCallReturnLabel_62, ??CrossCallReturnLabel_61, ??CrossCallReturnLabel_57, ??CrossCallReturnLabel_53, ??CrossCallReturnLabel_49, ??CrossCallReturnLabel_27
        CFI (cfiCond226) R6 load(1, XDATA, add(CFA_XSP16, literal(-12)))
        CFI (cfiCond226) VB load(1, XDATA, add(CFA_XSP16, literal(-11)))
        CFI (cfiCond226) V0 load(1, XDATA, add(CFA_XSP16, literal(-10)))
        CFI (cfiCond226) V1 load(1, XDATA, add(CFA_XSP16, literal(-9)))
        CFI (cfiCond226) V2 load(1, XDATA, add(CFA_XSP16, literal(-8)))
        CFI (cfiCond226) V3 load(1, XDATA, add(CFA_XSP16, literal(-7)))
        CFI (cfiCond226) R7 load(1, XDATA, add(CFA_XSP16, literal(-6)))
        CFI (cfiCond226) ?RET_LOW load(1, XDATA, add(CFA_XSP16, literal(-5)))
        CFI (cfiCond226) ?RET_HIGH load(1, XDATA, add(CFA_XSP16, literal(-4)))
        CFI (cfiCond226) ?BRET_EXT load(1, XDATA, add(CFA_XSP16, literal(-3)))
        CFI (cfiCond226) DPL0 load(1, XDATA, add(CFA_XSP16, literal(-2)))
        CFI (cfiCond226) DPH0 load(1, XDATA, add(CFA_XSP16, literal(-1)))
        CFI (cfiCond226) CFA_SP SP+0
        CFI (cfiCond226) CFA_XSP16 add(XSP16, 12)
        CFI Block cfiCond227 Using cfiCommon0
        CFI (cfiCond227) NoFunction
        CFI (cfiCond227) Conditional ??CrossCallReturnLabel_63, ??CrossCallReturnLabel_60, ??CrossCallReturnLabel_56, ??CrossCallReturnLabel_52, ??CrossCallReturnLabel_48, ??CrossCallReturnLabel_26
        CFI (cfiCond227) R6 load(1, XDATA, add(CFA_XSP16, literal(-12)))
        CFI (cfiCond227) VB load(1, XDATA, add(CFA_XSP16, literal(-11)))
        CFI (cfiCond227) V0 load(1, XDATA, add(CFA_XSP16, literal(-10)))
        CFI (cfiCond227) V1 load(1, XDATA, add(CFA_XSP16, literal(-9)))
        CFI (cfiCond227) V2 load(1, XDATA, add(CFA_XSP16, literal(-8)))
        CFI (cfiCond227) V3 load(1, XDATA, add(CFA_XSP16, literal(-7)))
        CFI (cfiCond227) R7 load(1, XDATA, add(CFA_XSP16, literal(-6)))
        CFI (cfiCond227) ?RET_LOW load(1, XDATA, add(CFA_XSP16, literal(-5)))
        CFI (cfiCond227) ?RET_HIGH load(1, XDATA, add(CFA_XSP16, literal(-4)))
        CFI (cfiCond227) ?BRET_EXT load(1, XDATA, add(CFA_XSP16, literal(-3)))
        CFI (cfiCond227) DPL0 load(1, XDATA, add(CFA_XSP16, literal(-2)))
        CFI (cfiCond227) DPH0 load(1, XDATA, add(CFA_XSP16, literal(-1)))
        CFI (cfiCond227) CFA_SP SP+0
        CFI (cfiCond227) CFA_XSP16 add(XSP16, 12)
        CFI Block cfiCond228 Using cfiCommon0
        CFI (cfiCond228) NoFunction
        CFI (cfiCond228) Conditional ??CrossCallReturnLabel_63, ??CrossCallReturnLabel_60, ??CrossCallReturnLabel_56, ??CrossCallReturnLabel_52, ??CrossCallReturnLabel_48, ??CrossCallReturnLabel_27
        CFI (cfiCond228) R6 load(1, XDATA, add(CFA_XSP16, literal(-12)))
        CFI (cfiCond228) VB load(1, XDATA, add(CFA_XSP16, literal(-11)))
        CFI (cfiCond228) V0 load(1, XDATA, add(CFA_XSP16, literal(-10)))
        CFI (cfiCond228) V1 load(1, XDATA, add(CFA_XSP16, literal(-9)))
        CFI (cfiCond228) V2 load(1, XDATA, add(CFA_XSP16, literal(-8)))
        CFI (cfiCond228) V3 load(1, XDATA, add(CFA_XSP16, literal(-7)))
        CFI (cfiCond228) R7 load(1, XDATA, add(CFA_XSP16, literal(-6)))
        CFI (cfiCond228) ?RET_LOW load(1, XDATA, add(CFA_XSP16, literal(-5)))
        CFI (cfiCond228) ?RET_HIGH load(1, XDATA, add(CFA_XSP16, literal(-4)))
        CFI (cfiCond228) ?BRET_EXT load(1, XDATA, add(CFA_XSP16, literal(-3)))
        CFI (cfiCond228) DPL0 load(1, XDATA, add(CFA_XSP16, literal(-2)))
        CFI (cfiCond228) DPH0 load(1, XDATA, add(CFA_XSP16, literal(-1)))
        CFI (cfiCond228) CFA_SP SP+0
        CFI (cfiCond228) CFA_XSP16 add(XSP16, 12)
        CFI Block cfiCond229 Using cfiCommon0
        CFI (cfiCond229) NoFunction
        CFI (cfiCond229) Conditional ??CrossCallReturnLabel_63, ??CrossCallReturnLabel_60, ??CrossCallReturnLabel_56, ??CrossCallReturnLabel_52, ??CrossCallReturnLabel_49, ??CrossCallReturnLabel_26
        CFI (cfiCond229) R6 load(1, XDATA, add(CFA_XSP16, literal(-12)))
        CFI (cfiCond229) VB load(1, XDATA, add(CFA_XSP16, literal(-11)))
        CFI (cfiCond229) V0 load(1, XDATA, add(CFA_XSP16, literal(-10)))
        CFI (cfiCond229) V1 load(1, XDATA, add(CFA_XSP16, literal(-9)))
        CFI (cfiCond229) V2 load(1, XDATA, add(CFA_XSP16, literal(-8)))
        CFI (cfiCond229) V3 load(1, XDATA, add(CFA_XSP16, literal(-7)))
        CFI (cfiCond229) R7 load(1, XDATA, add(CFA_XSP16, literal(-6)))
        CFI (cfiCond229) ?RET_LOW load(1, XDATA, add(CFA_XSP16, literal(-5)))
        CFI (cfiCond229) ?RET_HIGH load(1, XDATA, add(CFA_XSP16, literal(-4)))
        CFI (cfiCond229) ?BRET_EXT load(1, XDATA, add(CFA_XSP16, literal(-3)))
        CFI (cfiCond229) DPL0 load(1, XDATA, add(CFA_XSP16, literal(-2)))
        CFI (cfiCond229) DPH0 load(1, XDATA, add(CFA_XSP16, literal(-1)))
        CFI (cfiCond229) CFA_SP SP+0
        CFI (cfiCond229) CFA_XSP16 add(XSP16, 12)
        CFI Block cfiCond230 Using cfiCommon0
        CFI (cfiCond230) NoFunction
        CFI (cfiCond230) Conditional ??CrossCallReturnLabel_63, ??CrossCallReturnLabel_60, ??CrossCallReturnLabel_56, ??CrossCallReturnLabel_52, ??CrossCallReturnLabel_49, ??CrossCallReturnLabel_27
        CFI (cfiCond230) R6 load(1, XDATA, add(CFA_XSP16, literal(-12)))
        CFI (cfiCond230) VB load(1, XDATA, add(CFA_XSP16, literal(-11)))
        CFI (cfiCond230) V0 load(1, XDATA, add(CFA_XSP16, literal(-10)))
        CFI (cfiCond230) V1 load(1, XDATA, add(CFA_XSP16, literal(-9)))
        CFI (cfiCond230) V2 load(1, XDATA, add(CFA_XSP16, literal(-8)))
        CFI (cfiCond230) V3 load(1, XDATA, add(CFA_XSP16, literal(-7)))
        CFI (cfiCond230) R7 load(1, XDATA, add(CFA_XSP16, literal(-6)))
        CFI (cfiCond230) ?RET_LOW load(1, XDATA, add(CFA_XSP16, literal(-5)))
        CFI (cfiCond230) ?RET_HIGH load(1, XDATA, add(CFA_XSP16, literal(-4)))
        CFI (cfiCond230) ?BRET_EXT load(1, XDATA, add(CFA_XSP16, literal(-3)))
        CFI (cfiCond230) DPL0 load(1, XDATA, add(CFA_XSP16, literal(-2)))
        CFI (cfiCond230) DPH0 load(1, XDATA, add(CFA_XSP16, literal(-1)))
        CFI (cfiCond230) CFA_SP SP+0
        CFI (cfiCond230) CFA_XSP16 add(XSP16, 12)
        CFI Block cfiCond231 Using cfiCommon0
        CFI (cfiCond231) NoFunction
        CFI (cfiCond231) Conditional ??CrossCallReturnLabel_63, ??CrossCallReturnLabel_60, ??CrossCallReturnLabel_56, ??CrossCallReturnLabel_53, ??CrossCallReturnLabel_48, ??CrossCallReturnLabel_26
        CFI (cfiCond231) R6 load(1, XDATA, add(CFA_XSP16, literal(-12)))
        CFI (cfiCond231) VB load(1, XDATA, add(CFA_XSP16, literal(-11)))
        CFI (cfiCond231) V0 load(1, XDATA, add(CFA_XSP16, literal(-10)))
        CFI (cfiCond231) V1 load(1, XDATA, add(CFA_XSP16, literal(-9)))
        CFI (cfiCond231) V2 load(1, XDATA, add(CFA_XSP16, literal(-8)))
        CFI (cfiCond231) V3 load(1, XDATA, add(CFA_XSP16, literal(-7)))
        CFI (cfiCond231) R7 load(1, XDATA, add(CFA_XSP16, literal(-6)))
        CFI (cfiCond231) ?RET_LOW load(1, XDATA, add(CFA_XSP16, literal(-5)))
        CFI (cfiCond231) ?RET_HIGH load(1, XDATA, add(CFA_XSP16, literal(-4)))
        CFI (cfiCond231) ?BRET_EXT load(1, XDATA, add(CFA_XSP16, literal(-3)))
        CFI (cfiCond231) DPL0 load(1, XDATA, add(CFA_XSP16, literal(-2)))
        CFI (cfiCond231) DPH0 load(1, XDATA, add(CFA_XSP16, literal(-1)))
        CFI (cfiCond231) CFA_SP SP+0
        CFI (cfiCond231) CFA_XSP16 add(XSP16, 12)
        CFI Block cfiCond232 Using cfiCommon0
        CFI (cfiCond232) NoFunction
        CFI (cfiCond232) Conditional ??CrossCallReturnLabel_63, ??CrossCallReturnLabel_60, ??CrossCallReturnLabel_56, ??CrossCallReturnLabel_53, ??CrossCallReturnLabel_48, ??CrossCallReturnLabel_27
        CFI (cfiCond232) R6 load(1, XDATA, add(CFA_XSP16, literal(-12)))
        CFI (cfiCond232) VB load(1, XDATA, add(CFA_XSP16, literal(-11)))
        CFI (cfiCond232) V0 load(1, XDATA, add(CFA_XSP16, literal(-10)))
        CFI (cfiCond232) V1 load(1, XDATA, add(CFA_XSP16, literal(-9)))
        CFI (cfiCond232) V2 load(1, XDATA, add(CFA_XSP16, literal(-8)))
        CFI (cfiCond232) V3 load(1, XDATA, add(CFA_XSP16, literal(-7)))
        CFI (cfiCond232) R7 load(1, XDATA, add(CFA_XSP16, literal(-6)))
        CFI (cfiCond232) ?RET_LOW load(1, XDATA, add(CFA_XSP16, literal(-5)))
        CFI (cfiCond232) ?RET_HIGH load(1, XDATA, add(CFA_XSP16, literal(-4)))
        CFI (cfiCond232) ?BRET_EXT load(1, XDATA, add(CFA_XSP16, literal(-3)))
        CFI (cfiCond232) DPL0 load(1, XDATA, add(CFA_XSP16, literal(-2)))
        CFI (cfiCond232) DPH0 load(1, XDATA, add(CFA_XSP16, literal(-1)))
        CFI (cfiCond232) CFA_SP SP+0
        CFI (cfiCond232) CFA_XSP16 add(XSP16, 12)
        CFI Block cfiCond233 Using cfiCommon0
        CFI (cfiCond233) NoFunction
        CFI (cfiCond233) Conditional ??CrossCallReturnLabel_63, ??CrossCallReturnLabel_60, ??CrossCallReturnLabel_56, ??CrossCallReturnLabel_53, ??CrossCallReturnLabel_49, ??CrossCallReturnLabel_26
        CFI (cfiCond233) R6 load(1, XDATA, add(CFA_XSP16, literal(-12)))
        CFI (cfiCond233) VB load(1, XDATA, add(CFA_XSP16, literal(-11)))
        CFI (cfiCond233) V0 load(1, XDATA, add(CFA_XSP16, literal(-10)))
        CFI (cfiCond233) V1 load(1, XDATA, add(CFA_XSP16, literal(-9)))
        CFI (cfiCond233) V2 load(1, XDATA, add(CFA_XSP16, literal(-8)))
        CFI (cfiCond233) V3 load(1, XDATA, add(CFA_XSP16, literal(-7)))
        CFI (cfiCond233) R7 load(1, XDATA, add(CFA_XSP16, literal(-6)))
        CFI (cfiCond233) ?RET_LOW load(1, XDATA, add(CFA_XSP16, literal(-5)))
        CFI (cfiCond233) ?RET_HIGH load(1, XDATA, add(CFA_XSP16, literal(-4)))
        CFI (cfiCond233) ?BRET_EXT load(1, XDATA, add(CFA_XSP16, literal(-3)))
        CFI (cfiCond233) DPL0 load(1, XDATA, add(CFA_XSP16, literal(-2)))
        CFI (cfiCond233) DPH0 load(1, XDATA, add(CFA_XSP16, literal(-1)))
        CFI (cfiCond233) CFA_SP SP+0
        CFI (cfiCond233) CFA_XSP16 add(XSP16, 12)
        CFI Block cfiCond234 Using cfiCommon0
        CFI (cfiCond234) NoFunction
        CFI (cfiCond234) Conditional ??CrossCallReturnLabel_63, ??CrossCallReturnLabel_60, ??CrossCallReturnLabel_56, ??CrossCallReturnLabel_53, ??CrossCallReturnLabel_49, ??CrossCallReturnLabel_27
        CFI (cfiCond234) R6 load(1, XDATA, add(CFA_XSP16, literal(-12)))
        CFI (cfiCond234) VB load(1, XDATA, add(CFA_XSP16, literal(-11)))
        CFI (cfiCond234) V0 load(1, XDATA, add(CFA_XSP16, literal(-10)))
        CFI (cfiCond234) V1 load(1, XDATA, add(CFA_XSP16, literal(-9)))
        CFI (cfiCond234) V2 load(1, XDATA, add(CFA_XSP16, literal(-8)))
        CFI (cfiCond234) V3 load(1, XDATA, add(CFA_XSP16, literal(-7)))
        CFI (cfiCond234) R7 load(1, XDATA, add(CFA_XSP16, literal(-6)))
        CFI (cfiCond234) ?RET_LOW load(1, XDATA, add(CFA_XSP16, literal(-5)))
        CFI (cfiCond234) ?RET_HIGH load(1, XDATA, add(CFA_XSP16, literal(-4)))
        CFI (cfiCond234) ?BRET_EXT load(1, XDATA, add(CFA_XSP16, literal(-3)))
        CFI (cfiCond234) DPL0 load(1, XDATA, add(CFA_XSP16, literal(-2)))
        CFI (cfiCond234) DPH0 load(1, XDATA, add(CFA_XSP16, literal(-1)))
        CFI (cfiCond234) CFA_SP SP+0
        CFI (cfiCond234) CFA_XSP16 add(XSP16, 12)
        CFI Block cfiCond235 Using cfiCommon0
        CFI (cfiCond235) NoFunction
        CFI (cfiCond235) Conditional ??CrossCallReturnLabel_63, ??CrossCallReturnLabel_60, ??CrossCallReturnLabel_57, ??CrossCallReturnLabel_52, ??CrossCallReturnLabel_48, ??CrossCallReturnLabel_26
        CFI (cfiCond235) R6 load(1, XDATA, add(CFA_XSP16, literal(-12)))
        CFI (cfiCond235) VB load(1, XDATA, add(CFA_XSP16, literal(-11)))
        CFI (cfiCond235) V0 load(1, XDATA, add(CFA_XSP16, literal(-10)))
        CFI (cfiCond235) V1 load(1, XDATA, add(CFA_XSP16, literal(-9)))
        CFI (cfiCond235) V2 load(1, XDATA, add(CFA_XSP16, literal(-8)))
        CFI (cfiCond235) V3 load(1, XDATA, add(CFA_XSP16, literal(-7)))
        CFI (cfiCond235) R7 load(1, XDATA, add(CFA_XSP16, literal(-6)))
        CFI (cfiCond235) ?RET_LOW load(1, XDATA, add(CFA_XSP16, literal(-5)))
        CFI (cfiCond235) ?RET_HIGH load(1, XDATA, add(CFA_XSP16, literal(-4)))
        CFI (cfiCond235) ?BRET_EXT load(1, XDATA, add(CFA_XSP16, literal(-3)))
        CFI (cfiCond235) DPL0 load(1, XDATA, add(CFA_XSP16, literal(-2)))
        CFI (cfiCond235) DPH0 load(1, XDATA, add(CFA_XSP16, literal(-1)))
        CFI (cfiCond235) CFA_SP SP+0
        CFI (cfiCond235) CFA_XSP16 add(XSP16, 12)
        CFI Block cfiCond236 Using cfiCommon0
        CFI (cfiCond236) NoFunction
        CFI (cfiCond236) Conditional ??CrossCallReturnLabel_63, ??CrossCallReturnLabel_60, ??CrossCallReturnLabel_57, ??CrossCallReturnLabel_52, ??CrossCallReturnLabel_48, ??CrossCallReturnLabel_27
        CFI (cfiCond236) R6 load(1, XDATA, add(CFA_XSP16, literal(-12)))
        CFI (cfiCond236) VB load(1, XDATA, add(CFA_XSP16, literal(-11)))
        CFI (cfiCond236) V0 load(1, XDATA, add(CFA_XSP16, literal(-10)))
        CFI (cfiCond236) V1 load(1, XDATA, add(CFA_XSP16, literal(-9)))
        CFI (cfiCond236) V2 load(1, XDATA, add(CFA_XSP16, literal(-8)))
        CFI (cfiCond236) V3 load(1, XDATA, add(CFA_XSP16, literal(-7)))
        CFI (cfiCond236) R7 load(1, XDATA, add(CFA_XSP16, literal(-6)))
        CFI (cfiCond236) ?RET_LOW load(1, XDATA, add(CFA_XSP16, literal(-5)))
        CFI (cfiCond236) ?RET_HIGH load(1, XDATA, add(CFA_XSP16, literal(-4)))
        CFI (cfiCond236) ?BRET_EXT load(1, XDATA, add(CFA_XSP16, literal(-3)))
        CFI (cfiCond236) DPL0 load(1, XDATA, add(CFA_XSP16, literal(-2)))
        CFI (cfiCond236) DPH0 load(1, XDATA, add(CFA_XSP16, literal(-1)))
        CFI (cfiCond236) CFA_SP SP+0
        CFI (cfiCond236) CFA_XSP16 add(XSP16, 12)
        CFI Block cfiCond237 Using cfiCommon0
        CFI (cfiCond237) NoFunction
        CFI (cfiCond237) Conditional ??CrossCallReturnLabel_63, ??CrossCallReturnLabel_60, ??CrossCallReturnLabel_57, ??CrossCallReturnLabel_52, ??CrossCallReturnLabel_49, ??CrossCallReturnLabel_26
        CFI (cfiCond237) R6 load(1, XDATA, add(CFA_XSP16, literal(-12)))
        CFI (cfiCond237) VB load(1, XDATA, add(CFA_XSP16, literal(-11)))
        CFI (cfiCond237) V0 load(1, XDATA, add(CFA_XSP16, literal(-10)))
        CFI (cfiCond237) V1 load(1, XDATA, add(CFA_XSP16, literal(-9)))
        CFI (cfiCond237) V2 load(1, XDATA, add(CFA_XSP16, literal(-8)))
        CFI (cfiCond237) V3 load(1, XDATA, add(CFA_XSP16, literal(-7)))
        CFI (cfiCond237) R7 load(1, XDATA, add(CFA_XSP16, literal(-6)))
        CFI (cfiCond237) ?RET_LOW load(1, XDATA, add(CFA_XSP16, literal(-5)))
        CFI (cfiCond237) ?RET_HIGH load(1, XDATA, add(CFA_XSP16, literal(-4)))
        CFI (cfiCond237) ?BRET_EXT load(1, XDATA, add(CFA_XSP16, literal(-3)))
        CFI (cfiCond237) DPL0 load(1, XDATA, add(CFA_XSP16, literal(-2)))
        CFI (cfiCond237) DPH0 load(1, XDATA, add(CFA_XSP16, literal(-1)))
        CFI (cfiCond237) CFA_SP SP+0
        CFI (cfiCond237) CFA_XSP16 add(XSP16, 12)
        CFI Block cfiCond238 Using cfiCommon0
        CFI (cfiCond238) NoFunction
        CFI (cfiCond238) Conditional ??CrossCallReturnLabel_63, ??CrossCallReturnLabel_60, ??CrossCallReturnLabel_57, ??CrossCallReturnLabel_52, ??CrossCallReturnLabel_49, ??CrossCallReturnLabel_27
        CFI (cfiCond238) R6 load(1, XDATA, add(CFA_XSP16, literal(-12)))
        CFI (cfiCond238) VB load(1, XDATA, add(CFA_XSP16, literal(-11)))
        CFI (cfiCond238) V0 load(1, XDATA, add(CFA_XSP16, literal(-10)))
        CFI (cfiCond238) V1 load(1, XDATA, add(CFA_XSP16, literal(-9)))
        CFI (cfiCond238) V2 load(1, XDATA, add(CFA_XSP16, literal(-8)))
        CFI (cfiCond238) V3 load(1, XDATA, add(CFA_XSP16, literal(-7)))
        CFI (cfiCond238) R7 load(1, XDATA, add(CFA_XSP16, literal(-6)))
        CFI (cfiCond238) ?RET_LOW load(1, XDATA, add(CFA_XSP16, literal(-5)))
        CFI (cfiCond238) ?RET_HIGH load(1, XDATA, add(CFA_XSP16, literal(-4)))
        CFI (cfiCond238) ?BRET_EXT load(1, XDATA, add(CFA_XSP16, literal(-3)))
        CFI (cfiCond238) DPL0 load(1, XDATA, add(CFA_XSP16, literal(-2)))
        CFI (cfiCond238) DPH0 load(1, XDATA, add(CFA_XSP16, literal(-1)))
        CFI (cfiCond238) CFA_SP SP+0
        CFI (cfiCond238) CFA_XSP16 add(XSP16, 12)
        CFI Block cfiCond239 Using cfiCommon0
        CFI (cfiCond239) NoFunction
        CFI (cfiCond239) Conditional ??CrossCallReturnLabel_63, ??CrossCallReturnLabel_60, ??CrossCallReturnLabel_57, ??CrossCallReturnLabel_53, ??CrossCallReturnLabel_48, ??CrossCallReturnLabel_26
        CFI (cfiCond239) R6 load(1, XDATA, add(CFA_XSP16, literal(-12)))
        CFI (cfiCond239) VB load(1, XDATA, add(CFA_XSP16, literal(-11)))
        CFI (cfiCond239) V0 load(1, XDATA, add(CFA_XSP16, literal(-10)))
        CFI (cfiCond239) V1 load(1, XDATA, add(CFA_XSP16, literal(-9)))
        CFI (cfiCond239) V2 load(1, XDATA, add(CFA_XSP16, literal(-8)))
        CFI (cfiCond239) V3 load(1, XDATA, add(CFA_XSP16, literal(-7)))
        CFI (cfiCond239) R7 load(1, XDATA, add(CFA_XSP16, literal(-6)))
        CFI (cfiCond239) ?RET_LOW load(1, XDATA, add(CFA_XSP16, literal(-5)))
        CFI (cfiCond239) ?RET_HIGH load(1, XDATA, add(CFA_XSP16, literal(-4)))
        CFI (cfiCond239) ?BRET_EXT load(1, XDATA, add(CFA_XSP16, literal(-3)))
        CFI (cfiCond239) DPL0 load(1, XDATA, add(CFA_XSP16, literal(-2)))
        CFI (cfiCond239) DPH0 load(1, XDATA, add(CFA_XSP16, literal(-1)))
        CFI (cfiCond239) CFA_SP SP+0
        CFI (cfiCond239) CFA_XSP16 add(XSP16, 12)
        CFI Block cfiCond240 Using cfiCommon0
        CFI (cfiCond240) NoFunction
        CFI (cfiCond240) Conditional ??CrossCallReturnLabel_63, ??CrossCallReturnLabel_60, ??CrossCallReturnLabel_57, ??CrossCallReturnLabel_53, ??CrossCallReturnLabel_48, ??CrossCallReturnLabel_27
        CFI (cfiCond240) R6 load(1, XDATA, add(CFA_XSP16, literal(-12)))
        CFI (cfiCond240) VB load(1, XDATA, add(CFA_XSP16, literal(-11)))
        CFI (cfiCond240) V0 load(1, XDATA, add(CFA_XSP16, literal(-10)))
        CFI (cfiCond240) V1 load(1, XDATA, add(CFA_XSP16, literal(-9)))
        CFI (cfiCond240) V2 load(1, XDATA, add(CFA_XSP16, literal(-8)))
        CFI (cfiCond240) V3 load(1, XDATA, add(CFA_XSP16, literal(-7)))
        CFI (cfiCond240) R7 load(1, XDATA, add(CFA_XSP16, literal(-6)))
        CFI (cfiCond240) ?RET_LOW load(1, XDATA, add(CFA_XSP16, literal(-5)))
        CFI (cfiCond240) ?RET_HIGH load(1, XDATA, add(CFA_XSP16, literal(-4)))
        CFI (cfiCond240) ?BRET_EXT load(1, XDATA, add(CFA_XSP16, literal(-3)))
        CFI (cfiCond240) DPL0 load(1, XDATA, add(CFA_XSP16, literal(-2)))
        CFI (cfiCond240) DPH0 load(1, XDATA, add(CFA_XSP16, literal(-1)))
        CFI (cfiCond240) CFA_SP SP+0
        CFI (cfiCond240) CFA_XSP16 add(XSP16, 12)
        CFI Block cfiCond241 Using cfiCommon0
        CFI (cfiCond241) NoFunction
        CFI (cfiCond241) Conditional ??CrossCallReturnLabel_63, ??CrossCallReturnLabel_60, ??CrossCallReturnLabel_57, ??CrossCallReturnLabel_53, ??CrossCallReturnLabel_49, ??CrossCallReturnLabel_26
        CFI (cfiCond241) R6 load(1, XDATA, add(CFA_XSP16, literal(-12)))
        CFI (cfiCond241) VB load(1, XDATA, add(CFA_XSP16, literal(-11)))
        CFI (cfiCond241) V0 load(1, XDATA, add(CFA_XSP16, literal(-10)))
        CFI (cfiCond241) V1 load(1, XDATA, add(CFA_XSP16, literal(-9)))
        CFI (cfiCond241) V2 load(1, XDATA, add(CFA_XSP16, literal(-8)))
        CFI (cfiCond241) V3 load(1, XDATA, add(CFA_XSP16, literal(-7)))
        CFI (cfiCond241) R7 load(1, XDATA, add(CFA_XSP16, literal(-6)))
        CFI (cfiCond241) ?RET_LOW load(1, XDATA, add(CFA_XSP16, literal(-5)))
        CFI (cfiCond241) ?RET_HIGH load(1, XDATA, add(CFA_XSP16, literal(-4)))
        CFI (cfiCond241) ?BRET_EXT load(1, XDATA, add(CFA_XSP16, literal(-3)))
        CFI (cfiCond241) DPL0 load(1, XDATA, add(CFA_XSP16, literal(-2)))
        CFI (cfiCond241) DPH0 load(1, XDATA, add(CFA_XSP16, literal(-1)))
        CFI (cfiCond241) CFA_SP SP+0
        CFI (cfiCond241) CFA_XSP16 add(XSP16, 12)
        CFI Block cfiCond242 Using cfiCommon0
        CFI (cfiCond242) NoFunction
        CFI (cfiCond242) Conditional ??CrossCallReturnLabel_63, ??CrossCallReturnLabel_60, ??CrossCallReturnLabel_57, ??CrossCallReturnLabel_53, ??CrossCallReturnLabel_49, ??CrossCallReturnLabel_27
        CFI (cfiCond242) R6 load(1, XDATA, add(CFA_XSP16, literal(-12)))
        CFI (cfiCond242) VB load(1, XDATA, add(CFA_XSP16, literal(-11)))
        CFI (cfiCond242) V0 load(1, XDATA, add(CFA_XSP16, literal(-10)))
        CFI (cfiCond242) V1 load(1, XDATA, add(CFA_XSP16, literal(-9)))
        CFI (cfiCond242) V2 load(1, XDATA, add(CFA_XSP16, literal(-8)))
        CFI (cfiCond242) V3 load(1, XDATA, add(CFA_XSP16, literal(-7)))
        CFI (cfiCond242) R7 load(1, XDATA, add(CFA_XSP16, literal(-6)))
        CFI (cfiCond242) ?RET_LOW load(1, XDATA, add(CFA_XSP16, literal(-5)))
        CFI (cfiCond242) ?RET_HIGH load(1, XDATA, add(CFA_XSP16, literal(-4)))
        CFI (cfiCond242) ?BRET_EXT load(1, XDATA, add(CFA_XSP16, literal(-3)))
        CFI (cfiCond242) DPL0 load(1, XDATA, add(CFA_XSP16, literal(-2)))
        CFI (cfiCond242) DPH0 load(1, XDATA, add(CFA_XSP16, literal(-1)))
        CFI (cfiCond242) CFA_SP SP+0
        CFI (cfiCond242) CFA_XSP16 add(XSP16, 12)
        CFI Block cfiCond243 Using cfiCommon0
        CFI (cfiCond243) NoFunction
        CFI (cfiCond243) Conditional ??CrossCallReturnLabel_63, ??CrossCallReturnLabel_61, ??CrossCallReturnLabel_56, ??CrossCallReturnLabel_52, ??CrossCallReturnLabel_48, ??CrossCallReturnLabel_26
        CFI (cfiCond243) R6 load(1, XDATA, add(CFA_XSP16, literal(-12)))
        CFI (cfiCond243) VB load(1, XDATA, add(CFA_XSP16, literal(-11)))
        CFI (cfiCond243) V0 load(1, XDATA, add(CFA_XSP16, literal(-10)))
        CFI (cfiCond243) V1 load(1, XDATA, add(CFA_XSP16, literal(-9)))
        CFI (cfiCond243) V2 load(1, XDATA, add(CFA_XSP16, literal(-8)))
        CFI (cfiCond243) V3 load(1, XDATA, add(CFA_XSP16, literal(-7)))
        CFI (cfiCond243) R7 load(1, XDATA, add(CFA_XSP16, literal(-6)))
        CFI (cfiCond243) ?RET_LOW load(1, XDATA, add(CFA_XSP16, literal(-5)))
        CFI (cfiCond243) ?RET_HIGH load(1, XDATA, add(CFA_XSP16, literal(-4)))
        CFI (cfiCond243) ?BRET_EXT load(1, XDATA, add(CFA_XSP16, literal(-3)))
        CFI (cfiCond243) DPL0 load(1, XDATA, add(CFA_XSP16, literal(-2)))
        CFI (cfiCond243) DPH0 load(1, XDATA, add(CFA_XSP16, literal(-1)))
        CFI (cfiCond243) CFA_SP SP+0
        CFI (cfiCond243) CFA_XSP16 add(XSP16, 12)
        CFI Block cfiCond244 Using cfiCommon0
        CFI (cfiCond244) NoFunction
        CFI (cfiCond244) Conditional ??CrossCallReturnLabel_63, ??CrossCallReturnLabel_61, ??CrossCallReturnLabel_56, ??CrossCallReturnLabel_52, ??CrossCallReturnLabel_48, ??CrossCallReturnLabel_27
        CFI (cfiCond244) R6 load(1, XDATA, add(CFA_XSP16, literal(-12)))
        CFI (cfiCond244) VB load(1, XDATA, add(CFA_XSP16, literal(-11)))
        CFI (cfiCond244) V0 load(1, XDATA, add(CFA_XSP16, literal(-10)))
        CFI (cfiCond244) V1 load(1, XDATA, add(CFA_XSP16, literal(-9)))
        CFI (cfiCond244) V2 load(1, XDATA, add(CFA_XSP16, literal(-8)))
        CFI (cfiCond244) V3 load(1, XDATA, add(CFA_XSP16, literal(-7)))
        CFI (cfiCond244) R7 load(1, XDATA, add(CFA_XSP16, literal(-6)))
        CFI (cfiCond244) ?RET_LOW load(1, XDATA, add(CFA_XSP16, literal(-5)))
        CFI (cfiCond244) ?RET_HIGH load(1, XDATA, add(CFA_XSP16, literal(-4)))
        CFI (cfiCond244) ?BRET_EXT load(1, XDATA, add(CFA_XSP16, literal(-3)))
        CFI (cfiCond244) DPL0 load(1, XDATA, add(CFA_XSP16, literal(-2)))
        CFI (cfiCond244) DPH0 load(1, XDATA, add(CFA_XSP16, literal(-1)))
        CFI (cfiCond244) CFA_SP SP+0
        CFI (cfiCond244) CFA_XSP16 add(XSP16, 12)
        CFI Block cfiCond245 Using cfiCommon0
        CFI (cfiCond245) NoFunction
        CFI (cfiCond245) Conditional ??CrossCallReturnLabel_63, ??CrossCallReturnLabel_61, ??CrossCallReturnLabel_56, ??CrossCallReturnLabel_52, ??CrossCallReturnLabel_49, ??CrossCallReturnLabel_26
        CFI (cfiCond245) R6 load(1, XDATA, add(CFA_XSP16, literal(-12)))
        CFI (cfiCond245) VB load(1, XDATA, add(CFA_XSP16, literal(-11)))
        CFI (cfiCond245) V0 load(1, XDATA, add(CFA_XSP16, literal(-10)))
        CFI (cfiCond245) V1 load(1, XDATA, add(CFA_XSP16, literal(-9)))
        CFI (cfiCond245) V2 load(1, XDATA, add(CFA_XSP16, literal(-8)))
        CFI (cfiCond245) V3 load(1, XDATA, add(CFA_XSP16, literal(-7)))
        CFI (cfiCond245) R7 load(1, XDATA, add(CFA_XSP16, literal(-6)))
        CFI (cfiCond245) ?RET_LOW load(1, XDATA, add(CFA_XSP16, literal(-5)))
        CFI (cfiCond245) ?RET_HIGH load(1, XDATA, add(CFA_XSP16, literal(-4)))
        CFI (cfiCond245) ?BRET_EXT load(1, XDATA, add(CFA_XSP16, literal(-3)))
        CFI (cfiCond245) DPL0 load(1, XDATA, add(CFA_XSP16, literal(-2)))
        CFI (cfiCond245) DPH0 load(1, XDATA, add(CFA_XSP16, literal(-1)))
        CFI (cfiCond245) CFA_SP SP+0
        CFI (cfiCond245) CFA_XSP16 add(XSP16, 12)
        CFI Block cfiCond246 Using cfiCommon0
        CFI (cfiCond246) NoFunction
        CFI (cfiCond246) Conditional ??CrossCallReturnLabel_63, ??CrossCallReturnLabel_61, ??CrossCallReturnLabel_56, ??CrossCallReturnLabel_52, ??CrossCallReturnLabel_49, ??CrossCallReturnLabel_27
        CFI (cfiCond246) R6 load(1, XDATA, add(CFA_XSP16, literal(-12)))
        CFI (cfiCond246) VB load(1, XDATA, add(CFA_XSP16, literal(-11)))
        CFI (cfiCond246) V0 load(1, XDATA, add(CFA_XSP16, literal(-10)))
        CFI (cfiCond246) V1 load(1, XDATA, add(CFA_XSP16, literal(-9)))
        CFI (cfiCond246) V2 load(1, XDATA, add(CFA_XSP16, literal(-8)))
        CFI (cfiCond246) V3 load(1, XDATA, add(CFA_XSP16, literal(-7)))
        CFI (cfiCond246) R7 load(1, XDATA, add(CFA_XSP16, literal(-6)))
        CFI (cfiCond246) ?RET_LOW load(1, XDATA, add(CFA_XSP16, literal(-5)))
        CFI (cfiCond246) ?RET_HIGH load(1, XDATA, add(CFA_XSP16, literal(-4)))
        CFI (cfiCond246) ?BRET_EXT load(1, XDATA, add(CFA_XSP16, literal(-3)))
        CFI (cfiCond246) DPL0 load(1, XDATA, add(CFA_XSP16, literal(-2)))
        CFI (cfiCond246) DPH0 load(1, XDATA, add(CFA_XSP16, literal(-1)))
        CFI (cfiCond246) CFA_SP SP+0
        CFI (cfiCond246) CFA_XSP16 add(XSP16, 12)
        CFI Block cfiCond247 Using cfiCommon0
        CFI (cfiCond247) NoFunction
        CFI (cfiCond247) Conditional ??CrossCallReturnLabel_63, ??CrossCallReturnLabel_61, ??CrossCallReturnLabel_56, ??CrossCallReturnLabel_53, ??CrossCallReturnLabel_48, ??CrossCallReturnLabel_26
        CFI (cfiCond247) R6 load(1, XDATA, add(CFA_XSP16, literal(-12)))
        CFI (cfiCond247) VB load(1, XDATA, add(CFA_XSP16, literal(-11)))
        CFI (cfiCond247) V0 load(1, XDATA, add(CFA_XSP16, literal(-10)))
        CFI (cfiCond247) V1 load(1, XDATA, add(CFA_XSP16, literal(-9)))
        CFI (cfiCond247) V2 load(1, XDATA, add(CFA_XSP16, literal(-8)))
        CFI (cfiCond247) V3 load(1, XDATA, add(CFA_XSP16, literal(-7)))
        CFI (cfiCond247) R7 load(1, XDATA, add(CFA_XSP16, literal(-6)))
        CFI (cfiCond247) ?RET_LOW load(1, XDATA, add(CFA_XSP16, literal(-5)))
        CFI (cfiCond247) ?RET_HIGH load(1, XDATA, add(CFA_XSP16, literal(-4)))
        CFI (cfiCond247) ?BRET_EXT load(1, XDATA, add(CFA_XSP16, literal(-3)))
        CFI (cfiCond247) DPL0 load(1, XDATA, add(CFA_XSP16, literal(-2)))
        CFI (cfiCond247) DPH0 load(1, XDATA, add(CFA_XSP16, literal(-1)))
        CFI (cfiCond247) CFA_SP SP+0
        CFI (cfiCond247) CFA_XSP16 add(XSP16, 12)
        CFI Block cfiCond248 Using cfiCommon0
        CFI (cfiCond248) NoFunction
        CFI (cfiCond248) Conditional ??CrossCallReturnLabel_63, ??CrossCallReturnLabel_61, ??CrossCallReturnLabel_56, ??CrossCallReturnLabel_53, ??CrossCallReturnLabel_48, ??CrossCallReturnLabel_27
        CFI (cfiCond248) R6 load(1, XDATA, add(CFA_XSP16, literal(-12)))
        CFI (cfiCond248) VB load(1, XDATA, add(CFA_XSP16, literal(-11)))
        CFI (cfiCond248) V0 load(1, XDATA, add(CFA_XSP16, literal(-10)))
        CFI (cfiCond248) V1 load(1, XDATA, add(CFA_XSP16, literal(-9)))
        CFI (cfiCond248) V2 load(1, XDATA, add(CFA_XSP16, literal(-8)))
        CFI (cfiCond248) V3 load(1, XDATA, add(CFA_XSP16, literal(-7)))
        CFI (cfiCond248) R7 load(1, XDATA, add(CFA_XSP16, literal(-6)))
        CFI (cfiCond248) ?RET_LOW load(1, XDATA, add(CFA_XSP16, literal(-5)))
        CFI (cfiCond248) ?RET_HIGH load(1, XDATA, add(CFA_XSP16, literal(-4)))
        CFI (cfiCond248) ?BRET_EXT load(1, XDATA, add(CFA_XSP16, literal(-3)))
        CFI (cfiCond248) DPL0 load(1, XDATA, add(CFA_XSP16, literal(-2)))
        CFI (cfiCond248) DPH0 load(1, XDATA, add(CFA_XSP16, literal(-1)))
        CFI (cfiCond248) CFA_SP SP+0
        CFI (cfiCond248) CFA_XSP16 add(XSP16, 12)
        CFI Block cfiCond249 Using cfiCommon0
        CFI (cfiCond249) NoFunction
        CFI (cfiCond249) Conditional ??CrossCallReturnLabel_63, ??CrossCallReturnLabel_61, ??CrossCallReturnLabel_56, ??CrossCallReturnLabel_53, ??CrossCallReturnLabel_49, ??CrossCallReturnLabel_26
        CFI (cfiCond249) R6 load(1, XDATA, add(CFA_XSP16, literal(-12)))
        CFI (cfiCond249) VB load(1, XDATA, add(CFA_XSP16, literal(-11)))
        CFI (cfiCond249) V0 load(1, XDATA, add(CFA_XSP16, literal(-10)))
        CFI (cfiCond249) V1 load(1, XDATA, add(CFA_XSP16, literal(-9)))
        CFI (cfiCond249) V2 load(1, XDATA, add(CFA_XSP16, literal(-8)))
        CFI (cfiCond249) V3 load(1, XDATA, add(CFA_XSP16, literal(-7)))
        CFI (cfiCond249) R7 load(1, XDATA, add(CFA_XSP16, literal(-6)))
        CFI (cfiCond249) ?RET_LOW load(1, XDATA, add(CFA_XSP16, literal(-5)))
        CFI (cfiCond249) ?RET_HIGH load(1, XDATA, add(CFA_XSP16, literal(-4)))
        CFI (cfiCond249) ?BRET_EXT load(1, XDATA, add(CFA_XSP16, literal(-3)))
        CFI (cfiCond249) DPL0 load(1, XDATA, add(CFA_XSP16, literal(-2)))
        CFI (cfiCond249) DPH0 load(1, XDATA, add(CFA_XSP16, literal(-1)))
        CFI (cfiCond249) CFA_SP SP+0
        CFI (cfiCond249) CFA_XSP16 add(XSP16, 12)
        CFI Block cfiCond250 Using cfiCommon0
        CFI (cfiCond250) NoFunction
        CFI (cfiCond250) Conditional ??CrossCallReturnLabel_63, ??CrossCallReturnLabel_61, ??CrossCallReturnLabel_56, ??CrossCallReturnLabel_53, ??CrossCallReturnLabel_49, ??CrossCallReturnLabel_27
        CFI (cfiCond250) R6 load(1, XDATA, add(CFA_XSP16, literal(-12)))
        CFI (cfiCond250) VB load(1, XDATA, add(CFA_XSP16, literal(-11)))
        CFI (cfiCond250) V0 load(1, XDATA, add(CFA_XSP16, literal(-10)))
        CFI (cfiCond250) V1 load(1, XDATA, add(CFA_XSP16, literal(-9)))
        CFI (cfiCond250) V2 load(1, XDATA, add(CFA_XSP16, literal(-8)))
        CFI (cfiCond250) V3 load(1, XDATA, add(CFA_XSP16, literal(-7)))
        CFI (cfiCond250) R7 load(1, XDATA, add(CFA_XSP16, literal(-6)))
        CFI (cfiCond250) ?RET_LOW load(1, XDATA, add(CFA_XSP16, literal(-5)))
        CFI (cfiCond250) ?RET_HIGH load(1, XDATA, add(CFA_XSP16, literal(-4)))
        CFI (cfiCond250) ?BRET_EXT load(1, XDATA, add(CFA_XSP16, literal(-3)))
        CFI (cfiCond250) DPL0 load(1, XDATA, add(CFA_XSP16, literal(-2)))
        CFI (cfiCond250) DPH0 load(1, XDATA, add(CFA_XSP16, literal(-1)))
        CFI (cfiCond250) CFA_SP SP+0
        CFI (cfiCond250) CFA_XSP16 add(XSP16, 12)
        CFI Block cfiCond251 Using cfiCommon0
        CFI (cfiCond251) NoFunction
        CFI (cfiCond251) Conditional ??CrossCallReturnLabel_63, ??CrossCallReturnLabel_61, ??CrossCallReturnLabel_57, ??CrossCallReturnLabel_52, ??CrossCallReturnLabel_48, ??CrossCallReturnLabel_26
        CFI (cfiCond251) R6 load(1, XDATA, add(CFA_XSP16, literal(-12)))
        CFI (cfiCond251) VB load(1, XDATA, add(CFA_XSP16, literal(-11)))
        CFI (cfiCond251) V0 load(1, XDATA, add(CFA_XSP16, literal(-10)))
        CFI (cfiCond251) V1 load(1, XDATA, add(CFA_XSP16, literal(-9)))
        CFI (cfiCond251) V2 load(1, XDATA, add(CFA_XSP16, literal(-8)))
        CFI (cfiCond251) V3 load(1, XDATA, add(CFA_XSP16, literal(-7)))
        CFI (cfiCond251) R7 load(1, XDATA, add(CFA_XSP16, literal(-6)))
        CFI (cfiCond251) ?RET_LOW load(1, XDATA, add(CFA_XSP16, literal(-5)))
        CFI (cfiCond251) ?RET_HIGH load(1, XDATA, add(CFA_XSP16, literal(-4)))
        CFI (cfiCond251) ?BRET_EXT load(1, XDATA, add(CFA_XSP16, literal(-3)))
        CFI (cfiCond251) DPL0 load(1, XDATA, add(CFA_XSP16, literal(-2)))
        CFI (cfiCond251) DPH0 load(1, XDATA, add(CFA_XSP16, literal(-1)))
        CFI (cfiCond251) CFA_SP SP+0
        CFI (cfiCond251) CFA_XSP16 add(XSP16, 12)
        CFI Block cfiCond252 Using cfiCommon0
        CFI (cfiCond252) NoFunction
        CFI (cfiCond252) Conditional ??CrossCallReturnLabel_63, ??CrossCallReturnLabel_61, ??CrossCallReturnLabel_57, ??CrossCallReturnLabel_52, ??CrossCallReturnLabel_48, ??CrossCallReturnLabel_27
        CFI (cfiCond252) R6 load(1, XDATA, add(CFA_XSP16, literal(-12)))
        CFI (cfiCond252) VB load(1, XDATA, add(CFA_XSP16, literal(-11)))
        CFI (cfiCond252) V0 load(1, XDATA, add(CFA_XSP16, literal(-10)))
        CFI (cfiCond252) V1 load(1, XDATA, add(CFA_XSP16, literal(-9)))
        CFI (cfiCond252) V2 load(1, XDATA, add(CFA_XSP16, literal(-8)))
        CFI (cfiCond252) V3 load(1, XDATA, add(CFA_XSP16, literal(-7)))
        CFI (cfiCond252) R7 load(1, XDATA, add(CFA_XSP16, literal(-6)))
        CFI (cfiCond252) ?RET_LOW load(1, XDATA, add(CFA_XSP16, literal(-5)))
        CFI (cfiCond252) ?RET_HIGH load(1, XDATA, add(CFA_XSP16, literal(-4)))
        CFI (cfiCond252) ?BRET_EXT load(1, XDATA, add(CFA_XSP16, literal(-3)))
        CFI (cfiCond252) DPL0 load(1, XDATA, add(CFA_XSP16, literal(-2)))
        CFI (cfiCond252) DPH0 load(1, XDATA, add(CFA_XSP16, literal(-1)))
        CFI (cfiCond252) CFA_SP SP+0
        CFI (cfiCond252) CFA_XSP16 add(XSP16, 12)
        CFI Block cfiCond253 Using cfiCommon0
        CFI (cfiCond253) NoFunction
        CFI (cfiCond253) Conditional ??CrossCallReturnLabel_63, ??CrossCallReturnLabel_61, ??CrossCallReturnLabel_57, ??CrossCallReturnLabel_52, ??CrossCallReturnLabel_49, ??CrossCallReturnLabel_26
        CFI (cfiCond253) R6 load(1, XDATA, add(CFA_XSP16, literal(-12)))
        CFI (cfiCond253) VB load(1, XDATA, add(CFA_XSP16, literal(-11)))
        CFI (cfiCond253) V0 load(1, XDATA, add(CFA_XSP16, literal(-10)))
        CFI (cfiCond253) V1 load(1, XDATA, add(CFA_XSP16, literal(-9)))
        CFI (cfiCond253) V2 load(1, XDATA, add(CFA_XSP16, literal(-8)))
        CFI (cfiCond253) V3 load(1, XDATA, add(CFA_XSP16, literal(-7)))
        CFI (cfiCond253) R7 load(1, XDATA, add(CFA_XSP16, literal(-6)))
        CFI (cfiCond253) ?RET_LOW load(1, XDATA, add(CFA_XSP16, literal(-5)))
        CFI (cfiCond253) ?RET_HIGH load(1, XDATA, add(CFA_XSP16, literal(-4)))
        CFI (cfiCond253) ?BRET_EXT load(1, XDATA, add(CFA_XSP16, literal(-3)))
        CFI (cfiCond253) DPL0 load(1, XDATA, add(CFA_XSP16, literal(-2)))
        CFI (cfiCond253) DPH0 load(1, XDATA, add(CFA_XSP16, literal(-1)))
        CFI (cfiCond253) CFA_SP SP+0
        CFI (cfiCond253) CFA_XSP16 add(XSP16, 12)
        CFI Block cfiCond254 Using cfiCommon0
        CFI (cfiCond254) NoFunction
        CFI (cfiCond254) Conditional ??CrossCallReturnLabel_63, ??CrossCallReturnLabel_61, ??CrossCallReturnLabel_57, ??CrossCallReturnLabel_52, ??CrossCallReturnLabel_49, ??CrossCallReturnLabel_27
        CFI (cfiCond254) R6 load(1, XDATA, add(CFA_XSP16, literal(-12)))
        CFI (cfiCond254) VB load(1, XDATA, add(CFA_XSP16, literal(-11)))
        CFI (cfiCond254) V0 load(1, XDATA, add(CFA_XSP16, literal(-10)))
        CFI (cfiCond254) V1 load(1, XDATA, add(CFA_XSP16, literal(-9)))
        CFI (cfiCond254) V2 load(1, XDATA, add(CFA_XSP16, literal(-8)))
        CFI (cfiCond254) V3 load(1, XDATA, add(CFA_XSP16, literal(-7)))
        CFI (cfiCond254) R7 load(1, XDATA, add(CFA_XSP16, literal(-6)))
        CFI (cfiCond254) ?RET_LOW load(1, XDATA, add(CFA_XSP16, literal(-5)))
        CFI (cfiCond254) ?RET_HIGH load(1, XDATA, add(CFA_XSP16, literal(-4)))
        CFI (cfiCond254) ?BRET_EXT load(1, XDATA, add(CFA_XSP16, literal(-3)))
        CFI (cfiCond254) DPL0 load(1, XDATA, add(CFA_XSP16, literal(-2)))
        CFI (cfiCond254) DPH0 load(1, XDATA, add(CFA_XSP16, literal(-1)))
        CFI (cfiCond254) CFA_SP SP+0
        CFI (cfiCond254) CFA_XSP16 add(XSP16, 12)
        CFI Block cfiCond255 Using cfiCommon0
        CFI (cfiCond255) NoFunction
        CFI (cfiCond255) Conditional ??CrossCallReturnLabel_63, ??CrossCallReturnLabel_61, ??CrossCallReturnLabel_57, ??CrossCallReturnLabel_53, ??CrossCallReturnLabel_48, ??CrossCallReturnLabel_26
        CFI (cfiCond255) R6 load(1, XDATA, add(CFA_XSP16, literal(-12)))
        CFI (cfiCond255) VB load(1, XDATA, add(CFA_XSP16, literal(-11)))
        CFI (cfiCond255) V0 load(1, XDATA, add(CFA_XSP16, literal(-10)))
        CFI (cfiCond255) V1 load(1, XDATA, add(CFA_XSP16, literal(-9)))
        CFI (cfiCond255) V2 load(1, XDATA, add(CFA_XSP16, literal(-8)))
        CFI (cfiCond255) V3 load(1, XDATA, add(CFA_XSP16, literal(-7)))
        CFI (cfiCond255) R7 load(1, XDATA, add(CFA_XSP16, literal(-6)))
        CFI (cfiCond255) ?RET_LOW load(1, XDATA, add(CFA_XSP16, literal(-5)))
        CFI (cfiCond255) ?RET_HIGH load(1, XDATA, add(CFA_XSP16, literal(-4)))
        CFI (cfiCond255) ?BRET_EXT load(1, XDATA, add(CFA_XSP16, literal(-3)))
        CFI (cfiCond255) DPL0 load(1, XDATA, add(CFA_XSP16, literal(-2)))
        CFI (cfiCond255) DPH0 load(1, XDATA, add(CFA_XSP16, literal(-1)))
        CFI (cfiCond255) CFA_SP SP+0
        CFI (cfiCond255) CFA_XSP16 add(XSP16, 12)
        CFI Block cfiCond256 Using cfiCommon0
        CFI (cfiCond256) NoFunction
        CFI (cfiCond256) Conditional ??CrossCallReturnLabel_63, ??CrossCallReturnLabel_61, ??CrossCallReturnLabel_57, ??CrossCallReturnLabel_53, ??CrossCallReturnLabel_48, ??CrossCallReturnLabel_27
        CFI (cfiCond256) R6 load(1, XDATA, add(CFA_XSP16, literal(-12)))
        CFI (cfiCond256) VB load(1, XDATA, add(CFA_XSP16, literal(-11)))
        CFI (cfiCond256) V0 load(1, XDATA, add(CFA_XSP16, literal(-10)))
        CFI (cfiCond256) V1 load(1, XDATA, add(CFA_XSP16, literal(-9)))
        CFI (cfiCond256) V2 load(1, XDATA, add(CFA_XSP16, literal(-8)))
        CFI (cfiCond256) V3 load(1, XDATA, add(CFA_XSP16, literal(-7)))
        CFI (cfiCond256) R7 load(1, XDATA, add(CFA_XSP16, literal(-6)))
        CFI (cfiCond256) ?RET_LOW load(1, XDATA, add(CFA_XSP16, literal(-5)))
        CFI (cfiCond256) ?RET_HIGH load(1, XDATA, add(CFA_XSP16, literal(-4)))
        CFI (cfiCond256) ?BRET_EXT load(1, XDATA, add(CFA_XSP16, literal(-3)))
        CFI (cfiCond256) DPL0 load(1, XDATA, add(CFA_XSP16, literal(-2)))
        CFI (cfiCond256) DPH0 load(1, XDATA, add(CFA_XSP16, literal(-1)))
        CFI (cfiCond256) CFA_SP SP+0
        CFI (cfiCond256) CFA_XSP16 add(XSP16, 12)
        CFI Block cfiCond257 Using cfiCommon0
        CFI (cfiCond257) NoFunction
        CFI (cfiCond257) Conditional ??CrossCallReturnLabel_63, ??CrossCallReturnLabel_61, ??CrossCallReturnLabel_57, ??CrossCallReturnLabel_53, ??CrossCallReturnLabel_49, ??CrossCallReturnLabel_26
        CFI (cfiCond257) R6 load(1, XDATA, add(CFA_XSP16, literal(-12)))
        CFI (cfiCond257) VB load(1, XDATA, add(CFA_XSP16, literal(-11)))
        CFI (cfiCond257) V0 load(1, XDATA, add(CFA_XSP16, literal(-10)))
        CFI (cfiCond257) V1 load(1, XDATA, add(CFA_XSP16, literal(-9)))
        CFI (cfiCond257) V2 load(1, XDATA, add(CFA_XSP16, literal(-8)))
        CFI (cfiCond257) V3 load(1, XDATA, add(CFA_XSP16, literal(-7)))
        CFI (cfiCond257) R7 load(1, XDATA, add(CFA_XSP16, literal(-6)))
        CFI (cfiCond257) ?RET_LOW load(1, XDATA, add(CFA_XSP16, literal(-5)))
        CFI (cfiCond257) ?RET_HIGH load(1, XDATA, add(CFA_XSP16, literal(-4)))
        CFI (cfiCond257) ?BRET_EXT load(1, XDATA, add(CFA_XSP16, literal(-3)))
        CFI (cfiCond257) DPL0 load(1, XDATA, add(CFA_XSP16, literal(-2)))
        CFI (cfiCond257) DPH0 load(1, XDATA, add(CFA_XSP16, literal(-1)))
        CFI (cfiCond257) CFA_SP SP+0
        CFI (cfiCond257) CFA_XSP16 add(XSP16, 12)
        CFI Block cfiCond258 Using cfiCommon0
        CFI (cfiCond258) NoFunction
        CFI (cfiCond258) Conditional ??CrossCallReturnLabel_63, ??CrossCallReturnLabel_61, ??CrossCallReturnLabel_57, ??CrossCallReturnLabel_53, ??CrossCallReturnLabel_49, ??CrossCallReturnLabel_27
        CFI (cfiCond258) R6 load(1, XDATA, add(CFA_XSP16, literal(-12)))
        CFI (cfiCond258) VB load(1, XDATA, add(CFA_XSP16, literal(-11)))
        CFI (cfiCond258) V0 load(1, XDATA, add(CFA_XSP16, literal(-10)))
        CFI (cfiCond258) V1 load(1, XDATA, add(CFA_XSP16, literal(-9)))
        CFI (cfiCond258) V2 load(1, XDATA, add(CFA_XSP16, literal(-8)))
        CFI (cfiCond258) V3 load(1, XDATA, add(CFA_XSP16, literal(-7)))
        CFI (cfiCond258) R7 load(1, XDATA, add(CFA_XSP16, literal(-6)))
        CFI (cfiCond258) ?RET_LOW load(1, XDATA, add(CFA_XSP16, literal(-5)))
        CFI (cfiCond258) ?RET_HIGH load(1, XDATA, add(CFA_XSP16, literal(-4)))
        CFI (cfiCond258) ?BRET_EXT load(1, XDATA, add(CFA_XSP16, literal(-3)))
        CFI (cfiCond258) DPL0 load(1, XDATA, add(CFA_XSP16, literal(-2)))
        CFI (cfiCond258) DPH0 load(1, XDATA, add(CFA_XSP16, literal(-1)))
        CFI (cfiCond258) CFA_SP SP+0
        CFI (cfiCond258) CFA_XSP16 add(XSP16, 12)
        CFI Block cfiPicker259 Using cfiCommon1
        CFI (cfiPicker259) NoFunction
        CFI (cfiPicker259) Picker
        MOV     A,R7
        MOV     R1,A
        LCALL   ??SendByte?relay
        ; Setup parameters for call to function SendByte
        ; Setup parameters for call to function SendByte
        ; Setup parameters for call to function SendByte
        ; Setup parameters for call to function SendByte
        ; Setup parameters for call to function SendByte
        ; Setup parameters for call to function SendByte
        ; Setup parameters for call to function SendByte
        ; Setup parameters for call to function SendByte
        ; Setup parameters for call to function SendByte
        ; Setup parameters for call to function SendByte
        ; Setup parameters for call to function SendByte
        ; Setup parameters for call to function SendByte
        ; Setup parameters for call to function SendByte
        ; Setup parameters for call to function SendByte
        ; Setup parameters for call to function SendByte
        ; Setup parameters for call to function SendByte
        ; Setup parameters for call to function SendByte
        ; Setup parameters for call to function SendByte
        ; Setup parameters for call to function SendByte
        ; Setup parameters for call to function SendByte
        ; Setup parameters for call to function SendByte
        ; Setup parameters for call to function SendByte
        ; Setup parameters for call to function SendByte
        ; Setup parameters for call to function SendByte
        ; Setup parameters for call to function SendByte
        ; Setup parameters for call to function SendByte
        ; Setup parameters for call to function SendByte
        ; Setup parameters for call to function SendByte
        ; Setup parameters for call to function SendByte
        ; Setup parameters for call to function SendByte
        ; Setup parameters for call to function SendByte
        ; Setup parameters for call to function SendByte
        ; Setup parameters for call to function SendByte
        ; Setup parameters for call to function SendByte
        ; Setup parameters for call to function SendByte
        ; Setup parameters for call to function SendByte
        ; Setup parameters for call to function SendByte
        ; Setup parameters for call to function SendByte
        ; Setup parameters for call to function SendByte
        ; Setup parameters for call to function SendByte
        ; Setup parameters for call to function SendByte
        ; Setup parameters for call to function SendByte
        ; Setup parameters for call to function SendByte
        ; Setup parameters for call to function SendByte
        ; Setup parameters for call to function SendByte
        ; Setup parameters for call to function SendByte
        ; Setup parameters for call to function SendByte
        ; Setup parameters for call to function SendByte
        ; Setup parameters for call to function SendByte
        ; Setup parameters for call to function SendByte
        ; Setup parameters for call to function SendByte
        ; Setup parameters for call to function SendByte
        ; Setup parameters for call to function SendByte
        ; Setup parameters for call to function SendByte
        ; Setup parameters for call to function SendByte
        ; Setup parameters for call to function SendByte
        ; Setup parameters for call to function SendByte
        ; Setup parameters for call to function SendByte
        ; Setup parameters for call to function SendByte
        ; Setup parameters for call to function SendByte
        ; Setup parameters for call to function SendByte
        ; Setup parameters for call to function SendByte
        ; Setup parameters for call to function SendByte
        ; Setup parameters for call to function SendByte
        MOV     A,R6
        MOV     R1,A
        LCALL   ??SendByte?relay
        RET
        CFI EndBlock cfiCond195
        CFI EndBlock cfiCond196
        CFI EndBlock cfiCond197
        CFI EndBlock cfiCond198
        CFI EndBlock cfiCond199
        CFI EndBlock cfiCond200
        CFI EndBlock cfiCond201
        CFI EndBlock cfiCond202
        CFI EndBlock cfiCond203
        CFI EndBlock cfiCond204
        CFI EndBlock cfiCond205
        CFI EndBlock cfiCond206
        CFI EndBlock cfiCond207
        CFI EndBlock cfiCond208
        CFI EndBlock cfiCond209
        CFI EndBlock cfiCond210
        CFI EndBlock cfiCond211
        CFI EndBlock cfiCond212
        CFI EndBlock cfiCond213
        CFI EndBlock cfiCond214
        CFI EndBlock cfiCond215
        CFI EndBlock cfiCond216
        CFI EndBlock cfiCond217
        CFI EndBlock cfiCond218
        CFI EndBlock cfiCond219
        CFI EndBlock cfiCond220
        CFI EndBlock cfiCond221
        CFI EndBlock cfiCond222
        CFI EndBlock cfiCond223
        CFI EndBlock cfiCond224
        CFI EndBlock cfiCond225
        CFI EndBlock cfiCond226
        CFI EndBlock cfiCond227
        CFI EndBlock cfiCond228
        CFI EndBlock cfiCond229
        CFI EndBlock cfiCond230
        CFI EndBlock cfiCond231
        CFI EndBlock cfiCond232
        CFI EndBlock cfiCond233
        CFI EndBlock cfiCond234
        CFI EndBlock cfiCond235
        CFI EndBlock cfiCond236
        CFI EndBlock cfiCond237
        CFI EndBlock cfiCond238
        CFI EndBlock cfiCond239
        CFI EndBlock cfiCond240
        CFI EndBlock cfiCond241
        CFI EndBlock cfiCond242
        CFI EndBlock cfiCond243
        CFI EndBlock cfiCond244
        CFI EndBlock cfiCond245
        CFI EndBlock cfiCond246
        CFI EndBlock cfiCond247
        CFI EndBlock cfiCond248
        CFI EndBlock cfiCond249
        CFI EndBlock cfiCond250
        CFI EndBlock cfiCond251
        CFI EndBlock cfiCond252
        CFI EndBlock cfiCond253
        CFI EndBlock cfiCond254
        CFI EndBlock cfiCond255
        CFI EndBlock cfiCond256
        CFI EndBlock cfiCond257
        CFI EndBlock cfiCond258
        CFI EndBlock cfiPicker259
//  442 
//  443 /****************************************************************************
//  444 * 名    称: LCD_set_window()
//  445 * 功    能: 设置显示窗口
//  446 * 入口参数: X - 显示窗口左上角横坐标      Y ―显示窗口左上角纵坐标
//  447 *           Width ―显示窗口宽度          Height ―显示窗口高度
//  448 * 出口参数: 无
//  449 ****************************************************************************/

        RSEG BANKED_CODE:CODE:NOROOT(0)
//  450 static void LCD_set_window(unsigned int X    , unsigned int Y, 
LCD_set_window:
        CFI Block cfiBlock260 Using cfiCommon0
        CFI Function LCD_set_window
        CODE
//  451                            unsigned int Width, unsigned int Height)
//  452 {
        FUNCALL LCD_set_window, LCD_write_byte
        LOCFRAME ISTACK, 0, STACK
        LOCFRAME PSTACK, 0, STACK
        LOCFRAME XSTACK, 14, STACK
        LOCFRAME IOVERLAY, 0, STATIC
        LOCFRAME DOVERLAY, 0, STATIC
        ARGFRAME ISTACK, 0, STACK
        ARGFRAME PSTACK, 0, STACK
        ARGFRAME XSTACK, 14, STACK
        ARGFRAME IOVERLAY, 0, STATIC
        ARGFRAME DOVERLAY, 0, STATIC
        FUNCALL LCD_set_window, LCD_write_byte
        LOCFRAME ISTACK, 0, STACK
        LOCFRAME PSTACK, 0, STACK
        LOCFRAME XSTACK, 14, STACK
        LOCFRAME IOVERLAY, 0, STATIC
        LOCFRAME DOVERLAY, 0, STATIC
        ARGFRAME ISTACK, 0, STACK
        ARGFRAME PSTACK, 0, STACK
        ARGFRAME XSTACK, 14, STACK
        ARGFRAME IOVERLAY, 0, STATIC
        ARGFRAME DOVERLAY, 0, STATIC
        FUNCALL LCD_set_window, LCD_write_byte
        LOCFRAME ISTACK, 0, STACK
        LOCFRAME PSTACK, 0, STACK
        LOCFRAME XSTACK, 14, STACK
        LOCFRAME IOVERLAY, 0, STATIC
        LOCFRAME DOVERLAY, 0, STATIC
        ARGFRAME ISTACK, 0, STACK
        ARGFRAME PSTACK, 0, STACK
        ARGFRAME XSTACK, 14, STACK
        ARGFRAME IOVERLAY, 0, STATIC
        ARGFRAME DOVERLAY, 0, STATIC
        FUNCALL LCD_set_window, LCD_write_byte
        LOCFRAME ISTACK, 0, STACK
        LOCFRAME PSTACK, 0, STACK
        LOCFRAME XSTACK, 14, STACK
        LOCFRAME IOVERLAY, 0, STATIC
        LOCFRAME DOVERLAY, 0, STATIC
        ARGFRAME ISTACK, 0, STACK
        ARGFRAME PSTACK, 0, STACK
        ARGFRAME XSTACK, 14, STACK
        ARGFRAME IOVERLAY, 0, STATIC
        ARGFRAME DOVERLAY, 0, STATIC
        FUNCALL LCD_set_window, LCD_write_byte
        LOCFRAME ISTACK, 0, STACK
        LOCFRAME PSTACK, 0, STACK
        LOCFRAME XSTACK, 14, STACK
        LOCFRAME IOVERLAY, 0, STATIC
        LOCFRAME DOVERLAY, 0, STATIC
        ARGFRAME ISTACK, 0, STACK
        ARGFRAME PSTACK, 0, STACK
        ARGFRAME XSTACK, 14, STACK
        ARGFRAME IOVERLAY, 0, STATIC
        ARGFRAME DOVERLAY, 0, STATIC
        FUNCALL LCD_set_window, LCD_write_byte
        LOCFRAME ISTACK, 0, STACK
        LOCFRAME PSTACK, 0, STACK
        LOCFRAME XSTACK, 14, STACK
        LOCFRAME IOVERLAY, 0, STATIC
        LOCFRAME DOVERLAY, 0, STATIC
        ARGFRAME ISTACK, 0, STACK
        ARGFRAME PSTACK, 0, STACK
        ARGFRAME XSTACK, 14, STACK
        ARGFRAME IOVERLAY, 0, STATIC
        ARGFRAME DOVERLAY, 0, STATIC
        FUNCALL LCD_set_window, LCD_write_byte
        LOCFRAME ISTACK, 0, STACK
        LOCFRAME PSTACK, 0, STACK
        LOCFRAME XSTACK, 14, STACK
        LOCFRAME IOVERLAY, 0, STATIC
        LOCFRAME DOVERLAY, 0, STATIC
        ARGFRAME ISTACK, 0, STACK
        ARGFRAME PSTACK, 0, STACK
        ARGFRAME XSTACK, 14, STACK
        ARGFRAME IOVERLAY, 0, STATIC
        ARGFRAME DOVERLAY, 0, STATIC
        FUNCALL LCD_set_window, LCD_write_byte
        LOCFRAME ISTACK, 0, STACK
        LOCFRAME PSTACK, 0, STACK
        LOCFRAME XSTACK, 14, STACK
        LOCFRAME IOVERLAY, 0, STATIC
        LOCFRAME DOVERLAY, 0, STATIC
        ARGFRAME ISTACK, 0, STACK
        ARGFRAME PSTACK, 0, STACK
        ARGFRAME XSTACK, 14, STACK
        ARGFRAME IOVERLAY, 0, STATIC
        ARGFRAME DOVERLAY, 0, STATIC
        FUNCALL LCD_set_window, LCD_write_byte
        LOCFRAME ISTACK, 0, STACK
        LOCFRAME PSTACK, 0, STACK
        LOCFRAME XSTACK, 14, STACK
        LOCFRAME IOVERLAY, 0, STATIC
        LOCFRAME DOVERLAY, 0, STATIC
        ARGFRAME ISTACK, 0, STACK
        ARGFRAME PSTACK, 0, STACK
        ARGFRAME XSTACK, 14, STACK
        ARGFRAME IOVERLAY, 0, STATIC
        ARGFRAME DOVERLAY, 0, STATIC
        FUNCALL LCD_set_window, LCD_write_byte
        LOCFRAME ISTACK, 0, STACK
        LOCFRAME PSTACK, 0, STACK
        LOCFRAME XSTACK, 14, STACK
        LOCFRAME IOVERLAY, 0, STATIC
        LOCFRAME DOVERLAY, 0, STATIC
        ARGFRAME ISTACK, 0, STACK
        ARGFRAME PSTACK, 0, STACK
        ARGFRAME XSTACK, 14, STACK
        ARGFRAME IOVERLAY, 0, STATIC
        ARGFRAME DOVERLAY, 0, STATIC
        FUNCALL LCD_set_window, LCD_write_byte
        LOCFRAME ISTACK, 0, STACK
        LOCFRAME PSTACK, 0, STACK
        LOCFRAME XSTACK, 14, STACK
        LOCFRAME IOVERLAY, 0, STATIC
        LOCFRAME DOVERLAY, 0, STATIC
        ARGFRAME ISTACK, 0, STACK
        ARGFRAME PSTACK, 0, STACK
        ARGFRAME XSTACK, 14, STACK
        ARGFRAME IOVERLAY, 0, STATIC
        ARGFRAME DOVERLAY, 0, STATIC
        MOV     A,#-0xe
        LCALL   ?BANKED_ENTER_XDATA
        CFI DPH0 load(1, XDATA, add(CFA_XSP16, literal(-1)))
        CFI DPL0 load(1, XDATA, add(CFA_XSP16, literal(-2)))
        CFI ?BRET_EXT load(1, XDATA, add(CFA_XSP16, literal(-3)))
        CFI ?RET_HIGH load(1, XDATA, add(CFA_XSP16, literal(-4)))
        CFI ?RET_LOW load(1, XDATA, add(CFA_XSP16, literal(-5)))
        CFI R7 load(1, XDATA, add(CFA_XSP16, literal(-6)))
        CFI V5 load(1, XDATA, add(CFA_XSP16, literal(-7)))
        CFI V4 load(1, XDATA, add(CFA_XSP16, literal(-8)))
        CFI V3 load(1, XDATA, add(CFA_XSP16, literal(-9)))
        CFI V2 load(1, XDATA, add(CFA_XSP16, literal(-10)))
        CFI V1 load(1, XDATA, add(CFA_XSP16, literal(-11)))
        CFI V0 load(1, XDATA, add(CFA_XSP16, literal(-12)))
        CFI VB load(1, XDATA, add(CFA_XSP16, literal(-13)))
        CFI R6 load(1, XDATA, add(CFA_XSP16, literal(-14)))
        CFI CFA_SP SP+0
        CFI CFA_XSP16 add(XSP16, 14)
        ; Saved register size: 14
        ; Auto size: 0
        MOV     ?V0 + 0,R2
        MOV     ?V0 + 1,R3
        MOV     A,R4
        MOV     R6,A
        MOV     A,R5
        MOV     R7,A
        MOV     A,#0xe
        LCALL   ?XSTACK_DISP0_8
        LCALL   ?Subroutine18 & 0xFFFF
??CrossCallReturnLabel_30:
        MOV     A,#0x10
        LCALL   ?XSTACK_DISP0_8
        LCALL   ?Subroutine19 & 0xFFFF
//  453   LCD_write_byte(0x2A,LCD_COMMAND);         //列地址设置命令
??CrossCallReturnLabel_33:
        ; Setup parameters for call to function LCD_write_byte
        MOV     R2,#0x0
        MOV     R1,#0x2a
        LCALL   ??Subroutine36_0 & 0xFFFF
//  454   LCD_write_byte(X>>8,LCD_DATA) ;           //设置显示窗口左上角横坐标高位
??CrossCallReturnLabel_92:
        MOV     R1,?V0 + 1
        LCALL   ??Subroutine36_0 & 0xFFFF
//  455   LCD_write_byte((X+2)&0xFF,LCD_DATA);      //设置显示窗口左上角横坐标低位 	
??CrossCallReturnLabel_93:
        MOV     A,?V0 + 0
        ADD     A,#0x2
        LCALL   ?Subroutine12 & 0xFFFF
//  456   LCD_write_byte((X+Width+1)>>8,LCD_DATA);  //设置宽度高位 	
??CrossCallReturnLabel_17:
        MOV     R0,A
        MOV     A,?V0 + 1
        ADDC    A,?V0 + 5
        MOV     R1,A
        MOV     A,R0
        ADD     A,#0x1
        MOV     A,R1
        ADDC    A,#0x0
        LCALL   ?Subroutine12 & 0xFFFF
//  457   LCD_write_byte((X+Width+1)&0xFF,LCD_DATA);// 设置宽度低位 	
??CrossCallReturnLabel_18:
        INC     A
        MOV     R1,A
        LCALL   ??Subroutine38_0 & 0xFFFF
//  458   
//  459   LCD_write_byte(0x2B,LCD_COMMAND);         //行地址设置命令
??CrossCallReturnLabel_128:
        MOV     R1,#0x2b
        LCALL   ??Subroutine36_0 & 0xFFFF
//  460   LCD_write_byte(Y>>8,LCD_DATA) ;           //设置显示窗口左上角纵坐标高位
??CrossCallReturnLabel_94:
        MOV     A,R7
        MOV     R1,A
        LCALL   ??Subroutine36_0 & 0xFFFF
//  461   LCD_write_byte((Y+3)&0xFF,LCD_DATA);      //设置显示窗口左上角纵坐标低位 
??CrossCallReturnLabel_95:
        MOV     A,R6
        ADD     A,#0x3
        LCALL   ?Subroutine13 & 0xFFFF
//  462   LCD_write_byte((Y+Height+2)>>8,LCD_DATA); // 设置显示窗口高度高位 	
??CrossCallReturnLabel_19:
        MOV     R0,A
        MOV     A,R7
        ADDC    A,?V0 + 3
        MOV     R1,A
        MOV     A,R0
        ADD     A,#0x2
        MOV     A,R1
        ADDC    A,#0x0
        LCALL   ?Subroutine13 & 0xFFFF
//  463   LCD_write_byte((Y+Height+2)&0xFF,LCD_DATA);// 设置显示窗口高度低位 	  
??CrossCallReturnLabel_20:
        ADD     A,#0x2
        MOV     R1,A
        LCALL   ??Subroutine38_0 & 0xFFFF
//  464   LCD_write_byte(0x2C,LCD_COMMAND) ;
??CrossCallReturnLabel_129:
        MOV     R1,#0x2c
        LCALL   ??LCD_write_byte?relay
        CFI EndBlock cfiBlock260
//  465 }
        REQUIRE ?Subroutine2
        ; // Fall through to label ?Subroutine2

        RSEG BANKED_CODE:CODE:NOROOT(0)
?Subroutine2:
        CFI Block cfiBlock261 Using cfiCommon0
        CFI NoFunction
        CFI CFA_SP SP+0
        CFI CFA_XSP16 add(XSP16, 14)
        CFI VB load(1, XDATA, add(CFA_XSP16, literal(-13)))
        CFI DPL0 load(1, XDATA, add(CFA_XSP16, literal(-2)))
        CFI DPH0 load(1, XDATA, add(CFA_XSP16, literal(-1)))
        CFI R6 load(1, XDATA, add(CFA_XSP16, literal(-14)))
        CFI R7 load(1, XDATA, add(CFA_XSP16, literal(-6)))
        CFI V0 load(1, XDATA, add(CFA_XSP16, literal(-12)))
        CFI V1 load(1, XDATA, add(CFA_XSP16, literal(-11)))
        CFI V2 load(1, XDATA, add(CFA_XSP16, literal(-10)))
        CFI V3 load(1, XDATA, add(CFA_XSP16, literal(-9)))
        CFI V4 load(1, XDATA, add(CFA_XSP16, literal(-8)))
        CFI V5 load(1, XDATA, add(CFA_XSP16, literal(-7)))
        CFI ?BRET_EXT load(1, XDATA, add(CFA_XSP16, literal(-3)))
        CFI ?RET_HIGH load(1, XDATA, add(CFA_XSP16, literal(-4)))
        CFI ?RET_LOW load(1, XDATA, add(CFA_XSP16, literal(-5)))
        MOV     R7,#0x6
        LJMP    ?BANKED_LEAVE_XDATA
        CFI EndBlock cfiBlock261

        RSEG BANKED_CODE:CODE:NOROOT(0)
?Subroutine14:
        CFI Block cfiCond262 Using cfiCommon0
        CFI NoFunction
        CFI Conditional ??CrossCallReturnLabel_64
        CFI DPL0 Frame(CFA_SP, 4)
        CFI DPH0 Frame(CFA_SP, 5)
        CFI CFA_SP SP+-5
        CFI Block cfiCond263 Using cfiCommon0
        CFI (cfiCond263) NoFunction
        CFI (cfiCond263) Conditional ??CrossCallReturnLabel_65
        CFI (cfiCond263) DPL0 Frame(CFA_SP, 4)
        CFI (cfiCond263) DPH0 Frame(CFA_SP, 5)
        CFI (cfiCond263) CFA_SP SP+-5
        CFI Block cfiPicker264 Using cfiCommon1
        CFI (cfiPicker264) NoFunction
        CFI (cfiPicker264) Picker
        MOV     R1,#0x2
        CFI EndBlock cfiCond262
        CFI EndBlock cfiCond263
        CFI EndBlock cfiPicker264
        REQUIRE ??Subroutine36_0
        ; // Fall through to label ??Subroutine36_0

        RSEG BANKED_CODE:CODE:NOROOT(0)
??Subroutine36_0:
        CFI Block cfiCond265 Using cfiCommon0
        CFI NoFunction
        CFI Conditional ??CrossCallReturnLabel_66
        CFI DPL0 Frame(CFA_SP, 4)
        CFI DPH0 Frame(CFA_SP, 5)
        CFI CFA_SP SP+-5
        CFI Block cfiCond266 Using cfiCommon0
        CFI (cfiCond266) NoFunction
        CFI (cfiCond266) Conditional ??CrossCallReturnLabel_67
        CFI (cfiCond266) DPL0 Frame(CFA_SP, 4)
        CFI (cfiCond266) DPH0 Frame(CFA_SP, 5)
        CFI (cfiCond266) CFA_SP SP+-5
        CFI Block cfiCond267 Using cfiCommon0
        CFI (cfiCond267) NoFunction
        CFI (cfiCond267) Conditional ??CrossCallReturnLabel_68
        CFI (cfiCond267) DPL0 Frame(CFA_SP, 4)
        CFI (cfiCond267) DPH0 Frame(CFA_SP, 5)
        CFI (cfiCond267) CFA_SP SP+-5
        CFI Block cfiCond268 Using cfiCommon0
        CFI (cfiCond268) NoFunction
        CFI (cfiCond268) Conditional ??CrossCallReturnLabel_69
        CFI (cfiCond268) DPL0 Frame(CFA_SP, 4)
        CFI (cfiCond268) DPH0 Frame(CFA_SP, 5)
        CFI (cfiCond268) CFA_SP SP+-5
        CFI Block cfiCond269 Using cfiCommon0
        CFI (cfiCond269) NoFunction
        CFI (cfiCond269) Conditional ??CrossCallReturnLabel_70
        CFI (cfiCond269) DPL0 Frame(CFA_SP, 4)
        CFI (cfiCond269) DPH0 Frame(CFA_SP, 5)
        CFI (cfiCond269) CFA_SP SP+-5
        CFI Block cfiCond270 Using cfiCommon0
        CFI (cfiCond270) NoFunction
        CFI (cfiCond270) Conditional ??CrossCallReturnLabel_71
        CFI (cfiCond270) DPL0 Frame(CFA_SP, 4)
        CFI (cfiCond270) DPH0 Frame(CFA_SP, 5)
        CFI (cfiCond270) CFA_SP SP+-5
        CFI Block cfiCond271 Using cfiCommon0
        CFI (cfiCond271) NoFunction
        CFI (cfiCond271) Conditional ??CrossCallReturnLabel_72
        CFI (cfiCond271) DPL0 Frame(CFA_SP, 4)
        CFI (cfiCond271) DPH0 Frame(CFA_SP, 5)
        CFI (cfiCond271) CFA_SP SP+-5
        CFI Block cfiCond272 Using cfiCommon0
        CFI (cfiCond272) NoFunction
        CFI (cfiCond272) Conditional ??CrossCallReturnLabel_73
        CFI (cfiCond272) DPL0 Frame(CFA_SP, 4)
        CFI (cfiCond272) DPH0 Frame(CFA_SP, 5)
        CFI (cfiCond272) CFA_SP SP+-5
        CFI Block cfiCond273 Using cfiCommon0
        CFI (cfiCond273) NoFunction
        CFI (cfiCond273) Conditional ??CrossCallReturnLabel_74
        CFI (cfiCond273) DPL0 Frame(CFA_SP, 4)
        CFI (cfiCond273) DPH0 Frame(CFA_SP, 5)
        CFI (cfiCond273) CFA_SP SP+-5
        CFI Block cfiCond274 Using cfiCommon0
        CFI (cfiCond274) NoFunction
        CFI (cfiCond274) Conditional ??CrossCallReturnLabel_75
        CFI (cfiCond274) DPL0 Frame(CFA_SP, 4)
        CFI (cfiCond274) DPH0 Frame(CFA_SP, 5)
        CFI (cfiCond274) CFA_SP SP+-5
        CFI Block cfiCond275 Using cfiCommon0
        CFI (cfiCond275) NoFunction
        CFI (cfiCond275) Conditional ??CrossCallReturnLabel_76
        CFI (cfiCond275) DPL0 Frame(CFA_SP, 4)
        CFI (cfiCond275) DPH0 Frame(CFA_SP, 5)
        CFI (cfiCond275) CFA_SP SP+-5
        CFI Block cfiCond276 Using cfiCommon0
        CFI (cfiCond276) NoFunction
        CFI (cfiCond276) Conditional ??CrossCallReturnLabel_77
        CFI (cfiCond276) DPL0 Frame(CFA_SP, 4)
        CFI (cfiCond276) DPH0 Frame(CFA_SP, 5)
        CFI (cfiCond276) CFA_SP SP+-5
        CFI Block cfiCond277 Using cfiCommon0
        CFI (cfiCond277) NoFunction
        CFI (cfiCond277) Conditional ??CrossCallReturnLabel_78
        CFI (cfiCond277) DPL0 Frame(CFA_SP, 4)
        CFI (cfiCond277) DPH0 Frame(CFA_SP, 5)
        CFI (cfiCond277) CFA_SP SP+-5
        CFI Block cfiCond278 Using cfiCommon0
        CFI (cfiCond278) NoFunction
        CFI (cfiCond278) Conditional ??CrossCallReturnLabel_79
        CFI (cfiCond278) DPL0 Frame(CFA_SP, 4)
        CFI (cfiCond278) DPH0 Frame(CFA_SP, 5)
        CFI (cfiCond278) CFA_SP SP+-5
        CFI Block cfiCond279 Using cfiCommon0
        CFI (cfiCond279) NoFunction
        CFI (cfiCond279) Conditional ??CrossCallReturnLabel_80
        CFI (cfiCond279) DPL0 Frame(CFA_SP, 4)
        CFI (cfiCond279) DPH0 Frame(CFA_SP, 5)
        CFI (cfiCond279) CFA_SP SP+-5
        CFI Block cfiCond280 Using cfiCommon0
        CFI (cfiCond280) NoFunction
        CFI (cfiCond280) Conditional ??CrossCallReturnLabel_81
        CFI (cfiCond280) DPL0 Frame(CFA_SP, 4)
        CFI (cfiCond280) DPH0 Frame(CFA_SP, 5)
        CFI (cfiCond280) CFA_SP SP+-5
        CFI Block cfiCond281 Using cfiCommon0
        CFI (cfiCond281) NoFunction
        CFI (cfiCond281) Conditional ??CrossCallReturnLabel_82
        CFI (cfiCond281) DPL0 Frame(CFA_SP, 4)
        CFI (cfiCond281) DPH0 Frame(CFA_SP, 5)
        CFI (cfiCond281) CFA_SP SP+-5
        CFI Block cfiCond282 Using cfiCommon0
        CFI (cfiCond282) NoFunction
        CFI (cfiCond282) Conditional ??CrossCallReturnLabel_83
        CFI (cfiCond282) DPL0 Frame(CFA_SP, 4)
        CFI (cfiCond282) DPH0 Frame(CFA_SP, 5)
        CFI (cfiCond282) CFA_SP SP+-5
        CFI Block cfiCond283 Using cfiCommon0
        CFI (cfiCond283) NoFunction
        CFI (cfiCond283) Conditional ??CrossCallReturnLabel_84
        CFI (cfiCond283) DPL0 Frame(CFA_SP, 4)
        CFI (cfiCond283) DPH0 Frame(CFA_SP, 5)
        CFI (cfiCond283) CFA_SP SP+-5
        CFI Block cfiCond284 Using cfiCommon0
        CFI (cfiCond284) NoFunction
        CFI (cfiCond284) Conditional ??CrossCallReturnLabel_85
        CFI (cfiCond284) DPL0 Frame(CFA_SP, 4)
        CFI (cfiCond284) DPH0 Frame(CFA_SP, 5)
        CFI (cfiCond284) CFA_SP SP+-5
        CFI Block cfiCond285 Using cfiCommon0
        CFI (cfiCond285) NoFunction
        CFI (cfiCond285) Conditional ??CrossCallReturnLabel_86
        CFI (cfiCond285) DPL0 Frame(CFA_SP, 4)
        CFI (cfiCond285) DPH0 Frame(CFA_SP, 5)
        CFI (cfiCond285) CFA_SP SP+-5
        CFI Block cfiCond286 Using cfiCommon0
        CFI (cfiCond286) NoFunction
        CFI (cfiCond286) Conditional ??CrossCallReturnLabel_87
        CFI (cfiCond286) DPL0 Frame(CFA_SP, 4)
        CFI (cfiCond286) DPH0 Frame(CFA_SP, 5)
        CFI (cfiCond286) CFA_SP SP+-5
        CFI Block cfiCond287 Using cfiCommon0
        CFI (cfiCond287) NoFunction
        CFI (cfiCond287) Conditional ??CrossCallReturnLabel_88
        CFI (cfiCond287) DPL0 Frame(CFA_SP, 4)
        CFI (cfiCond287) DPH0 Frame(CFA_SP, 5)
        CFI (cfiCond287) CFA_SP SP+-5
        CFI Block cfiCond288 Using cfiCommon0
        CFI (cfiCond288) NoFunction
        CFI (cfiCond288) Conditional ??CrossCallReturnLabel_89
        CFI (cfiCond288) DPL0 Frame(CFA_SP, 4)
        CFI (cfiCond288) DPH0 Frame(CFA_SP, 5)
        CFI (cfiCond288) CFA_SP SP+-5
        CFI Block cfiCond289 Using cfiCommon0
        CFI (cfiCond289) NoFunction
        CFI (cfiCond289) Conditional ??CrossCallReturnLabel_90
        CFI (cfiCond289) DPL0 Frame(CFA_SP, 4)
        CFI (cfiCond289) DPH0 Frame(CFA_SP, 5)
        CFI (cfiCond289) CFA_SP SP+-5
        CFI Block cfiCond290 Using cfiCommon0
        CFI (cfiCond290) NoFunction
        CFI (cfiCond290) Conditional ??CrossCallReturnLabel_91
        CFI (cfiCond290) DPL0 Frame(CFA_SP, 4)
        CFI (cfiCond290) DPH0 Frame(CFA_SP, 5)
        CFI (cfiCond290) CFA_SP SP+-5
        CFI Block cfiCond291 Using cfiCommon0
        CFI (cfiCond291) NoFunction
        CFI (cfiCond291) Conditional ??CrossCallReturnLabel_92
        CFI (cfiCond291) R6 load(1, XDATA, add(CFA_XSP16, literal(-14)))
        CFI (cfiCond291) VB load(1, XDATA, add(CFA_XSP16, literal(-13)))
        CFI (cfiCond291) V0 load(1, XDATA, add(CFA_XSP16, literal(-12)))
        CFI (cfiCond291) V1 load(1, XDATA, add(CFA_XSP16, literal(-11)))
        CFI (cfiCond291) V2 load(1, XDATA, add(CFA_XSP16, literal(-10)))
        CFI (cfiCond291) V3 load(1, XDATA, add(CFA_XSP16, literal(-9)))
        CFI (cfiCond291) V4 load(1, XDATA, add(CFA_XSP16, literal(-8)))
        CFI (cfiCond291) V5 load(1, XDATA, add(CFA_XSP16, literal(-7)))
        CFI (cfiCond291) R7 load(1, XDATA, add(CFA_XSP16, literal(-6)))
        CFI (cfiCond291) ?RET_LOW load(1, XDATA, add(CFA_XSP16, literal(-5)))
        CFI (cfiCond291) ?RET_HIGH load(1, XDATA, add(CFA_XSP16, literal(-4)))
        CFI (cfiCond291) ?BRET_EXT load(1, XDATA, add(CFA_XSP16, literal(-3)))
        CFI (cfiCond291) DPL0 load(1, XDATA, add(CFA_XSP16, literal(-2)))
        CFI (cfiCond291) DPH0 load(1, XDATA, add(CFA_XSP16, literal(-1)))
        CFI (cfiCond291) CFA_SP SP+0
        CFI (cfiCond291) CFA_XSP16 add(XSP16, 14)
        CFI Block cfiCond292 Using cfiCommon0
        CFI (cfiCond292) NoFunction
        CFI (cfiCond292) Conditional ??CrossCallReturnLabel_93
        CFI (cfiCond292) R6 load(1, XDATA, add(CFA_XSP16, literal(-14)))
        CFI (cfiCond292) VB load(1, XDATA, add(CFA_XSP16, literal(-13)))
        CFI (cfiCond292) V0 load(1, XDATA, add(CFA_XSP16, literal(-12)))
        CFI (cfiCond292) V1 load(1, XDATA, add(CFA_XSP16, literal(-11)))
        CFI (cfiCond292) V2 load(1, XDATA, add(CFA_XSP16, literal(-10)))
        CFI (cfiCond292) V3 load(1, XDATA, add(CFA_XSP16, literal(-9)))
        CFI (cfiCond292) V4 load(1, XDATA, add(CFA_XSP16, literal(-8)))
        CFI (cfiCond292) V5 load(1, XDATA, add(CFA_XSP16, literal(-7)))
        CFI (cfiCond292) R7 load(1, XDATA, add(CFA_XSP16, literal(-6)))
        CFI (cfiCond292) ?RET_LOW load(1, XDATA, add(CFA_XSP16, literal(-5)))
        CFI (cfiCond292) ?RET_HIGH load(1, XDATA, add(CFA_XSP16, literal(-4)))
        CFI (cfiCond292) ?BRET_EXT load(1, XDATA, add(CFA_XSP16, literal(-3)))
        CFI (cfiCond292) DPL0 load(1, XDATA, add(CFA_XSP16, literal(-2)))
        CFI (cfiCond292) DPH0 load(1, XDATA, add(CFA_XSP16, literal(-1)))
        CFI (cfiCond292) CFA_SP SP+0
        CFI (cfiCond292) CFA_XSP16 add(XSP16, 14)
        CFI Block cfiCond293 Using cfiCommon0
        CFI (cfiCond293) NoFunction
        CFI (cfiCond293) Conditional ??CrossCallReturnLabel_94
        CFI (cfiCond293) R6 load(1, XDATA, add(CFA_XSP16, literal(-14)))
        CFI (cfiCond293) VB load(1, XDATA, add(CFA_XSP16, literal(-13)))
        CFI (cfiCond293) V0 load(1, XDATA, add(CFA_XSP16, literal(-12)))
        CFI (cfiCond293) V1 load(1, XDATA, add(CFA_XSP16, literal(-11)))
        CFI (cfiCond293) V2 load(1, XDATA, add(CFA_XSP16, literal(-10)))
        CFI (cfiCond293) V3 load(1, XDATA, add(CFA_XSP16, literal(-9)))
        CFI (cfiCond293) V4 load(1, XDATA, add(CFA_XSP16, literal(-8)))
        CFI (cfiCond293) V5 load(1, XDATA, add(CFA_XSP16, literal(-7)))
        CFI (cfiCond293) R7 load(1, XDATA, add(CFA_XSP16, literal(-6)))
        CFI (cfiCond293) ?RET_LOW load(1, XDATA, add(CFA_XSP16, literal(-5)))
        CFI (cfiCond293) ?RET_HIGH load(1, XDATA, add(CFA_XSP16, literal(-4)))
        CFI (cfiCond293) ?BRET_EXT load(1, XDATA, add(CFA_XSP16, literal(-3)))
        CFI (cfiCond293) DPL0 load(1, XDATA, add(CFA_XSP16, literal(-2)))
        CFI (cfiCond293) DPH0 load(1, XDATA, add(CFA_XSP16, literal(-1)))
        CFI (cfiCond293) CFA_SP SP+0
        CFI (cfiCond293) CFA_XSP16 add(XSP16, 14)
        CFI Block cfiCond294 Using cfiCommon0
        CFI (cfiCond294) NoFunction
        CFI (cfiCond294) Conditional ??CrossCallReturnLabel_95
        CFI (cfiCond294) R6 load(1, XDATA, add(CFA_XSP16, literal(-14)))
        CFI (cfiCond294) VB load(1, XDATA, add(CFA_XSP16, literal(-13)))
        CFI (cfiCond294) V0 load(1, XDATA, add(CFA_XSP16, literal(-12)))
        CFI (cfiCond294) V1 load(1, XDATA, add(CFA_XSP16, literal(-11)))
        CFI (cfiCond294) V2 load(1, XDATA, add(CFA_XSP16, literal(-10)))
        CFI (cfiCond294) V3 load(1, XDATA, add(CFA_XSP16, literal(-9)))
        CFI (cfiCond294) V4 load(1, XDATA, add(CFA_XSP16, literal(-8)))
        CFI (cfiCond294) V5 load(1, XDATA, add(CFA_XSP16, literal(-7)))
        CFI (cfiCond294) R7 load(1, XDATA, add(CFA_XSP16, literal(-6)))
        CFI (cfiCond294) ?RET_LOW load(1, XDATA, add(CFA_XSP16, literal(-5)))
        CFI (cfiCond294) ?RET_HIGH load(1, XDATA, add(CFA_XSP16, literal(-4)))
        CFI (cfiCond294) ?BRET_EXT load(1, XDATA, add(CFA_XSP16, literal(-3)))
        CFI (cfiCond294) DPL0 load(1, XDATA, add(CFA_XSP16, literal(-2)))
        CFI (cfiCond294) DPH0 load(1, XDATA, add(CFA_XSP16, literal(-1)))
        CFI (cfiCond294) CFA_SP SP+0
        CFI (cfiCond294) CFA_XSP16 add(XSP16, 14)
        CFI Block cfiCond295 Using cfiCommon0
        CFI (cfiCond295) NoFunction
        CFI (cfiCond295) Conditional ??CrossCallReturnLabel_96
        CFI (cfiCond295) R6 load(1, XDATA, add(CFA_XSP16, literal(-9)))
        CFI (cfiCond295) VB load(1, XDATA, add(CFA_XSP16, literal(-8)))
        CFI (cfiCond295) V0 load(1, XDATA, add(CFA_XSP16, literal(-7)))
        CFI (cfiCond295) R7 load(1, XDATA, add(CFA_XSP16, literal(-6)))
        CFI (cfiCond295) ?RET_LOW load(1, XDATA, add(CFA_XSP16, literal(-5)))
        CFI (cfiCond295) ?RET_HIGH load(1, XDATA, add(CFA_XSP16, literal(-4)))
        CFI (cfiCond295) ?BRET_EXT load(1, XDATA, add(CFA_XSP16, literal(-3)))
        CFI (cfiCond295) DPL0 load(1, XDATA, add(CFA_XSP16, literal(-2)))
        CFI (cfiCond295) DPH0 load(1, XDATA, add(CFA_XSP16, literal(-1)))
        CFI (cfiCond295) CFA_SP SP+0
        CFI (cfiCond295) CFA_XSP16 add(XSP16, 9)
        CFI Block cfiCond296 Using cfiCommon0
        CFI (cfiCond296) NoFunction
        CFI (cfiCond296) Conditional ??CrossCallReturnLabel_64
        CFI (cfiCond296) DPL0 Frame(CFA_SP, 4)
        CFI (cfiCond296) DPH0 Frame(CFA_SP, 5)
        CFI (cfiCond296) CFA_SP SP+-5
        CFI Block cfiCond297 Using cfiCommon0
        CFI (cfiCond297) NoFunction
        CFI (cfiCond297) Conditional ??CrossCallReturnLabel_65
        CFI (cfiCond297) DPL0 Frame(CFA_SP, 4)
        CFI (cfiCond297) DPH0 Frame(CFA_SP, 5)
        CFI (cfiCond297) CFA_SP SP+-5
        CFI Block cfiPicker298 Using cfiCommon1
        CFI (cfiPicker298) NoFunction
        CFI (cfiPicker298) Picker
        LCALL   ??Subroutine37_0 & 0xFFFF
??CrossCallReturnLabel_105:
        RET
        CFI EndBlock cfiCond265
        CFI EndBlock cfiCond266
        CFI EndBlock cfiCond267
        CFI EndBlock cfiCond268
        CFI EndBlock cfiCond269
        CFI EndBlock cfiCond270
        CFI EndBlock cfiCond271
        CFI EndBlock cfiCond272
        CFI EndBlock cfiCond273
        CFI EndBlock cfiCond274
        CFI EndBlock cfiCond275
        CFI EndBlock cfiCond276
        CFI EndBlock cfiCond277
        CFI EndBlock cfiCond278
        CFI EndBlock cfiCond279
        CFI EndBlock cfiCond280
        CFI EndBlock cfiCond281
        CFI EndBlock cfiCond282
        CFI EndBlock cfiCond283
        CFI EndBlock cfiCond284
        CFI EndBlock cfiCond285
        CFI EndBlock cfiCond286
        CFI EndBlock cfiCond287
        CFI EndBlock cfiCond288
        CFI EndBlock cfiCond289
        CFI EndBlock cfiCond290
        CFI EndBlock cfiCond291
        CFI EndBlock cfiCond292
        CFI EndBlock cfiCond293
        CFI EndBlock cfiCond294
        CFI EndBlock cfiCond295
        CFI EndBlock cfiCond296
        CFI EndBlock cfiCond297
        CFI EndBlock cfiPicker298

        RSEG BANKED_CODE:CODE:NOROOT(0)
?Subroutine25:
        CFI Block cfiCond299 Using cfiCommon0
        CFI NoFunction
        CFI Conditional ??CrossCallReturnLabel_97, ??CrossCallReturnLabel_19
        CFI R6 load(1, XDATA, add(CFA_XSP16, literal(-14)))
        CFI VB load(1, XDATA, add(CFA_XSP16, literal(-13)))
        CFI V0 load(1, XDATA, add(CFA_XSP16, literal(-12)))
        CFI V1 load(1, XDATA, add(CFA_XSP16, literal(-11)))
        CFI V2 load(1, XDATA, add(CFA_XSP16, literal(-10)))
        CFI V3 load(1, XDATA, add(CFA_XSP16, literal(-9)))
        CFI V4 load(1, XDATA, add(CFA_XSP16, literal(-8)))
        CFI V5 load(1, XDATA, add(CFA_XSP16, literal(-7)))
        CFI R7 load(1, XDATA, add(CFA_XSP16, literal(-6)))
        CFI ?RET_LOW load(1, XDATA, add(CFA_XSP16, literal(-5)))
        CFI ?RET_HIGH load(1, XDATA, add(CFA_XSP16, literal(-4)))
        CFI ?BRET_EXT load(1, XDATA, add(CFA_XSP16, literal(-3)))
        CFI DPL0 load(1, XDATA, add(CFA_XSP16, literal(-2)))
        CFI DPH0 load(1, XDATA, add(CFA_XSP16, literal(-1)))
        CFI CFA_SP SP+0
        CFI CFA_XSP16 add(XSP16, 14)
        CFI Block cfiCond300 Using cfiCommon0
        CFI (cfiCond300) NoFunction
        CFI (cfiCond300) Conditional ??CrossCallReturnLabel_97, ??CrossCallReturnLabel_20
        CFI (cfiCond300) R6 load(1, XDATA, add(CFA_XSP16, literal(-14)))
        CFI (cfiCond300) VB load(1, XDATA, add(CFA_XSP16, literal(-13)))
        CFI (cfiCond300) V0 load(1, XDATA, add(CFA_XSP16, literal(-12)))
        CFI (cfiCond300) V1 load(1, XDATA, add(CFA_XSP16, literal(-11)))
        CFI (cfiCond300) V2 load(1, XDATA, add(CFA_XSP16, literal(-10)))
        CFI (cfiCond300) V3 load(1, XDATA, add(CFA_XSP16, literal(-9)))
        CFI (cfiCond300) V4 load(1, XDATA, add(CFA_XSP16, literal(-8)))
        CFI (cfiCond300) V5 load(1, XDATA, add(CFA_XSP16, literal(-7)))
        CFI (cfiCond300) R7 load(1, XDATA, add(CFA_XSP16, literal(-6)))
        CFI (cfiCond300) ?RET_LOW load(1, XDATA, add(CFA_XSP16, literal(-5)))
        CFI (cfiCond300) ?RET_HIGH load(1, XDATA, add(CFA_XSP16, literal(-4)))
        CFI (cfiCond300) ?BRET_EXT load(1, XDATA, add(CFA_XSP16, literal(-3)))
        CFI (cfiCond300) DPL0 load(1, XDATA, add(CFA_XSP16, literal(-2)))
        CFI (cfiCond300) DPH0 load(1, XDATA, add(CFA_XSP16, literal(-1)))
        CFI (cfiCond300) CFA_SP SP+0
        CFI (cfiCond300) CFA_XSP16 add(XSP16, 14)
        CFI Block cfiCond301 Using cfiCommon0
        CFI (cfiCond301) NoFunction
        CFI (cfiCond301) Conditional ??CrossCallReturnLabel_98, ??CrossCallReturnLabel_17
        CFI (cfiCond301) R6 load(1, XDATA, add(CFA_XSP16, literal(-14)))
        CFI (cfiCond301) VB load(1, XDATA, add(CFA_XSP16, literal(-13)))
        CFI (cfiCond301) V0 load(1, XDATA, add(CFA_XSP16, literal(-12)))
        CFI (cfiCond301) V1 load(1, XDATA, add(CFA_XSP16, literal(-11)))
        CFI (cfiCond301) V2 load(1, XDATA, add(CFA_XSP16, literal(-10)))
        CFI (cfiCond301) V3 load(1, XDATA, add(CFA_XSP16, literal(-9)))
        CFI (cfiCond301) V4 load(1, XDATA, add(CFA_XSP16, literal(-8)))
        CFI (cfiCond301) V5 load(1, XDATA, add(CFA_XSP16, literal(-7)))
        CFI (cfiCond301) R7 load(1, XDATA, add(CFA_XSP16, literal(-6)))
        CFI (cfiCond301) ?RET_LOW load(1, XDATA, add(CFA_XSP16, literal(-5)))
        CFI (cfiCond301) ?RET_HIGH load(1, XDATA, add(CFA_XSP16, literal(-4)))
        CFI (cfiCond301) ?BRET_EXT load(1, XDATA, add(CFA_XSP16, literal(-3)))
        CFI (cfiCond301) DPL0 load(1, XDATA, add(CFA_XSP16, literal(-2)))
        CFI (cfiCond301) DPH0 load(1, XDATA, add(CFA_XSP16, literal(-1)))
        CFI (cfiCond301) CFA_SP SP+0
        CFI (cfiCond301) CFA_XSP16 add(XSP16, 14)
        CFI Block cfiCond302 Using cfiCommon0
        CFI (cfiCond302) NoFunction
        CFI (cfiCond302) Conditional ??CrossCallReturnLabel_98, ??CrossCallReturnLabel_18
        CFI (cfiCond302) R6 load(1, XDATA, add(CFA_XSP16, literal(-14)))
        CFI (cfiCond302) VB load(1, XDATA, add(CFA_XSP16, literal(-13)))
        CFI (cfiCond302) V0 load(1, XDATA, add(CFA_XSP16, literal(-12)))
        CFI (cfiCond302) V1 load(1, XDATA, add(CFA_XSP16, literal(-11)))
        CFI (cfiCond302) V2 load(1, XDATA, add(CFA_XSP16, literal(-10)))
        CFI (cfiCond302) V3 load(1, XDATA, add(CFA_XSP16, literal(-9)))
        CFI (cfiCond302) V4 load(1, XDATA, add(CFA_XSP16, literal(-8)))
        CFI (cfiCond302) V5 load(1, XDATA, add(CFA_XSP16, literal(-7)))
        CFI (cfiCond302) R7 load(1, XDATA, add(CFA_XSP16, literal(-6)))
        CFI (cfiCond302) ?RET_LOW load(1, XDATA, add(CFA_XSP16, literal(-5)))
        CFI (cfiCond302) ?RET_HIGH load(1, XDATA, add(CFA_XSP16, literal(-4)))
        CFI (cfiCond302) ?BRET_EXT load(1, XDATA, add(CFA_XSP16, literal(-3)))
        CFI (cfiCond302) DPL0 load(1, XDATA, add(CFA_XSP16, literal(-2)))
        CFI (cfiCond302) DPH0 load(1, XDATA, add(CFA_XSP16, literal(-1)))
        CFI (cfiCond302) CFA_SP SP+0
        CFI (cfiCond302) CFA_XSP16 add(XSP16, 14)
        CFI Block cfiPicker303 Using cfiCommon1
        CFI (cfiPicker303) NoFunction
        CFI (cfiPicker303) Picker
        MOV     R1,A
        CFI EndBlock cfiCond299
        CFI EndBlock cfiCond300
        CFI EndBlock cfiCond301
        CFI EndBlock cfiCond302
        CFI EndBlock cfiPicker303
        REQUIRE ??Subroutine37_0
        ; // Fall through to label ??Subroutine37_0

        RSEG BANKED_CODE:CODE:NOROOT(0)
??Subroutine37_0:
        CFI Block cfiCond304 Using cfiCommon0
        CFI NoFunction
        CFI Conditional ??CrossCallReturnLabel_99, ??CrossCallReturnLabel_15
        CFI DPL0 Frame(CFA_SP, 4)
        CFI DPH0 Frame(CFA_SP, 5)
        CFI CFA_SP SP+-5
        CFI Block cfiCond305 Using cfiCommon0
        CFI (cfiCond305) NoFunction
        CFI (cfiCond305) Conditional ??CrossCallReturnLabel_99, ??CrossCallReturnLabel_16
        CFI (cfiCond305) DPL0 Frame(CFA_SP, 4)
        CFI (cfiCond305) DPH0 Frame(CFA_SP, 5)
        CFI (cfiCond305) CFA_SP SP+-5
        CFI Block cfiCond306 Using cfiCommon0
        CFI (cfiCond306) NoFunction
        CFI (cfiCond306) Conditional ??CrossCallReturnLabel_100, ??CrossCallReturnLabel_15
        CFI (cfiCond306) DPL0 Frame(CFA_SP, 4)
        CFI (cfiCond306) DPH0 Frame(CFA_SP, 5)
        CFI (cfiCond306) CFA_SP SP+-5
        CFI Block cfiCond307 Using cfiCommon0
        CFI (cfiCond307) NoFunction
        CFI (cfiCond307) Conditional ??CrossCallReturnLabel_100, ??CrossCallReturnLabel_16
        CFI (cfiCond307) DPL0 Frame(CFA_SP, 4)
        CFI (cfiCond307) DPH0 Frame(CFA_SP, 5)
        CFI (cfiCond307) CFA_SP SP+-5
        CFI Block cfiCond308 Using cfiCommon0
        CFI (cfiCond308) NoFunction
        CFI (cfiCond308) Conditional ??CrossCallReturnLabel_101, ??CrossCallReturnLabel_9
        CFI (cfiCond308) DPL0 Frame(CFA_SP, 4)
        CFI (cfiCond308) DPH0 Frame(CFA_SP, 5)
        CFI (cfiCond308) CFA_SP SP+-5
        CFI Block cfiCond309 Using cfiCommon0
        CFI (cfiCond309) NoFunction
        CFI (cfiCond309) Conditional ??CrossCallReturnLabel_101, ??CrossCallReturnLabel_10
        CFI (cfiCond309) DPL0 Frame(CFA_SP, 4)
        CFI (cfiCond309) DPH0 Frame(CFA_SP, 5)
        CFI (cfiCond309) CFA_SP SP+-5
        CFI Block cfiCond310 Using cfiCommon0
        CFI (cfiCond310) NoFunction
        CFI (cfiCond310) Conditional ??CrossCallReturnLabel_102, ??CrossCallReturnLabel_3
        CFI (cfiCond310) DPL0 Frame(CFA_SP, 4)
        CFI (cfiCond310) DPH0 Frame(CFA_SP, 5)
        CFI (cfiCond310) CFA_SP SP+-5
        CFI Block cfiCond311 Using cfiCommon0
        CFI (cfiCond311) NoFunction
        CFI (cfiCond311) Conditional ??CrossCallReturnLabel_102, ??CrossCallReturnLabel_4
        CFI (cfiCond311) DPL0 Frame(CFA_SP, 4)
        CFI (cfiCond311) DPH0 Frame(CFA_SP, 5)
        CFI (cfiCond311) CFA_SP SP+-5
        CFI Block cfiCond312 Using cfiCommon0
        CFI (cfiCond312) NoFunction
        CFI (cfiCond312) Conditional ??CrossCallReturnLabel_102, ??CrossCallReturnLabel_5
        CFI (cfiCond312) DPL0 Frame(CFA_SP, 4)
        CFI (cfiCond312) DPH0 Frame(CFA_SP, 5)
        CFI (cfiCond312) CFA_SP SP+-5
        CFI Block cfiCond313 Using cfiCommon0
        CFI (cfiCond313) NoFunction
        CFI (cfiCond313) Conditional ??CrossCallReturnLabel_102, ??CrossCallReturnLabel_6
        CFI (cfiCond313) DPL0 Frame(CFA_SP, 4)
        CFI (cfiCond313) DPH0 Frame(CFA_SP, 5)
        CFI (cfiCond313) CFA_SP SP+-5
        CFI Block cfiCond314 Using cfiCommon0
        CFI (cfiCond314) NoFunction
        CFI (cfiCond314) Conditional ??CrossCallReturnLabel_103, ??CrossCallReturnLabel_3
        CFI (cfiCond314) DPL0 Frame(CFA_SP, 4)
        CFI (cfiCond314) DPH0 Frame(CFA_SP, 5)
        CFI (cfiCond314) CFA_SP SP+-5
        CFI Block cfiCond315 Using cfiCommon0
        CFI (cfiCond315) NoFunction
        CFI (cfiCond315) Conditional ??CrossCallReturnLabel_103, ??CrossCallReturnLabel_4
        CFI (cfiCond315) DPL0 Frame(CFA_SP, 4)
        CFI (cfiCond315) DPH0 Frame(CFA_SP, 5)
        CFI (cfiCond315) CFA_SP SP+-5
        CFI Block cfiCond316 Using cfiCommon0
        CFI (cfiCond316) NoFunction
        CFI (cfiCond316) Conditional ??CrossCallReturnLabel_103, ??CrossCallReturnLabel_5
        CFI (cfiCond316) DPL0 Frame(CFA_SP, 4)
        CFI (cfiCond316) DPH0 Frame(CFA_SP, 5)
        CFI (cfiCond316) CFA_SP SP+-5
        CFI Block cfiCond317 Using cfiCommon0
        CFI (cfiCond317) NoFunction
        CFI (cfiCond317) Conditional ??CrossCallReturnLabel_103, ??CrossCallReturnLabel_6
        CFI (cfiCond317) DPL0 Frame(CFA_SP, 4)
        CFI (cfiCond317) DPH0 Frame(CFA_SP, 5)
        CFI (cfiCond317) CFA_SP SP+-5
        CFI Block cfiCond318 Using cfiCommon0
        CFI (cfiCond318) NoFunction
        CFI (cfiCond318) Conditional ??CrossCallReturnLabel_104, ??CrossCallReturnLabel_0
        CFI (cfiCond318) DPL0 Frame(CFA_SP, 4)
        CFI (cfiCond318) DPH0 Frame(CFA_SP, 5)
        CFI (cfiCond318) CFA_SP SP+-5
        CFI Block cfiCond319 Using cfiCommon0
        CFI (cfiCond319) NoFunction
        CFI (cfiCond319) Conditional ??CrossCallReturnLabel_104, ??CrossCallReturnLabel_1
        CFI (cfiCond319) DPL0 Frame(CFA_SP, 4)
        CFI (cfiCond319) DPH0 Frame(CFA_SP, 5)
        CFI (cfiCond319) CFA_SP SP+-5
        CFI Block cfiCond320 Using cfiCommon0
        CFI (cfiCond320) NoFunction
        CFI (cfiCond320) Conditional ??CrossCallReturnLabel_104, ??CrossCallReturnLabel_2
        CFI (cfiCond320) DPL0 Frame(CFA_SP, 4)
        CFI (cfiCond320) DPH0 Frame(CFA_SP, 5)
        CFI (cfiCond320) CFA_SP SP+-5
        CFI Block cfiCond321 Using cfiCommon0
        CFI (cfiCond321) NoFunction
        CFI (cfiCond321) Conditional ??CrossCallReturnLabel_105, ??CrossCallReturnLabel_64
        CFI (cfiCond321) DPL0 Frame(CFA_SP, 4)
        CFI (cfiCond321) DPH0 Frame(CFA_SP, 5)
        CFI (cfiCond321) CFA_SP SP+-5
        CFI Block cfiCond322 Using cfiCommon0
        CFI (cfiCond322) NoFunction
        CFI (cfiCond322) Conditional ??CrossCallReturnLabel_105, ??CrossCallReturnLabel_65
        CFI (cfiCond322) DPL0 Frame(CFA_SP, 4)
        CFI (cfiCond322) DPH0 Frame(CFA_SP, 5)
        CFI (cfiCond322) CFA_SP SP+-5
        CFI Block cfiCond323 Using cfiCommon0
        CFI (cfiCond323) NoFunction
        CFI (cfiCond323) Conditional ??CrossCallReturnLabel_105, ??CrossCallReturnLabel_66
        CFI (cfiCond323) DPL0 Frame(CFA_SP, 4)
        CFI (cfiCond323) DPH0 Frame(CFA_SP, 5)
        CFI (cfiCond323) CFA_SP SP+-5
        CFI Block cfiCond324 Using cfiCommon0
        CFI (cfiCond324) NoFunction
        CFI (cfiCond324) Conditional ??CrossCallReturnLabel_105, ??CrossCallReturnLabel_67
        CFI (cfiCond324) DPL0 Frame(CFA_SP, 4)
        CFI (cfiCond324) DPH0 Frame(CFA_SP, 5)
        CFI (cfiCond324) CFA_SP SP+-5
        CFI Block cfiCond325 Using cfiCommon0
        CFI (cfiCond325) NoFunction
        CFI (cfiCond325) Conditional ??CrossCallReturnLabel_105, ??CrossCallReturnLabel_68
        CFI (cfiCond325) DPL0 Frame(CFA_SP, 4)
        CFI (cfiCond325) DPH0 Frame(CFA_SP, 5)
        CFI (cfiCond325) CFA_SP SP+-5
        CFI Block cfiCond326 Using cfiCommon0
        CFI (cfiCond326) NoFunction
        CFI (cfiCond326) Conditional ??CrossCallReturnLabel_105, ??CrossCallReturnLabel_69
        CFI (cfiCond326) DPL0 Frame(CFA_SP, 4)
        CFI (cfiCond326) DPH0 Frame(CFA_SP, 5)
        CFI (cfiCond326) CFA_SP SP+-5
        CFI Block cfiCond327 Using cfiCommon0
        CFI (cfiCond327) NoFunction
        CFI (cfiCond327) Conditional ??CrossCallReturnLabel_105, ??CrossCallReturnLabel_70
        CFI (cfiCond327) DPL0 Frame(CFA_SP, 4)
        CFI (cfiCond327) DPH0 Frame(CFA_SP, 5)
        CFI (cfiCond327) CFA_SP SP+-5
        CFI Block cfiCond328 Using cfiCommon0
        CFI (cfiCond328) NoFunction
        CFI (cfiCond328) Conditional ??CrossCallReturnLabel_105, ??CrossCallReturnLabel_71
        CFI (cfiCond328) DPL0 Frame(CFA_SP, 4)
        CFI (cfiCond328) DPH0 Frame(CFA_SP, 5)
        CFI (cfiCond328) CFA_SP SP+-5
        CFI Block cfiCond329 Using cfiCommon0
        CFI (cfiCond329) NoFunction
        CFI (cfiCond329) Conditional ??CrossCallReturnLabel_105, ??CrossCallReturnLabel_72
        CFI (cfiCond329) DPL0 Frame(CFA_SP, 4)
        CFI (cfiCond329) DPH0 Frame(CFA_SP, 5)
        CFI (cfiCond329) CFA_SP SP+-5
        CFI Block cfiCond330 Using cfiCommon0
        CFI (cfiCond330) NoFunction
        CFI (cfiCond330) Conditional ??CrossCallReturnLabel_105, ??CrossCallReturnLabel_73
        CFI (cfiCond330) DPL0 Frame(CFA_SP, 4)
        CFI (cfiCond330) DPH0 Frame(CFA_SP, 5)
        CFI (cfiCond330) CFA_SP SP+-5
        CFI Block cfiCond331 Using cfiCommon0
        CFI (cfiCond331) NoFunction
        CFI (cfiCond331) Conditional ??CrossCallReturnLabel_105, ??CrossCallReturnLabel_74
        CFI (cfiCond331) DPL0 Frame(CFA_SP, 4)
        CFI (cfiCond331) DPH0 Frame(CFA_SP, 5)
        CFI (cfiCond331) CFA_SP SP+-5
        CFI Block cfiCond332 Using cfiCommon0
        CFI (cfiCond332) NoFunction
        CFI (cfiCond332) Conditional ??CrossCallReturnLabel_105, ??CrossCallReturnLabel_75
        CFI (cfiCond332) DPL0 Frame(CFA_SP, 4)
        CFI (cfiCond332) DPH0 Frame(CFA_SP, 5)
        CFI (cfiCond332) CFA_SP SP+-5
        CFI Block cfiCond333 Using cfiCommon0
        CFI (cfiCond333) NoFunction
        CFI (cfiCond333) Conditional ??CrossCallReturnLabel_105, ??CrossCallReturnLabel_76
        CFI (cfiCond333) DPL0 Frame(CFA_SP, 4)
        CFI (cfiCond333) DPH0 Frame(CFA_SP, 5)
        CFI (cfiCond333) CFA_SP SP+-5
        CFI Block cfiCond334 Using cfiCommon0
        CFI (cfiCond334) NoFunction
        CFI (cfiCond334) Conditional ??CrossCallReturnLabel_105, ??CrossCallReturnLabel_77
        CFI (cfiCond334) DPL0 Frame(CFA_SP, 4)
        CFI (cfiCond334) DPH0 Frame(CFA_SP, 5)
        CFI (cfiCond334) CFA_SP SP+-5
        CFI Block cfiCond335 Using cfiCommon0
        CFI (cfiCond335) NoFunction
        CFI (cfiCond335) Conditional ??CrossCallReturnLabel_105, ??CrossCallReturnLabel_78
        CFI (cfiCond335) DPL0 Frame(CFA_SP, 4)
        CFI (cfiCond335) DPH0 Frame(CFA_SP, 5)
        CFI (cfiCond335) CFA_SP SP+-5
        CFI Block cfiCond336 Using cfiCommon0
        CFI (cfiCond336) NoFunction
        CFI (cfiCond336) Conditional ??CrossCallReturnLabel_105, ??CrossCallReturnLabel_79
        CFI (cfiCond336) DPL0 Frame(CFA_SP, 4)
        CFI (cfiCond336) DPH0 Frame(CFA_SP, 5)
        CFI (cfiCond336) CFA_SP SP+-5
        CFI Block cfiCond337 Using cfiCommon0
        CFI (cfiCond337) NoFunction
        CFI (cfiCond337) Conditional ??CrossCallReturnLabel_105, ??CrossCallReturnLabel_80
        CFI (cfiCond337) DPL0 Frame(CFA_SP, 4)
        CFI (cfiCond337) DPH0 Frame(CFA_SP, 5)
        CFI (cfiCond337) CFA_SP SP+-5
        CFI Block cfiCond338 Using cfiCommon0
        CFI (cfiCond338) NoFunction
        CFI (cfiCond338) Conditional ??CrossCallReturnLabel_105, ??CrossCallReturnLabel_81
        CFI (cfiCond338) DPL0 Frame(CFA_SP, 4)
        CFI (cfiCond338) DPH0 Frame(CFA_SP, 5)
        CFI (cfiCond338) CFA_SP SP+-5
        CFI Block cfiCond339 Using cfiCommon0
        CFI (cfiCond339) NoFunction
        CFI (cfiCond339) Conditional ??CrossCallReturnLabel_105, ??CrossCallReturnLabel_82
        CFI (cfiCond339) DPL0 Frame(CFA_SP, 4)
        CFI (cfiCond339) DPH0 Frame(CFA_SP, 5)
        CFI (cfiCond339) CFA_SP SP+-5
        CFI Block cfiCond340 Using cfiCommon0
        CFI (cfiCond340) NoFunction
        CFI (cfiCond340) Conditional ??CrossCallReturnLabel_105, ??CrossCallReturnLabel_83
        CFI (cfiCond340) DPL0 Frame(CFA_SP, 4)
        CFI (cfiCond340) DPH0 Frame(CFA_SP, 5)
        CFI (cfiCond340) CFA_SP SP+-5
        CFI Block cfiCond341 Using cfiCommon0
        CFI (cfiCond341) NoFunction
        CFI (cfiCond341) Conditional ??CrossCallReturnLabel_105, ??CrossCallReturnLabel_84
        CFI (cfiCond341) DPL0 Frame(CFA_SP, 4)
        CFI (cfiCond341) DPH0 Frame(CFA_SP, 5)
        CFI (cfiCond341) CFA_SP SP+-5
        CFI Block cfiCond342 Using cfiCommon0
        CFI (cfiCond342) NoFunction
        CFI (cfiCond342) Conditional ??CrossCallReturnLabel_105, ??CrossCallReturnLabel_85
        CFI (cfiCond342) DPL0 Frame(CFA_SP, 4)
        CFI (cfiCond342) DPH0 Frame(CFA_SP, 5)
        CFI (cfiCond342) CFA_SP SP+-5
        CFI Block cfiCond343 Using cfiCommon0
        CFI (cfiCond343) NoFunction
        CFI (cfiCond343) Conditional ??CrossCallReturnLabel_105, ??CrossCallReturnLabel_86
        CFI (cfiCond343) DPL0 Frame(CFA_SP, 4)
        CFI (cfiCond343) DPH0 Frame(CFA_SP, 5)
        CFI (cfiCond343) CFA_SP SP+-5
        CFI Block cfiCond344 Using cfiCommon0
        CFI (cfiCond344) NoFunction
        CFI (cfiCond344) Conditional ??CrossCallReturnLabel_105, ??CrossCallReturnLabel_87
        CFI (cfiCond344) DPL0 Frame(CFA_SP, 4)
        CFI (cfiCond344) DPH0 Frame(CFA_SP, 5)
        CFI (cfiCond344) CFA_SP SP+-5
        CFI Block cfiCond345 Using cfiCommon0
        CFI (cfiCond345) NoFunction
        CFI (cfiCond345) Conditional ??CrossCallReturnLabel_105, ??CrossCallReturnLabel_88
        CFI (cfiCond345) DPL0 Frame(CFA_SP, 4)
        CFI (cfiCond345) DPH0 Frame(CFA_SP, 5)
        CFI (cfiCond345) CFA_SP SP+-5
        CFI Block cfiCond346 Using cfiCommon0
        CFI (cfiCond346) NoFunction
        CFI (cfiCond346) Conditional ??CrossCallReturnLabel_105, ??CrossCallReturnLabel_89
        CFI (cfiCond346) DPL0 Frame(CFA_SP, 4)
        CFI (cfiCond346) DPH0 Frame(CFA_SP, 5)
        CFI (cfiCond346) CFA_SP SP+-5
        CFI Block cfiCond347 Using cfiCommon0
        CFI (cfiCond347) NoFunction
        CFI (cfiCond347) Conditional ??CrossCallReturnLabel_105, ??CrossCallReturnLabel_90
        CFI (cfiCond347) DPL0 Frame(CFA_SP, 4)
        CFI (cfiCond347) DPH0 Frame(CFA_SP, 5)
        CFI (cfiCond347) CFA_SP SP+-5
        CFI Block cfiCond348 Using cfiCommon0
        CFI (cfiCond348) NoFunction
        CFI (cfiCond348) Conditional ??CrossCallReturnLabel_105, ??CrossCallReturnLabel_91
        CFI (cfiCond348) DPL0 Frame(CFA_SP, 4)
        CFI (cfiCond348) DPH0 Frame(CFA_SP, 5)
        CFI (cfiCond348) CFA_SP SP+-5
        CFI Block cfiCond349 Using cfiCommon0
        CFI (cfiCond349) NoFunction
        CFI (cfiCond349) Conditional ??CrossCallReturnLabel_105, ??CrossCallReturnLabel_92
        CFI (cfiCond349) R6 load(1, XDATA, add(CFA_XSP16, literal(-14)))
        CFI (cfiCond349) VB load(1, XDATA, add(CFA_XSP16, literal(-13)))
        CFI (cfiCond349) V0 load(1, XDATA, add(CFA_XSP16, literal(-12)))
        CFI (cfiCond349) V1 load(1, XDATA, add(CFA_XSP16, literal(-11)))
        CFI (cfiCond349) V2 load(1, XDATA, add(CFA_XSP16, literal(-10)))
        CFI (cfiCond349) V3 load(1, XDATA, add(CFA_XSP16, literal(-9)))
        CFI (cfiCond349) V4 load(1, XDATA, add(CFA_XSP16, literal(-8)))
        CFI (cfiCond349) V5 load(1, XDATA, add(CFA_XSP16, literal(-7)))
        CFI (cfiCond349) R7 load(1, XDATA, add(CFA_XSP16, literal(-6)))
        CFI (cfiCond349) ?RET_LOW load(1, XDATA, add(CFA_XSP16, literal(-5)))
        CFI (cfiCond349) ?RET_HIGH load(1, XDATA, add(CFA_XSP16, literal(-4)))
        CFI (cfiCond349) ?BRET_EXT load(1, XDATA, add(CFA_XSP16, literal(-3)))
        CFI (cfiCond349) DPL0 load(1, XDATA, add(CFA_XSP16, literal(-2)))
        CFI (cfiCond349) DPH0 load(1, XDATA, add(CFA_XSP16, literal(-1)))
        CFI (cfiCond349) CFA_SP SP+0
        CFI (cfiCond349) CFA_XSP16 add(XSP16, 14)
        CFI Block cfiCond350 Using cfiCommon0
        CFI (cfiCond350) NoFunction
        CFI (cfiCond350) Conditional ??CrossCallReturnLabel_105, ??CrossCallReturnLabel_93
        CFI (cfiCond350) R6 load(1, XDATA, add(CFA_XSP16, literal(-14)))
        CFI (cfiCond350) VB load(1, XDATA, add(CFA_XSP16, literal(-13)))
        CFI (cfiCond350) V0 load(1, XDATA, add(CFA_XSP16, literal(-12)))
        CFI (cfiCond350) V1 load(1, XDATA, add(CFA_XSP16, literal(-11)))
        CFI (cfiCond350) V2 load(1, XDATA, add(CFA_XSP16, literal(-10)))
        CFI (cfiCond350) V3 load(1, XDATA, add(CFA_XSP16, literal(-9)))
        CFI (cfiCond350) V4 load(1, XDATA, add(CFA_XSP16, literal(-8)))
        CFI (cfiCond350) V5 load(1, XDATA, add(CFA_XSP16, literal(-7)))
        CFI (cfiCond350) R7 load(1, XDATA, add(CFA_XSP16, literal(-6)))
        CFI (cfiCond350) ?RET_LOW load(1, XDATA, add(CFA_XSP16, literal(-5)))
        CFI (cfiCond350) ?RET_HIGH load(1, XDATA, add(CFA_XSP16, literal(-4)))
        CFI (cfiCond350) ?BRET_EXT load(1, XDATA, add(CFA_XSP16, literal(-3)))
        CFI (cfiCond350) DPL0 load(1, XDATA, add(CFA_XSP16, literal(-2)))
        CFI (cfiCond350) DPH0 load(1, XDATA, add(CFA_XSP16, literal(-1)))
        CFI (cfiCond350) CFA_SP SP+0
        CFI (cfiCond350) CFA_XSP16 add(XSP16, 14)
        CFI Block cfiCond351 Using cfiCommon0
        CFI (cfiCond351) NoFunction
        CFI (cfiCond351) Conditional ??CrossCallReturnLabel_105, ??CrossCallReturnLabel_94
        CFI (cfiCond351) R6 load(1, XDATA, add(CFA_XSP16, literal(-14)))
        CFI (cfiCond351) VB load(1, XDATA, add(CFA_XSP16, literal(-13)))
        CFI (cfiCond351) V0 load(1, XDATA, add(CFA_XSP16, literal(-12)))
        CFI (cfiCond351) V1 load(1, XDATA, add(CFA_XSP16, literal(-11)))
        CFI (cfiCond351) V2 load(1, XDATA, add(CFA_XSP16, literal(-10)))
        CFI (cfiCond351) V3 load(1, XDATA, add(CFA_XSP16, literal(-9)))
        CFI (cfiCond351) V4 load(1, XDATA, add(CFA_XSP16, literal(-8)))
        CFI (cfiCond351) V5 load(1, XDATA, add(CFA_XSP16, literal(-7)))
        CFI (cfiCond351) R7 load(1, XDATA, add(CFA_XSP16, literal(-6)))
        CFI (cfiCond351) ?RET_LOW load(1, XDATA, add(CFA_XSP16, literal(-5)))
        CFI (cfiCond351) ?RET_HIGH load(1, XDATA, add(CFA_XSP16, literal(-4)))
        CFI (cfiCond351) ?BRET_EXT load(1, XDATA, add(CFA_XSP16, literal(-3)))
        CFI (cfiCond351) DPL0 load(1, XDATA, add(CFA_XSP16, literal(-2)))
        CFI (cfiCond351) DPH0 load(1, XDATA, add(CFA_XSP16, literal(-1)))
        CFI (cfiCond351) CFA_SP SP+0
        CFI (cfiCond351) CFA_XSP16 add(XSP16, 14)
        CFI Block cfiCond352 Using cfiCommon0
        CFI (cfiCond352) NoFunction
        CFI (cfiCond352) Conditional ??CrossCallReturnLabel_105, ??CrossCallReturnLabel_95
        CFI (cfiCond352) R6 load(1, XDATA, add(CFA_XSP16, literal(-14)))
        CFI (cfiCond352) VB load(1, XDATA, add(CFA_XSP16, literal(-13)))
        CFI (cfiCond352) V0 load(1, XDATA, add(CFA_XSP16, literal(-12)))
        CFI (cfiCond352) V1 load(1, XDATA, add(CFA_XSP16, literal(-11)))
        CFI (cfiCond352) V2 load(1, XDATA, add(CFA_XSP16, literal(-10)))
        CFI (cfiCond352) V3 load(1, XDATA, add(CFA_XSP16, literal(-9)))
        CFI (cfiCond352) V4 load(1, XDATA, add(CFA_XSP16, literal(-8)))
        CFI (cfiCond352) V5 load(1, XDATA, add(CFA_XSP16, literal(-7)))
        CFI (cfiCond352) R7 load(1, XDATA, add(CFA_XSP16, literal(-6)))
        CFI (cfiCond352) ?RET_LOW load(1, XDATA, add(CFA_XSP16, literal(-5)))
        CFI (cfiCond352) ?RET_HIGH load(1, XDATA, add(CFA_XSP16, literal(-4)))
        CFI (cfiCond352) ?BRET_EXT load(1, XDATA, add(CFA_XSP16, literal(-3)))
        CFI (cfiCond352) DPL0 load(1, XDATA, add(CFA_XSP16, literal(-2)))
        CFI (cfiCond352) DPH0 load(1, XDATA, add(CFA_XSP16, literal(-1)))
        CFI (cfiCond352) CFA_SP SP+0
        CFI (cfiCond352) CFA_XSP16 add(XSP16, 14)
        CFI Block cfiCond353 Using cfiCommon0
        CFI (cfiCond353) NoFunction
        CFI (cfiCond353) Conditional ??CrossCallReturnLabel_105, ??CrossCallReturnLabel_96
        CFI (cfiCond353) R6 load(1, XDATA, add(CFA_XSP16, literal(-9)))
        CFI (cfiCond353) VB load(1, XDATA, add(CFA_XSP16, literal(-8)))
        CFI (cfiCond353) V0 load(1, XDATA, add(CFA_XSP16, literal(-7)))
        CFI (cfiCond353) R7 load(1, XDATA, add(CFA_XSP16, literal(-6)))
        CFI (cfiCond353) ?RET_LOW load(1, XDATA, add(CFA_XSP16, literal(-5)))
        CFI (cfiCond353) ?RET_HIGH load(1, XDATA, add(CFA_XSP16, literal(-4)))
        CFI (cfiCond353) ?BRET_EXT load(1, XDATA, add(CFA_XSP16, literal(-3)))
        CFI (cfiCond353) DPL0 load(1, XDATA, add(CFA_XSP16, literal(-2)))
        CFI (cfiCond353) DPH0 load(1, XDATA, add(CFA_XSP16, literal(-1)))
        CFI (cfiCond353) CFA_SP SP+0
        CFI (cfiCond353) CFA_XSP16 add(XSP16, 9)
        CFI Block cfiCond354 Using cfiCommon0
        CFI (cfiCond354) NoFunction
        CFI (cfiCond354) Conditional ??CrossCallReturnLabel_106, ??CrossCallReturnLabel_113
        CFI (cfiCond354) DPL0 Frame(CFA_SP, 4)
        CFI (cfiCond354) DPH0 Frame(CFA_SP, 5)
        CFI (cfiCond354) CFA_SP SP+-5
        CFI Block cfiCond355 Using cfiCommon0
        CFI (cfiCond355) NoFunction
        CFI (cfiCond355) Conditional ??CrossCallReturnLabel_106, ??CrossCallReturnLabel_114
        CFI (cfiCond355) DPL0 Frame(CFA_SP, 4)
        CFI (cfiCond355) DPH0 Frame(CFA_SP, 5)
        CFI (cfiCond355) CFA_SP SP+-5
        CFI Block cfiCond356 Using cfiCommon0
        CFI (cfiCond356) NoFunction
        CFI (cfiCond356) Conditional ??CrossCallReturnLabel_107, ??CrossCallReturnLabel_11
        CFI (cfiCond356) R6 load(1, XDATA, add(CFA_XSP16, literal(-14)))
        CFI (cfiCond356) VB load(1, XDATA, add(CFA_XSP16, literal(-13)))
        CFI (cfiCond356) V0 load(1, XDATA, add(CFA_XSP16, literal(-12)))
        CFI (cfiCond356) V1 load(1, XDATA, add(CFA_XSP16, literal(-11)))
        CFI (cfiCond356) V2 load(1, XDATA, add(CFA_XSP16, literal(-10)))
        CFI (cfiCond356) V3 load(1, XDATA, add(CFA_XSP16, literal(-9)))
        CFI (cfiCond356) V4 load(1, XDATA, add(CFA_XSP16, literal(-8)))
        CFI (cfiCond356) V5 load(1, XDATA, add(CFA_XSP16, literal(-7)))
        CFI (cfiCond356) R7 load(1, XDATA, add(CFA_XSP16, literal(-6)))
        CFI (cfiCond356) ?RET_LOW load(1, XDATA, add(CFA_XSP16, literal(-5)))
        CFI (cfiCond356) ?RET_HIGH load(1, XDATA, add(CFA_XSP16, literal(-4)))
        CFI (cfiCond356) ?BRET_EXT load(1, XDATA, add(CFA_XSP16, literal(-3)))
        CFI (cfiCond356) DPL0 load(1, XDATA, add(CFA_XSP16, literal(-2)))
        CFI (cfiCond356) DPH0 load(1, XDATA, add(CFA_XSP16, literal(-1)))
        CFI (cfiCond356) CFA_SP SP+0
        CFI (cfiCond356) CFA_XSP16 add(XSP16, 14)
        CFI Block cfiCond357 Using cfiCommon0
        CFI (cfiCond357) NoFunction
        CFI (cfiCond357) Conditional ??CrossCallReturnLabel_107, ??CrossCallReturnLabel_12
        CFI (cfiCond357) R6 load(1, XDATA, add(CFA_XSP16, literal(-14)))
        CFI (cfiCond357) VB load(1, XDATA, add(CFA_XSP16, literal(-13)))
        CFI (cfiCond357) V0 load(1, XDATA, add(CFA_XSP16, literal(-12)))
        CFI (cfiCond357) V1 load(1, XDATA, add(CFA_XSP16, literal(-11)))
        CFI (cfiCond357) V2 load(1, XDATA, add(CFA_XSP16, literal(-10)))
        CFI (cfiCond357) V3 load(1, XDATA, add(CFA_XSP16, literal(-9)))
        CFI (cfiCond357) V4 load(1, XDATA, add(CFA_XSP16, literal(-8)))
        CFI (cfiCond357) V5 load(1, XDATA, add(CFA_XSP16, literal(-7)))
        CFI (cfiCond357) R7 load(1, XDATA, add(CFA_XSP16, literal(-6)))
        CFI (cfiCond357) ?RET_LOW load(1, XDATA, add(CFA_XSP16, literal(-5)))
        CFI (cfiCond357) ?RET_HIGH load(1, XDATA, add(CFA_XSP16, literal(-4)))
        CFI (cfiCond357) ?BRET_EXT load(1, XDATA, add(CFA_XSP16, literal(-3)))
        CFI (cfiCond357) DPL0 load(1, XDATA, add(CFA_XSP16, literal(-2)))
        CFI (cfiCond357) DPH0 load(1, XDATA, add(CFA_XSP16, literal(-1)))
        CFI (cfiCond357) CFA_SP SP+0
        CFI (cfiCond357) CFA_XSP16 add(XSP16, 14)
        CFI Block cfiCond358 Using cfiCommon0
        CFI (cfiCond358) NoFunction
        CFI (cfiCond358) Conditional ??CrossCallReturnLabel_97, ??CrossCallReturnLabel_19
        CFI (cfiCond358) R6 load(1, XDATA, add(CFA_XSP16, literal(-14)))
        CFI (cfiCond358) VB load(1, XDATA, add(CFA_XSP16, literal(-13)))
        CFI (cfiCond358) V0 load(1, XDATA, add(CFA_XSP16, literal(-12)))
        CFI (cfiCond358) V1 load(1, XDATA, add(CFA_XSP16, literal(-11)))
        CFI (cfiCond358) V2 load(1, XDATA, add(CFA_XSP16, literal(-10)))
        CFI (cfiCond358) V3 load(1, XDATA, add(CFA_XSP16, literal(-9)))
        CFI (cfiCond358) V4 load(1, XDATA, add(CFA_XSP16, literal(-8)))
        CFI (cfiCond358) V5 load(1, XDATA, add(CFA_XSP16, literal(-7)))
        CFI (cfiCond358) R7 load(1, XDATA, add(CFA_XSP16, literal(-6)))
        CFI (cfiCond358) ?RET_LOW load(1, XDATA, add(CFA_XSP16, literal(-5)))
        CFI (cfiCond358) ?RET_HIGH load(1, XDATA, add(CFA_XSP16, literal(-4)))
        CFI (cfiCond358) ?BRET_EXT load(1, XDATA, add(CFA_XSP16, literal(-3)))
        CFI (cfiCond358) DPL0 load(1, XDATA, add(CFA_XSP16, literal(-2)))
        CFI (cfiCond358) DPH0 load(1, XDATA, add(CFA_XSP16, literal(-1)))
        CFI (cfiCond358) CFA_SP SP+0
        CFI (cfiCond358) CFA_XSP16 add(XSP16, 14)
        CFI Block cfiCond359 Using cfiCommon0
        CFI (cfiCond359) NoFunction
        CFI (cfiCond359) Conditional ??CrossCallReturnLabel_97, ??CrossCallReturnLabel_20
        CFI (cfiCond359) R6 load(1, XDATA, add(CFA_XSP16, literal(-14)))
        CFI (cfiCond359) VB load(1, XDATA, add(CFA_XSP16, literal(-13)))
        CFI (cfiCond359) V0 load(1, XDATA, add(CFA_XSP16, literal(-12)))
        CFI (cfiCond359) V1 load(1, XDATA, add(CFA_XSP16, literal(-11)))
        CFI (cfiCond359) V2 load(1, XDATA, add(CFA_XSP16, literal(-10)))
        CFI (cfiCond359) V3 load(1, XDATA, add(CFA_XSP16, literal(-9)))
        CFI (cfiCond359) V4 load(1, XDATA, add(CFA_XSP16, literal(-8)))
        CFI (cfiCond359) V5 load(1, XDATA, add(CFA_XSP16, literal(-7)))
        CFI (cfiCond359) R7 load(1, XDATA, add(CFA_XSP16, literal(-6)))
        CFI (cfiCond359) ?RET_LOW load(1, XDATA, add(CFA_XSP16, literal(-5)))
        CFI (cfiCond359) ?RET_HIGH load(1, XDATA, add(CFA_XSP16, literal(-4)))
        CFI (cfiCond359) ?BRET_EXT load(1, XDATA, add(CFA_XSP16, literal(-3)))
        CFI (cfiCond359) DPL0 load(1, XDATA, add(CFA_XSP16, literal(-2)))
        CFI (cfiCond359) DPH0 load(1, XDATA, add(CFA_XSP16, literal(-1)))
        CFI (cfiCond359) CFA_SP SP+0
        CFI (cfiCond359) CFA_XSP16 add(XSP16, 14)
        CFI Block cfiCond360 Using cfiCommon0
        CFI (cfiCond360) NoFunction
        CFI (cfiCond360) Conditional ??CrossCallReturnLabel_98, ??CrossCallReturnLabel_17
        CFI (cfiCond360) R6 load(1, XDATA, add(CFA_XSP16, literal(-14)))
        CFI (cfiCond360) VB load(1, XDATA, add(CFA_XSP16, literal(-13)))
        CFI (cfiCond360) V0 load(1, XDATA, add(CFA_XSP16, literal(-12)))
        CFI (cfiCond360) V1 load(1, XDATA, add(CFA_XSP16, literal(-11)))
        CFI (cfiCond360) V2 load(1, XDATA, add(CFA_XSP16, literal(-10)))
        CFI (cfiCond360) V3 load(1, XDATA, add(CFA_XSP16, literal(-9)))
        CFI (cfiCond360) V4 load(1, XDATA, add(CFA_XSP16, literal(-8)))
        CFI (cfiCond360) V5 load(1, XDATA, add(CFA_XSP16, literal(-7)))
        CFI (cfiCond360) R7 load(1, XDATA, add(CFA_XSP16, literal(-6)))
        CFI (cfiCond360) ?RET_LOW load(1, XDATA, add(CFA_XSP16, literal(-5)))
        CFI (cfiCond360) ?RET_HIGH load(1, XDATA, add(CFA_XSP16, literal(-4)))
        CFI (cfiCond360) ?BRET_EXT load(1, XDATA, add(CFA_XSP16, literal(-3)))
        CFI (cfiCond360) DPL0 load(1, XDATA, add(CFA_XSP16, literal(-2)))
        CFI (cfiCond360) DPH0 load(1, XDATA, add(CFA_XSP16, literal(-1)))
        CFI (cfiCond360) CFA_SP SP+0
        CFI (cfiCond360) CFA_XSP16 add(XSP16, 14)
        CFI Block cfiCond361 Using cfiCommon0
        CFI (cfiCond361) NoFunction
        CFI (cfiCond361) Conditional ??CrossCallReturnLabel_98, ??CrossCallReturnLabel_18
        CFI (cfiCond361) R6 load(1, XDATA, add(CFA_XSP16, literal(-14)))
        CFI (cfiCond361) VB load(1, XDATA, add(CFA_XSP16, literal(-13)))
        CFI (cfiCond361) V0 load(1, XDATA, add(CFA_XSP16, literal(-12)))
        CFI (cfiCond361) V1 load(1, XDATA, add(CFA_XSP16, literal(-11)))
        CFI (cfiCond361) V2 load(1, XDATA, add(CFA_XSP16, literal(-10)))
        CFI (cfiCond361) V3 load(1, XDATA, add(CFA_XSP16, literal(-9)))
        CFI (cfiCond361) V4 load(1, XDATA, add(CFA_XSP16, literal(-8)))
        CFI (cfiCond361) V5 load(1, XDATA, add(CFA_XSP16, literal(-7)))
        CFI (cfiCond361) R7 load(1, XDATA, add(CFA_XSP16, literal(-6)))
        CFI (cfiCond361) ?RET_LOW load(1, XDATA, add(CFA_XSP16, literal(-5)))
        CFI (cfiCond361) ?RET_HIGH load(1, XDATA, add(CFA_XSP16, literal(-4)))
        CFI (cfiCond361) ?BRET_EXT load(1, XDATA, add(CFA_XSP16, literal(-3)))
        CFI (cfiCond361) DPL0 load(1, XDATA, add(CFA_XSP16, literal(-2)))
        CFI (cfiCond361) DPH0 load(1, XDATA, add(CFA_XSP16, literal(-1)))
        CFI (cfiCond361) CFA_SP SP+0
        CFI (cfiCond361) CFA_XSP16 add(XSP16, 14)
        CFI Block cfiPicker362 Using cfiCommon1
        CFI (cfiPicker362) NoFunction
        CFI (cfiPicker362) Picker
        LCALL   ?Subroutine30 & 0xFFFF
??CrossCallReturnLabel_112:
        RET
        CFI EndBlock cfiCond304
        CFI EndBlock cfiCond305
        CFI EndBlock cfiCond306
        CFI EndBlock cfiCond307
        CFI EndBlock cfiCond308
        CFI EndBlock cfiCond309
        CFI EndBlock cfiCond310
        CFI EndBlock cfiCond311
        CFI EndBlock cfiCond312
        CFI EndBlock cfiCond313
        CFI EndBlock cfiCond314
        CFI EndBlock cfiCond315
        CFI EndBlock cfiCond316
        CFI EndBlock cfiCond317
        CFI EndBlock cfiCond318
        CFI EndBlock cfiCond319
        CFI EndBlock cfiCond320
        CFI EndBlock cfiCond321
        CFI EndBlock cfiCond322
        CFI EndBlock cfiCond323
        CFI EndBlock cfiCond324
        CFI EndBlock cfiCond325
        CFI EndBlock cfiCond326
        CFI EndBlock cfiCond327
        CFI EndBlock cfiCond328
        CFI EndBlock cfiCond329
        CFI EndBlock cfiCond330
        CFI EndBlock cfiCond331
        CFI EndBlock cfiCond332
        CFI EndBlock cfiCond333
        CFI EndBlock cfiCond334
        CFI EndBlock cfiCond335
        CFI EndBlock cfiCond336
        CFI EndBlock cfiCond337
        CFI EndBlock cfiCond338
        CFI EndBlock cfiCond339
        CFI EndBlock cfiCond340
        CFI EndBlock cfiCond341
        CFI EndBlock cfiCond342
        CFI EndBlock cfiCond343
        CFI EndBlock cfiCond344
        CFI EndBlock cfiCond345
        CFI EndBlock cfiCond346
        CFI EndBlock cfiCond347
        CFI EndBlock cfiCond348
        CFI EndBlock cfiCond349
        CFI EndBlock cfiCond350
        CFI EndBlock cfiCond351
        CFI EndBlock cfiCond352
        CFI EndBlock cfiCond353
        CFI EndBlock cfiCond354
        CFI EndBlock cfiCond355
        CFI EndBlock cfiCond356
        CFI EndBlock cfiCond357
        CFI EndBlock cfiCond358
        CFI EndBlock cfiCond359
        CFI EndBlock cfiCond360
        CFI EndBlock cfiCond361
        CFI EndBlock cfiPicker362

        RSEG BANKED_CODE:CODE:NOROOT(0)
?Subroutine13:
        CFI Block cfiCond363 Using cfiCommon0
        CFI NoFunction
        CFI Conditional ??CrossCallReturnLabel_19
        CFI R6 load(1, XDATA, add(CFA_XSP16, literal(-14)))
        CFI VB load(1, XDATA, add(CFA_XSP16, literal(-13)))
        CFI V0 load(1, XDATA, add(CFA_XSP16, literal(-12)))
        CFI V1 load(1, XDATA, add(CFA_XSP16, literal(-11)))
        CFI V2 load(1, XDATA, add(CFA_XSP16, literal(-10)))
        CFI V3 load(1, XDATA, add(CFA_XSP16, literal(-9)))
        CFI V4 load(1, XDATA, add(CFA_XSP16, literal(-8)))
        CFI V5 load(1, XDATA, add(CFA_XSP16, literal(-7)))
        CFI R7 load(1, XDATA, add(CFA_XSP16, literal(-6)))
        CFI ?RET_LOW load(1, XDATA, add(CFA_XSP16, literal(-5)))
        CFI ?RET_HIGH load(1, XDATA, add(CFA_XSP16, literal(-4)))
        CFI ?BRET_EXT load(1, XDATA, add(CFA_XSP16, literal(-3)))
        CFI DPL0 load(1, XDATA, add(CFA_XSP16, literal(-2)))
        CFI DPH0 load(1, XDATA, add(CFA_XSP16, literal(-1)))
        CFI CFA_SP SP+0
        CFI CFA_XSP16 add(XSP16, 14)
        CFI Block cfiCond364 Using cfiCommon0
        CFI (cfiCond364) NoFunction
        CFI (cfiCond364) Conditional ??CrossCallReturnLabel_20
        CFI (cfiCond364) R6 load(1, XDATA, add(CFA_XSP16, literal(-14)))
        CFI (cfiCond364) VB load(1, XDATA, add(CFA_XSP16, literal(-13)))
        CFI (cfiCond364) V0 load(1, XDATA, add(CFA_XSP16, literal(-12)))
        CFI (cfiCond364) V1 load(1, XDATA, add(CFA_XSP16, literal(-11)))
        CFI (cfiCond364) V2 load(1, XDATA, add(CFA_XSP16, literal(-10)))
        CFI (cfiCond364) V3 load(1, XDATA, add(CFA_XSP16, literal(-9)))
        CFI (cfiCond364) V4 load(1, XDATA, add(CFA_XSP16, literal(-8)))
        CFI (cfiCond364) V5 load(1, XDATA, add(CFA_XSP16, literal(-7)))
        CFI (cfiCond364) R7 load(1, XDATA, add(CFA_XSP16, literal(-6)))
        CFI (cfiCond364) ?RET_LOW load(1, XDATA, add(CFA_XSP16, literal(-5)))
        CFI (cfiCond364) ?RET_HIGH load(1, XDATA, add(CFA_XSP16, literal(-4)))
        CFI (cfiCond364) ?BRET_EXT load(1, XDATA, add(CFA_XSP16, literal(-3)))
        CFI (cfiCond364) DPL0 load(1, XDATA, add(CFA_XSP16, literal(-2)))
        CFI (cfiCond364) DPH0 load(1, XDATA, add(CFA_XSP16, literal(-1)))
        CFI (cfiCond364) CFA_SP SP+0
        CFI (cfiCond364) CFA_XSP16 add(XSP16, 14)
        CFI Block cfiPicker365 Using cfiCommon1
        CFI (cfiPicker365) NoFunction
        CFI (cfiPicker365) Picker
        LCALL   ?Subroutine25 & 0xFFFF
??CrossCallReturnLabel_97:
        MOV     A,R6
        ADD     A,?V0 + 2
        RET
        CFI EndBlock cfiCond363
        CFI EndBlock cfiCond364
        CFI EndBlock cfiPicker365

        RSEG BANKED_CODE:CODE:NOROOT(0)
?Subroutine12:
        CFI Block cfiCond366 Using cfiCommon0
        CFI NoFunction
        CFI Conditional ??CrossCallReturnLabel_17
        CFI R6 load(1, XDATA, add(CFA_XSP16, literal(-14)))
        CFI VB load(1, XDATA, add(CFA_XSP16, literal(-13)))
        CFI V0 load(1, XDATA, add(CFA_XSP16, literal(-12)))
        CFI V1 load(1, XDATA, add(CFA_XSP16, literal(-11)))
        CFI V2 load(1, XDATA, add(CFA_XSP16, literal(-10)))
        CFI V3 load(1, XDATA, add(CFA_XSP16, literal(-9)))
        CFI V4 load(1, XDATA, add(CFA_XSP16, literal(-8)))
        CFI V5 load(1, XDATA, add(CFA_XSP16, literal(-7)))
        CFI R7 load(1, XDATA, add(CFA_XSP16, literal(-6)))
        CFI ?RET_LOW load(1, XDATA, add(CFA_XSP16, literal(-5)))
        CFI ?RET_HIGH load(1, XDATA, add(CFA_XSP16, literal(-4)))
        CFI ?BRET_EXT load(1, XDATA, add(CFA_XSP16, literal(-3)))
        CFI DPL0 load(1, XDATA, add(CFA_XSP16, literal(-2)))
        CFI DPH0 load(1, XDATA, add(CFA_XSP16, literal(-1)))
        CFI CFA_SP SP+0
        CFI CFA_XSP16 add(XSP16, 14)
        CFI Block cfiCond367 Using cfiCommon0
        CFI (cfiCond367) NoFunction
        CFI (cfiCond367) Conditional ??CrossCallReturnLabel_18
        CFI (cfiCond367) R6 load(1, XDATA, add(CFA_XSP16, literal(-14)))
        CFI (cfiCond367) VB load(1, XDATA, add(CFA_XSP16, literal(-13)))
        CFI (cfiCond367) V0 load(1, XDATA, add(CFA_XSP16, literal(-12)))
        CFI (cfiCond367) V1 load(1, XDATA, add(CFA_XSP16, literal(-11)))
        CFI (cfiCond367) V2 load(1, XDATA, add(CFA_XSP16, literal(-10)))
        CFI (cfiCond367) V3 load(1, XDATA, add(CFA_XSP16, literal(-9)))
        CFI (cfiCond367) V4 load(1, XDATA, add(CFA_XSP16, literal(-8)))
        CFI (cfiCond367) V5 load(1, XDATA, add(CFA_XSP16, literal(-7)))
        CFI (cfiCond367) R7 load(1, XDATA, add(CFA_XSP16, literal(-6)))
        CFI (cfiCond367) ?RET_LOW load(1, XDATA, add(CFA_XSP16, literal(-5)))
        CFI (cfiCond367) ?RET_HIGH load(1, XDATA, add(CFA_XSP16, literal(-4)))
        CFI (cfiCond367) ?BRET_EXT load(1, XDATA, add(CFA_XSP16, literal(-3)))
        CFI (cfiCond367) DPL0 load(1, XDATA, add(CFA_XSP16, literal(-2)))
        CFI (cfiCond367) DPH0 load(1, XDATA, add(CFA_XSP16, literal(-1)))
        CFI (cfiCond367) CFA_SP SP+0
        CFI (cfiCond367) CFA_XSP16 add(XSP16, 14)
        CFI Block cfiPicker368 Using cfiCommon1
        CFI (cfiPicker368) NoFunction
        CFI (cfiPicker368) Picker
        LCALL   ?Subroutine25 & 0xFFFF
??CrossCallReturnLabel_98:
        MOV     A,?V0 + 0
        ADD     A,?V0 + 4
        RET
        CFI EndBlock cfiCond366
        CFI EndBlock cfiCond367
        CFI EndBlock cfiPicker368

        RSEG BANKED_CODE:CODE:NOROOT(0)
?Subroutine7:
        CFI Block cfiCond369 Using cfiCommon0
        CFI NoFunction
        CFI Conditional ??CrossCallReturnLabel_113
        CFI DPL0 Frame(CFA_SP, 4)
        CFI DPH0 Frame(CFA_SP, 5)
        CFI CFA_SP SP+-5
        CFI Block cfiCond370 Using cfiCommon0
        CFI (cfiCond370) NoFunction
        CFI (cfiCond370) Conditional ??CrossCallReturnLabel_114
        CFI (cfiCond370) DPL0 Frame(CFA_SP, 4)
        CFI (cfiCond370) DPH0 Frame(CFA_SP, 5)
        CFI (cfiCond370) CFA_SP SP+-5
        CFI Block cfiPicker371 Using cfiCommon1
        CFI (cfiPicker371) NoFunction
        CFI (cfiPicker371) Picker
        LCALL   ??Subroutine37_0 & 0xFFFF
??CrossCallReturnLabel_106:
        MOV     R1,#0x0
        CFI EndBlock cfiCond369
        CFI EndBlock cfiCond370
        CFI EndBlock cfiPicker371
        REQUIRE ??Subroutine38_0
        ; // Fall through to label ??Subroutine38_0

        RSEG BANKED_CODE:CODE:NOROOT(0)
??Subroutine38_0:
        CFI Block cfiCond372 Using cfiCommon0
        CFI NoFunction
        CFI Conditional ??CrossCallReturnLabel_115
        CFI DPL0 Frame(CFA_SP, 4)
        CFI DPH0 Frame(CFA_SP, 5)
        CFI CFA_SP SP+-5
        CFI Block cfiCond373 Using cfiCommon0
        CFI (cfiCond373) NoFunction
        CFI (cfiCond373) Conditional ??CrossCallReturnLabel_116
        CFI (cfiCond373) DPL0 Frame(CFA_SP, 4)
        CFI (cfiCond373) DPH0 Frame(CFA_SP, 5)
        CFI (cfiCond373) CFA_SP SP+-5
        CFI Block cfiCond374 Using cfiCommon0
        CFI (cfiCond374) NoFunction
        CFI (cfiCond374) Conditional ??CrossCallReturnLabel_117
        CFI (cfiCond374) DPL0 Frame(CFA_SP, 4)
        CFI (cfiCond374) DPH0 Frame(CFA_SP, 5)
        CFI (cfiCond374) CFA_SP SP+-5
        CFI Block cfiCond375 Using cfiCommon0
        CFI (cfiCond375) NoFunction
        CFI (cfiCond375) Conditional ??CrossCallReturnLabel_118
        CFI (cfiCond375) DPL0 Frame(CFA_SP, 4)
        CFI (cfiCond375) DPH0 Frame(CFA_SP, 5)
        CFI (cfiCond375) CFA_SP SP+-5
        CFI Block cfiCond376 Using cfiCommon0
        CFI (cfiCond376) NoFunction
        CFI (cfiCond376) Conditional ??CrossCallReturnLabel_119
        CFI (cfiCond376) DPL0 Frame(CFA_SP, 4)
        CFI (cfiCond376) DPH0 Frame(CFA_SP, 5)
        CFI (cfiCond376) CFA_SP SP+-5
        CFI Block cfiCond377 Using cfiCommon0
        CFI (cfiCond377) NoFunction
        CFI (cfiCond377) Conditional ??CrossCallReturnLabel_120
        CFI (cfiCond377) DPL0 Frame(CFA_SP, 4)
        CFI (cfiCond377) DPH0 Frame(CFA_SP, 5)
        CFI (cfiCond377) CFA_SP SP+-5
        CFI Block cfiCond378 Using cfiCommon0
        CFI (cfiCond378) NoFunction
        CFI (cfiCond378) Conditional ??CrossCallReturnLabel_121
        CFI (cfiCond378) DPL0 Frame(CFA_SP, 4)
        CFI (cfiCond378) DPH0 Frame(CFA_SP, 5)
        CFI (cfiCond378) CFA_SP SP+-5
        CFI Block cfiCond379 Using cfiCommon0
        CFI (cfiCond379) NoFunction
        CFI (cfiCond379) Conditional ??CrossCallReturnLabel_122
        CFI (cfiCond379) DPL0 Frame(CFA_SP, 4)
        CFI (cfiCond379) DPH0 Frame(CFA_SP, 5)
        CFI (cfiCond379) CFA_SP SP+-5
        CFI Block cfiCond380 Using cfiCommon0
        CFI (cfiCond380) NoFunction
        CFI (cfiCond380) Conditional ??CrossCallReturnLabel_123
        CFI (cfiCond380) DPL0 Frame(CFA_SP, 4)
        CFI (cfiCond380) DPH0 Frame(CFA_SP, 5)
        CFI (cfiCond380) CFA_SP SP+-5
        CFI Block cfiCond381 Using cfiCommon0
        CFI (cfiCond381) NoFunction
        CFI (cfiCond381) Conditional ??CrossCallReturnLabel_124
        CFI (cfiCond381) DPL0 Frame(CFA_SP, 4)
        CFI (cfiCond381) DPH0 Frame(CFA_SP, 5)
        CFI (cfiCond381) CFA_SP SP+-5
        CFI Block cfiCond382 Using cfiCommon0
        CFI (cfiCond382) NoFunction
        CFI (cfiCond382) Conditional ??CrossCallReturnLabel_125
        CFI (cfiCond382) DPL0 Frame(CFA_SP, 4)
        CFI (cfiCond382) DPH0 Frame(CFA_SP, 5)
        CFI (cfiCond382) CFA_SP SP+-5
        CFI Block cfiCond383 Using cfiCommon0
        CFI (cfiCond383) NoFunction
        CFI (cfiCond383) Conditional ??CrossCallReturnLabel_126
        CFI (cfiCond383) DPL0 Frame(CFA_SP, 4)
        CFI (cfiCond383) DPH0 Frame(CFA_SP, 5)
        CFI (cfiCond383) CFA_SP SP+-5
        CFI Block cfiCond384 Using cfiCommon0
        CFI (cfiCond384) NoFunction
        CFI (cfiCond384) Conditional ??CrossCallReturnLabel_127
        CFI (cfiCond384) DPL0 Frame(CFA_SP, 4)
        CFI (cfiCond384) DPH0 Frame(CFA_SP, 5)
        CFI (cfiCond384) CFA_SP SP+-5
        CFI Block cfiCond385 Using cfiCommon0
        CFI (cfiCond385) NoFunction
        CFI (cfiCond385) Conditional ??CrossCallReturnLabel_128
        CFI (cfiCond385) R6 load(1, XDATA, add(CFA_XSP16, literal(-14)))
        CFI (cfiCond385) VB load(1, XDATA, add(CFA_XSP16, literal(-13)))
        CFI (cfiCond385) V0 load(1, XDATA, add(CFA_XSP16, literal(-12)))
        CFI (cfiCond385) V1 load(1, XDATA, add(CFA_XSP16, literal(-11)))
        CFI (cfiCond385) V2 load(1, XDATA, add(CFA_XSP16, literal(-10)))
        CFI (cfiCond385) V3 load(1, XDATA, add(CFA_XSP16, literal(-9)))
        CFI (cfiCond385) V4 load(1, XDATA, add(CFA_XSP16, literal(-8)))
        CFI (cfiCond385) V5 load(1, XDATA, add(CFA_XSP16, literal(-7)))
        CFI (cfiCond385) R7 load(1, XDATA, add(CFA_XSP16, literal(-6)))
        CFI (cfiCond385) ?RET_LOW load(1, XDATA, add(CFA_XSP16, literal(-5)))
        CFI (cfiCond385) ?RET_HIGH load(1, XDATA, add(CFA_XSP16, literal(-4)))
        CFI (cfiCond385) ?BRET_EXT load(1, XDATA, add(CFA_XSP16, literal(-3)))
        CFI (cfiCond385) DPL0 load(1, XDATA, add(CFA_XSP16, literal(-2)))
        CFI (cfiCond385) DPH0 load(1, XDATA, add(CFA_XSP16, literal(-1)))
        CFI (cfiCond385) CFA_SP SP+0
        CFI (cfiCond385) CFA_XSP16 add(XSP16, 14)
        CFI Block cfiCond386 Using cfiCommon0
        CFI (cfiCond386) NoFunction
        CFI (cfiCond386) Conditional ??CrossCallReturnLabel_129
        CFI (cfiCond386) R6 load(1, XDATA, add(CFA_XSP16, literal(-14)))
        CFI (cfiCond386) VB load(1, XDATA, add(CFA_XSP16, literal(-13)))
        CFI (cfiCond386) V0 load(1, XDATA, add(CFA_XSP16, literal(-12)))
        CFI (cfiCond386) V1 load(1, XDATA, add(CFA_XSP16, literal(-11)))
        CFI (cfiCond386) V2 load(1, XDATA, add(CFA_XSP16, literal(-10)))
        CFI (cfiCond386) V3 load(1, XDATA, add(CFA_XSP16, literal(-9)))
        CFI (cfiCond386) V4 load(1, XDATA, add(CFA_XSP16, literal(-8)))
        CFI (cfiCond386) V5 load(1, XDATA, add(CFA_XSP16, literal(-7)))
        CFI (cfiCond386) R7 load(1, XDATA, add(CFA_XSP16, literal(-6)))
        CFI (cfiCond386) ?RET_LOW load(1, XDATA, add(CFA_XSP16, literal(-5)))
        CFI (cfiCond386) ?RET_HIGH load(1, XDATA, add(CFA_XSP16, literal(-4)))
        CFI (cfiCond386) ?BRET_EXT load(1, XDATA, add(CFA_XSP16, literal(-3)))
        CFI (cfiCond386) DPL0 load(1, XDATA, add(CFA_XSP16, literal(-2)))
        CFI (cfiCond386) DPH0 load(1, XDATA, add(CFA_XSP16, literal(-1)))
        CFI (cfiCond386) CFA_SP SP+0
        CFI (cfiCond386) CFA_XSP16 add(XSP16, 14)
        CFI Block cfiCond387 Using cfiCommon0
        CFI (cfiCond387) NoFunction
        CFI (cfiCond387) Conditional ??CrossCallReturnLabel_113
        CFI (cfiCond387) DPL0 Frame(CFA_SP, 4)
        CFI (cfiCond387) DPH0 Frame(CFA_SP, 5)
        CFI (cfiCond387) CFA_SP SP+-5
        CFI Block cfiCond388 Using cfiCommon0
        CFI (cfiCond388) NoFunction
        CFI (cfiCond388) Conditional ??CrossCallReturnLabel_114
        CFI (cfiCond388) DPL0 Frame(CFA_SP, 4)
        CFI (cfiCond388) DPH0 Frame(CFA_SP, 5)
        CFI (cfiCond388) CFA_SP SP+-5
        CFI Block cfiPicker389 Using cfiCommon1
        CFI (cfiPicker389) NoFunction
        CFI (cfiPicker389) Picker
        LCALL   ??LCD_write_byte?relay
        ; Setup parameters for call to function LCD_write_byte
        ; Setup parameters for call to function LCD_write_byte
        ; Setup parameters for call to function LCD_write_byte
        ; Setup parameters for call to function LCD_write_byte
        ; Setup parameters for call to function LCD_write_byte
        ; Setup parameters for call to function LCD_write_byte
        ; Setup parameters for call to function LCD_write_byte
        ; Setup parameters for call to function LCD_write_byte
        ; Setup parameters for call to function LCD_write_byte
        ; Setup parameters for call to function LCD_write_byte
        ; Setup parameters for call to function LCD_write_byte
        ; Setup parameters for call to function LCD_write_byte
        ; Setup parameters for call to function LCD_write_byte
        ; Setup parameters for call to function LCD_write_byte
        ; Setup parameters for call to function LCD_write_byte
        ; Setup parameters for call to function LCD_write_byte
        ; Setup parameters for call to function LCD_write_byte
        MOV     R2,#0x0
        RET
        CFI EndBlock cfiCond372
        CFI EndBlock cfiCond373
        CFI EndBlock cfiCond374
        CFI EndBlock cfiCond375
        CFI EndBlock cfiCond376
        CFI EndBlock cfiCond377
        CFI EndBlock cfiCond378
        CFI EndBlock cfiCond379
        CFI EndBlock cfiCond380
        CFI EndBlock cfiCond381
        CFI EndBlock cfiCond382
        CFI EndBlock cfiCond383
        CFI EndBlock cfiCond384
        CFI EndBlock cfiCond385
        CFI EndBlock cfiCond386
        CFI EndBlock cfiCond387
        CFI EndBlock cfiCond388
        CFI EndBlock cfiPicker389
//  466 
//  467 /****************************************************************************
//  468 * 名    称: DrawPixel()
//  469 * 功    能: 在指定位置以指定颜色显示像素
//  470 ****************************************************************************/

        RSEG BANKED_CODE:CODE:NOROOT(0)
//  471 void DrawPixel(unsigned int x, unsigned int y, unsigned int color)
DrawPixel:
        CFI Block cfiBlock390 Using cfiCommon0
        CFI Function DrawPixel
        CODE
//  472 {
        FUNCALL DrawPixel, LCD_write_byte
        LOCFRAME ISTACK, 0, STACK
        LOCFRAME PSTACK, 0, STACK
        LOCFRAME XSTACK, 9, STACK
        LOCFRAME IOVERLAY, 0, STATIC
        LOCFRAME DOVERLAY, 0, STATIC
        ARGFRAME ISTACK, 0, STACK
        ARGFRAME PSTACK, 0, STACK
        ARGFRAME XSTACK, 9, STACK
        ARGFRAME IOVERLAY, 0, STATIC
        ARGFRAME DOVERLAY, 0, STATIC
        FUNCALL DrawPixel, LCD_write_byte
        LOCFRAME ISTACK, 0, STACK
        LOCFRAME PSTACK, 0, STACK
        LOCFRAME XSTACK, 9, STACK
        LOCFRAME IOVERLAY, 0, STATIC
        LOCFRAME DOVERLAY, 0, STATIC
        ARGFRAME ISTACK, 0, STACK
        ARGFRAME PSTACK, 0, STACK
        ARGFRAME XSTACK, 9, STACK
        ARGFRAME IOVERLAY, 0, STATIC
        ARGFRAME DOVERLAY, 0, STATIC
        MOV     A,#-0x9
        LCALL   ?BANKED_ENTER_XDATA
        CFI DPH0 load(1, XDATA, add(CFA_XSP16, literal(-1)))
        CFI DPL0 load(1, XDATA, add(CFA_XSP16, literal(-2)))
        CFI ?BRET_EXT load(1, XDATA, add(CFA_XSP16, literal(-3)))
        CFI ?RET_HIGH load(1, XDATA, add(CFA_XSP16, literal(-4)))
        CFI ?RET_LOW load(1, XDATA, add(CFA_XSP16, literal(-5)))
        CFI R7 load(1, XDATA, add(CFA_XSP16, literal(-6)))
        CFI V0 load(1, XDATA, add(CFA_XSP16, literal(-7)))
        CFI VB load(1, XDATA, add(CFA_XSP16, literal(-8)))
        CFI R6 load(1, XDATA, add(CFA_XSP16, literal(-9)))
        CFI CFA_SP SP+0
        CFI CFA_XSP16 add(XSP16, 9)
        ; Saved register size: 9
        ; Auto size: 0
        MOV     A,#0x9
        LCALL   ?XSTACK_DISP0_8
        MOVX    A,@DPTR
        MOV     R6,A
        INC     DPTR
        MOVX    A,@DPTR
//  473   //LCD_set_XY(x,y);  //设定显示位置 andy
//  474   LCD_write_byte(color>>8,LCD_DATA);  //发送显示颜色数据高位字节
        ; Setup parameters for call to function LCD_write_byte
        MOV     R2,#0x1
        MOV     R1,A
        LCALL   ??Subroutine36_0 & 0xFFFF
//  475   LCD_write_byte(color&0xFF,LCD_DATA);//发送显示颜色数据低位字节
??CrossCallReturnLabel_96:
        MOV     A,R6
        MOV     R1,A
        LCALL   ??LCD_write_byte?relay
//  476 }
        LJMP    ??Subroutine35_0 & 0xFFFF
        CFI EndBlock cfiBlock390
//  477 
//  478 /****************************************************************************
//  479 * 名    称: DrawVerticalLine()
//  480 * 功    能: 在指定位置以指定颜色画垂直线
//  481 * 入口参数: X - 垂直线起始位置横坐标      Y ―垂直线起始位置纵坐标
//  482 *           Length ―垂直线长度           Color ―垂直线颜色
//  483 * 出口参数: 无
//  484 ****************************************************************************/

        RSEG BANKED_CODE:CODE:NOROOT(0)
//  485 void DrawVerticalLine(unsigned int x, unsigned int y, 
DrawVerticalLine:
        CFI Block cfiBlock391 Using cfiCommon0
        CFI Function DrawVerticalLine
        CODE
//  486                       unsigned int Length,unsigned int Color)               
//  487 {
        FUNCALL DrawVerticalLine, LCD_set_window
        LOCFRAME ISTACK, 0, STACK
        LOCFRAME PSTACK, 0, STACK
        LOCFRAME XSTACK, 18, STACK
        LOCFRAME IOVERLAY, 0, STATIC
        LOCFRAME DOVERLAY, 0, STATIC
        ARGFRAME ISTACK, 0, STACK
        ARGFRAME PSTACK, 0, STACK
        ARGFRAME XSTACK, 18, STACK
        ARGFRAME IOVERLAY, 0, STATIC
        ARGFRAME DOVERLAY, 0, STATIC
        FUNCALL DrawVerticalLine, LCD_write_byte
        LOCFRAME ISTACK, 0, STACK
        LOCFRAME PSTACK, 0, STACK
        LOCFRAME XSTACK, 14, STACK
        LOCFRAME IOVERLAY, 0, STATIC
        LOCFRAME DOVERLAY, 0, STATIC
        ARGFRAME ISTACK, 0, STACK
        ARGFRAME PSTACK, 0, STACK
        ARGFRAME XSTACK, 14, STACK
        ARGFRAME IOVERLAY, 0, STATIC
        ARGFRAME DOVERLAY, 0, STATIC
        FUNCALL DrawVerticalLine, LCD_write_byte
        LOCFRAME ISTACK, 0, STACK
        LOCFRAME PSTACK, 0, STACK
        LOCFRAME XSTACK, 14, STACK
        LOCFRAME IOVERLAY, 0, STATIC
        LOCFRAME DOVERLAY, 0, STATIC
        ARGFRAME ISTACK, 0, STACK
        ARGFRAME PSTACK, 0, STACK
        ARGFRAME XSTACK, 14, STACK
        ARGFRAME IOVERLAY, 0, STATIC
        ARGFRAME DOVERLAY, 0, STATIC
        MOV     A,#-0xe
        LCALL   ?BANKED_ENTER_XDATA
        CFI DPH0 load(1, XDATA, add(CFA_XSP16, literal(-1)))
        CFI DPL0 load(1, XDATA, add(CFA_XSP16, literal(-2)))
        CFI ?BRET_EXT load(1, XDATA, add(CFA_XSP16, literal(-3)))
        CFI ?RET_HIGH load(1, XDATA, add(CFA_XSP16, literal(-4)))
        CFI ?RET_LOW load(1, XDATA, add(CFA_XSP16, literal(-5)))
        CFI R7 load(1, XDATA, add(CFA_XSP16, literal(-6)))
        CFI V5 load(1, XDATA, add(CFA_XSP16, literal(-7)))
        CFI V4 load(1, XDATA, add(CFA_XSP16, literal(-8)))
        CFI V3 load(1, XDATA, add(CFA_XSP16, literal(-9)))
        CFI V2 load(1, XDATA, add(CFA_XSP16, literal(-10)))
        CFI V1 load(1, XDATA, add(CFA_XSP16, literal(-11)))
        CFI V0 load(1, XDATA, add(CFA_XSP16, literal(-12)))
        CFI VB load(1, XDATA, add(CFA_XSP16, literal(-13)))
        CFI R6 load(1, XDATA, add(CFA_XSP16, literal(-14)))
        CFI CFA_SP SP+0
        CFI CFA_XSP16 add(XSP16, 14)
        ; Saved register size: 14
        ; Auto size: 0
        MOV     A,#0xe
        LCALL   ?XSTACK_DISP0_8
        LCALL   ?Subroutine21 & 0xFFFF
??CrossCallReturnLabel_38:
        LCALL   ?XSTACK_DISP0_8
        LCALL   ?Subroutine20 & 0xFFFF
//  488   register int  index = 0;
//  489   register char ch,cl;
//  490   
//  491   ch = (unsigned char)(Color>>8);
//  492   cl = (unsigned char)(Color);
//  493   LCD_set_window(x,y,1,Length);
??CrossCallReturnLabel_36:
        ; Setup parameters for call to function LCD_set_window
        MOV     R0,#?V0 + 0
        LCALL   ?PUSH_XSTACK_I_TWO
        CFI CFA_XSP16 add(XSP16, 16)
        MOV     ?V0 + 4,#0x1
        MOV     ?V0 + 5,#0x0
        MOV     R0,#?V0 + 4
        LCALL   ?PUSH_XSTACK_I_TWO
        CFI CFA_XSP16 add(XSP16, 18)
        LCALL   ?Subroutine15 & 0xFFFF
??CrossCallReturnLabel_22:
        LCALL   ?DEALLOC_XSTACK8
        CFI CFA_XSP16 add(XSP16, 14)
//  494   for(index=0;index<Length;index++)
        MOV     R6,#0x0
        MOV     R7,#0x0
        SJMP    ??CrossCallReturnLabel_11
//  495   {
//  496   LCD_write_byte(ch,LCD_DATA) ;
??DrawVerticalLine_0:
        ; Setup parameters for call to function LCD_write_byte
        LCALL   ?Subroutine9 & 0xFFFF
//  497   LCD_write_byte(cl,LCD_DATA) ;
//  498   }
??CrossCallReturnLabel_11:
        CLR     C
        MOV     A,R6
        SUBB    A,?V0 + 0
        MOV     A,R7
        SUBB    A,?V0 + 1
        JC      ??DrawVerticalLine_0
//  499 }
        LJMP    ?Subroutine2 & 0xFFFF
        CFI EndBlock cfiBlock391
//  500 
//  501 /****************************************************************************
//  502 * 名    称: DrawHorizonLine()
//  503 * 功    能: 在指定位置以指定颜色画水平线
//  504 * 入口参数: X - 水平线起始位置横坐标      Y ―水平线起始位置纵坐标
//  505 *           Length ―水平线长度           Color ―水平线颜色
//  506 * 出口参数: 无
//  507 ****************************************************************************/

        RSEG BANKED_CODE:CODE:NOROOT(0)
//  508 void DrawHorizonLine(unsigned int x, unsigned int y, 
DrawHorizonLine:
        CFI Block cfiBlock392 Using cfiCommon0
        CFI Function DrawHorizonLine
        CODE
//  509                      unsigned int Length,unsigned int Color)               
//  510 {
        FUNCALL DrawHorizonLine, LCD_set_window
        LOCFRAME ISTACK, 0, STACK
        LOCFRAME PSTACK, 0, STACK
        LOCFRAME XSTACK, 18, STACK
        LOCFRAME IOVERLAY, 0, STATIC
        LOCFRAME DOVERLAY, 0, STATIC
        ARGFRAME ISTACK, 0, STACK
        ARGFRAME PSTACK, 0, STACK
        ARGFRAME XSTACK, 18, STACK
        ARGFRAME IOVERLAY, 0, STATIC
        ARGFRAME DOVERLAY, 0, STATIC
        FUNCALL DrawHorizonLine, LCD_write_byte
        LOCFRAME ISTACK, 0, STACK
        LOCFRAME PSTACK, 0, STACK
        LOCFRAME XSTACK, 14, STACK
        LOCFRAME IOVERLAY, 0, STATIC
        LOCFRAME DOVERLAY, 0, STATIC
        ARGFRAME ISTACK, 0, STACK
        ARGFRAME PSTACK, 0, STACK
        ARGFRAME XSTACK, 14, STACK
        ARGFRAME IOVERLAY, 0, STATIC
        ARGFRAME DOVERLAY, 0, STATIC
        FUNCALL DrawHorizonLine, LCD_write_byte
        LOCFRAME ISTACK, 0, STACK
        LOCFRAME PSTACK, 0, STACK
        LOCFRAME XSTACK, 14, STACK
        LOCFRAME IOVERLAY, 0, STATIC
        LOCFRAME DOVERLAY, 0, STATIC
        ARGFRAME ISTACK, 0, STACK
        ARGFRAME PSTACK, 0, STACK
        ARGFRAME XSTACK, 14, STACK
        ARGFRAME IOVERLAY, 0, STATIC
        ARGFRAME DOVERLAY, 0, STATIC
        MOV     A,#-0xe
        LCALL   ?BANKED_ENTER_XDATA
        CFI DPH0 load(1, XDATA, add(CFA_XSP16, literal(-1)))
        CFI DPL0 load(1, XDATA, add(CFA_XSP16, literal(-2)))
        CFI ?BRET_EXT load(1, XDATA, add(CFA_XSP16, literal(-3)))
        CFI ?RET_HIGH load(1, XDATA, add(CFA_XSP16, literal(-4)))
        CFI ?RET_LOW load(1, XDATA, add(CFA_XSP16, literal(-5)))
        CFI R7 load(1, XDATA, add(CFA_XSP16, literal(-6)))
        CFI V5 load(1, XDATA, add(CFA_XSP16, literal(-7)))
        CFI V4 load(1, XDATA, add(CFA_XSP16, literal(-8)))
        CFI V3 load(1, XDATA, add(CFA_XSP16, literal(-9)))
        CFI V2 load(1, XDATA, add(CFA_XSP16, literal(-10)))
        CFI V1 load(1, XDATA, add(CFA_XSP16, literal(-11)))
        CFI V0 load(1, XDATA, add(CFA_XSP16, literal(-12)))
        CFI VB load(1, XDATA, add(CFA_XSP16, literal(-13)))
        CFI R6 load(1, XDATA, add(CFA_XSP16, literal(-14)))
        CFI CFA_SP SP+0
        CFI CFA_XSP16 add(XSP16, 14)
        ; Saved register size: 14
        ; Auto size: 0
        MOV     A,#0xe
        LCALL   ?XSTACK_DISP0_8
        LCALL   ?Subroutine21 & 0xFFFF
??CrossCallReturnLabel_39:
        LCALL   ?XSTACK_DISP0_8
        LCALL   ?Subroutine20 & 0xFFFF
//  511   register int  index = 0;
//  512   register char ch,cl;
//  513   
//  514   ch = (unsigned char)(Color>>8);
//  515   cl = (unsigned char)(Color);
//  516   LCD_set_window(x,y,Length,1);
??CrossCallReturnLabel_37:
        ; Setup parameters for call to function LCD_set_window
        MOV     ?V0 + 4,#0x1
        MOV     ?V0 + 5,#0x0
        MOV     R0,#?V0 + 4
        LCALL   ?PUSH_XSTACK_I_TWO
        CFI CFA_XSP16 add(XSP16, 16)
        MOV     R0,#?V0 + 0
        LCALL   ?PUSH_XSTACK_I_TWO
        CFI CFA_XSP16 add(XSP16, 18)
        LCALL   ?Subroutine15 & 0xFFFF
??CrossCallReturnLabel_23:
        LCALL   ?DEALLOC_XSTACK8
        CFI CFA_XSP16 add(XSP16, 14)
//  517   for(index=0;index<Length;index++)
        MOV     R6,#0x0
        MOV     R7,#0x0
        SJMP    ??CrossCallReturnLabel_12
//  518   {
//  519     LCD_write_byte(ch,LCD_DATA);
??DrawHorizonLine_0:
        ; Setup parameters for call to function LCD_write_byte
        LCALL   ?Subroutine9 & 0xFFFF
//  520     LCD_write_byte(cl,LCD_DATA);
//  521   }
??CrossCallReturnLabel_12:
        CLR     C
        MOV     A,R6
        SUBB    A,?V0 + 0
        MOV     A,R7
        SUBB    A,?V0 + 1
        JC      ??DrawHorizonLine_0
//  522 }
        LJMP    ?Subroutine2 & 0xFFFF
        CFI EndBlock cfiBlock392

        RSEG BANKED_CODE:CODE:NOROOT(0)
?Subroutine21:
        CFI Block cfiCond393 Using cfiCommon0
        CFI NoFunction
        CFI Conditional ??CrossCallReturnLabel_38
        CFI R6 load(1, XDATA, add(CFA_XSP16, literal(-14)))
        CFI VB load(1, XDATA, add(CFA_XSP16, literal(-13)))
        CFI V0 load(1, XDATA, add(CFA_XSP16, literal(-12)))
        CFI V1 load(1, XDATA, add(CFA_XSP16, literal(-11)))
        CFI V2 load(1, XDATA, add(CFA_XSP16, literal(-10)))
        CFI V3 load(1, XDATA, add(CFA_XSP16, literal(-9)))
        CFI V4 load(1, XDATA, add(CFA_XSP16, literal(-8)))
        CFI V5 load(1, XDATA, add(CFA_XSP16, literal(-7)))
        CFI R7 load(1, XDATA, add(CFA_XSP16, literal(-6)))
        CFI ?RET_LOW load(1, XDATA, add(CFA_XSP16, literal(-5)))
        CFI ?RET_HIGH load(1, XDATA, add(CFA_XSP16, literal(-4)))
        CFI ?BRET_EXT load(1, XDATA, add(CFA_XSP16, literal(-3)))
        CFI DPL0 load(1, XDATA, add(CFA_XSP16, literal(-2)))
        CFI DPH0 load(1, XDATA, add(CFA_XSP16, literal(-1)))
        CFI CFA_SP SP+0
        CFI CFA_XSP16 add(XSP16, 14)
        CFI Block cfiCond394 Using cfiCommon0
        CFI (cfiCond394) NoFunction
        CFI (cfiCond394) Conditional ??CrossCallReturnLabel_39
        CFI (cfiCond394) R6 load(1, XDATA, add(CFA_XSP16, literal(-14)))
        CFI (cfiCond394) VB load(1, XDATA, add(CFA_XSP16, literal(-13)))
        CFI (cfiCond394) V0 load(1, XDATA, add(CFA_XSP16, literal(-12)))
        CFI (cfiCond394) V1 load(1, XDATA, add(CFA_XSP16, literal(-11)))
        CFI (cfiCond394) V2 load(1, XDATA, add(CFA_XSP16, literal(-10)))
        CFI (cfiCond394) V3 load(1, XDATA, add(CFA_XSP16, literal(-9)))
        CFI (cfiCond394) V4 load(1, XDATA, add(CFA_XSP16, literal(-8)))
        CFI (cfiCond394) V5 load(1, XDATA, add(CFA_XSP16, literal(-7)))
        CFI (cfiCond394) R7 load(1, XDATA, add(CFA_XSP16, literal(-6)))
        CFI (cfiCond394) ?RET_LOW load(1, XDATA, add(CFA_XSP16, literal(-5)))
        CFI (cfiCond394) ?RET_HIGH load(1, XDATA, add(CFA_XSP16, literal(-4)))
        CFI (cfiCond394) ?BRET_EXT load(1, XDATA, add(CFA_XSP16, literal(-3)))
        CFI (cfiCond394) DPL0 load(1, XDATA, add(CFA_XSP16, literal(-2)))
        CFI (cfiCond394) DPH0 load(1, XDATA, add(CFA_XSP16, literal(-1)))
        CFI (cfiCond394) CFA_SP SP+0
        CFI (cfiCond394) CFA_XSP16 add(XSP16, 14)
        CFI Block cfiPicker395 Using cfiCommon1
        CFI (cfiPicker395) NoFunction
        CFI (cfiPicker395) Picker
        MOVX    A,@DPTR
        MOV     ?V0 + 0,A
        INC     DPTR
        MOVX    A,@DPTR
        MOV     ?V0 + 1,A
        MOV     A,#0x10
        RET
        CFI EndBlock cfiCond393
        CFI EndBlock cfiCond394
        CFI EndBlock cfiPicker395

        RSEG BANKED_CODE:CODE:NOROOT(0)
?Subroutine20:
        CFI Block cfiCond396 Using cfiCommon0
        CFI NoFunction
        CFI Conditional ??CrossCallReturnLabel_36
        CFI R6 load(1, XDATA, add(CFA_XSP16, literal(-14)))
        CFI VB load(1, XDATA, add(CFA_XSP16, literal(-13)))
        CFI V0 load(1, XDATA, add(CFA_XSP16, literal(-12)))
        CFI V1 load(1, XDATA, add(CFA_XSP16, literal(-11)))
        CFI V2 load(1, XDATA, add(CFA_XSP16, literal(-10)))
        CFI V3 load(1, XDATA, add(CFA_XSP16, literal(-9)))
        CFI V4 load(1, XDATA, add(CFA_XSP16, literal(-8)))
        CFI V5 load(1, XDATA, add(CFA_XSP16, literal(-7)))
        CFI R7 load(1, XDATA, add(CFA_XSP16, literal(-6)))
        CFI ?RET_LOW load(1, XDATA, add(CFA_XSP16, literal(-5)))
        CFI ?RET_HIGH load(1, XDATA, add(CFA_XSP16, literal(-4)))
        CFI ?BRET_EXT load(1, XDATA, add(CFA_XSP16, literal(-3)))
        CFI DPL0 load(1, XDATA, add(CFA_XSP16, literal(-2)))
        CFI DPH0 load(1, XDATA, add(CFA_XSP16, literal(-1)))
        CFI CFA_SP SP+0
        CFI CFA_XSP16 add(XSP16, 14)
        CFI Block cfiCond397 Using cfiCommon0
        CFI (cfiCond397) NoFunction
        CFI (cfiCond397) Conditional ??CrossCallReturnLabel_37
        CFI (cfiCond397) R6 load(1, XDATA, add(CFA_XSP16, literal(-14)))
        CFI (cfiCond397) VB load(1, XDATA, add(CFA_XSP16, literal(-13)))
        CFI (cfiCond397) V0 load(1, XDATA, add(CFA_XSP16, literal(-12)))
        CFI (cfiCond397) V1 load(1, XDATA, add(CFA_XSP16, literal(-11)))
        CFI (cfiCond397) V2 load(1, XDATA, add(CFA_XSP16, literal(-10)))
        CFI (cfiCond397) V3 load(1, XDATA, add(CFA_XSP16, literal(-9)))
        CFI (cfiCond397) V4 load(1, XDATA, add(CFA_XSP16, literal(-8)))
        CFI (cfiCond397) V5 load(1, XDATA, add(CFA_XSP16, literal(-7)))
        CFI (cfiCond397) R7 load(1, XDATA, add(CFA_XSP16, literal(-6)))
        CFI (cfiCond397) ?RET_LOW load(1, XDATA, add(CFA_XSP16, literal(-5)))
        CFI (cfiCond397) ?RET_HIGH load(1, XDATA, add(CFA_XSP16, literal(-4)))
        CFI (cfiCond397) ?BRET_EXT load(1, XDATA, add(CFA_XSP16, literal(-3)))
        CFI (cfiCond397) DPL0 load(1, XDATA, add(CFA_XSP16, literal(-2)))
        CFI (cfiCond397) DPH0 load(1, XDATA, add(CFA_XSP16, literal(-1)))
        CFI (cfiCond397) CFA_SP SP+0
        CFI (cfiCond397) CFA_XSP16 add(XSP16, 14)
        CFI Block cfiPicker398 Using cfiCommon1
        CFI (cfiPicker398) NoFunction
        CFI (cfiPicker398) Picker
        MOVX    A,@DPTR
        MOV     R6,A
        INC     DPTR
        MOVX    A,@DPTR
        MOV     ?V0 + 2,A
        MOV     A,R6
        MOV     ?V0 + 3,A
        RET
        CFI EndBlock cfiCond396
        CFI EndBlock cfiCond397
        CFI EndBlock cfiPicker398

        RSEG BANKED_CODE:CODE:NOROOT(0)
?Subroutine15:
        CFI Block cfiCond399 Using cfiCommon0
        CFI NoFunction
        CFI Conditional ??CrossCallReturnLabel_21
        CFI R6 load(1, XDATA, add(CFA_XSP16, literal(-12)))
        CFI VB load(1, XDATA, add(CFA_XSP16, literal(-11)))
        CFI V0 load(1, XDATA, add(CFA_XSP16, literal(-10)))
        CFI V1 load(1, XDATA, add(CFA_XSP16, literal(-9)))
        CFI V2 load(1, XDATA, add(CFA_XSP16, literal(-8)))
        CFI V3 load(1, XDATA, add(CFA_XSP16, literal(-7)))
        CFI R7 load(1, XDATA, add(CFA_XSP16, literal(-6)))
        CFI ?RET_LOW load(1, XDATA, add(CFA_XSP16, literal(-5)))
        CFI ?RET_HIGH load(1, XDATA, add(CFA_XSP16, literal(-4)))
        CFI ?BRET_EXT load(1, XDATA, add(CFA_XSP16, literal(-3)))
        CFI DPL0 load(1, XDATA, add(CFA_XSP16, literal(-2)))
        CFI DPH0 load(1, XDATA, add(CFA_XSP16, literal(-1)))
        CFI CFA_SP SP+0
        CFI CFA_XSP16 add(XSP16, 16)
        CFI Block cfiCond400 Using cfiCommon0
        CFI (cfiCond400) NoFunction
        CFI (cfiCond400) Conditional ??CrossCallReturnLabel_22
        CFI (cfiCond400) R6 load(1, XDATA, add(CFA_XSP16, literal(-14)))
        CFI (cfiCond400) VB load(1, XDATA, add(CFA_XSP16, literal(-13)))
        CFI (cfiCond400) V0 load(1, XDATA, add(CFA_XSP16, literal(-12)))
        CFI (cfiCond400) V1 load(1, XDATA, add(CFA_XSP16, literal(-11)))
        CFI (cfiCond400) V2 load(1, XDATA, add(CFA_XSP16, literal(-10)))
        CFI (cfiCond400) V3 load(1, XDATA, add(CFA_XSP16, literal(-9)))
        CFI (cfiCond400) V4 load(1, XDATA, add(CFA_XSP16, literal(-8)))
        CFI (cfiCond400) V5 load(1, XDATA, add(CFA_XSP16, literal(-7)))
        CFI (cfiCond400) R7 load(1, XDATA, add(CFA_XSP16, literal(-6)))
        CFI (cfiCond400) ?RET_LOW load(1, XDATA, add(CFA_XSP16, literal(-5)))
        CFI (cfiCond400) ?RET_HIGH load(1, XDATA, add(CFA_XSP16, literal(-4)))
        CFI (cfiCond400) ?BRET_EXT load(1, XDATA, add(CFA_XSP16, literal(-3)))
        CFI (cfiCond400) DPL0 load(1, XDATA, add(CFA_XSP16, literal(-2)))
        CFI (cfiCond400) DPH0 load(1, XDATA, add(CFA_XSP16, literal(-1)))
        CFI (cfiCond400) CFA_SP SP+0
        CFI (cfiCond400) CFA_XSP16 add(XSP16, 18)
        CFI Block cfiCond401 Using cfiCommon0
        CFI (cfiCond401) NoFunction
        CFI (cfiCond401) Conditional ??CrossCallReturnLabel_23
        CFI (cfiCond401) R6 load(1, XDATA, add(CFA_XSP16, literal(-14)))
        CFI (cfiCond401) VB load(1, XDATA, add(CFA_XSP16, literal(-13)))
        CFI (cfiCond401) V0 load(1, XDATA, add(CFA_XSP16, literal(-12)))
        CFI (cfiCond401) V1 load(1, XDATA, add(CFA_XSP16, literal(-11)))
        CFI (cfiCond401) V2 load(1, XDATA, add(CFA_XSP16, literal(-10)))
        CFI (cfiCond401) V3 load(1, XDATA, add(CFA_XSP16, literal(-9)))
        CFI (cfiCond401) V4 load(1, XDATA, add(CFA_XSP16, literal(-8)))
        CFI (cfiCond401) V5 load(1, XDATA, add(CFA_XSP16, literal(-7)))
        CFI (cfiCond401) R7 load(1, XDATA, add(CFA_XSP16, literal(-6)))
        CFI (cfiCond401) ?RET_LOW load(1, XDATA, add(CFA_XSP16, literal(-5)))
        CFI (cfiCond401) ?RET_HIGH load(1, XDATA, add(CFA_XSP16, literal(-4)))
        CFI (cfiCond401) ?BRET_EXT load(1, XDATA, add(CFA_XSP16, literal(-3)))
        CFI (cfiCond401) DPL0 load(1, XDATA, add(CFA_XSP16, literal(-2)))
        CFI (cfiCond401) DPH0 load(1, XDATA, add(CFA_XSP16, literal(-1)))
        CFI (cfiCond401) CFA_SP SP+0
        CFI (cfiCond401) CFA_XSP16 add(XSP16, 18)
        CFI Block cfiCond402 Using cfiCommon0
        CFI (cfiCond402) NoFunction
        CFI (cfiCond402) Conditional ??CrossCallReturnLabel_24
        CFI (cfiCond402) R6 load(1, XDATA, add(CFA_XSP16, literal(-16)))
        CFI (cfiCond402) VB load(1, XDATA, add(CFA_XSP16, literal(-15)))
        CFI (cfiCond402) V0 load(1, XDATA, add(CFA_XSP16, literal(-14)))
        CFI (cfiCond402) V1 load(1, XDATA, add(CFA_XSP16, literal(-13)))
        CFI (cfiCond402) V2 load(1, XDATA, add(CFA_XSP16, literal(-12)))
        CFI (cfiCond402) V3 load(1, XDATA, add(CFA_XSP16, literal(-11)))
        CFI (cfiCond402) V4 load(1, XDATA, add(CFA_XSP16, literal(-10)))
        CFI (cfiCond402) V5 load(1, XDATA, add(CFA_XSP16, literal(-9)))
        CFI (cfiCond402) V6 load(1, XDATA, add(CFA_XSP16, literal(-8)))
        CFI (cfiCond402) V7 load(1, XDATA, add(CFA_XSP16, literal(-7)))
        CFI (cfiCond402) R7 load(1, XDATA, add(CFA_XSP16, literal(-6)))
        CFI (cfiCond402) ?RET_LOW load(1, XDATA, add(CFA_XSP16, literal(-5)))
        CFI (cfiCond402) ?RET_HIGH load(1, XDATA, add(CFA_XSP16, literal(-4)))
        CFI (cfiCond402) ?BRET_EXT load(1, XDATA, add(CFA_XSP16, literal(-3)))
        CFI (cfiCond402) DPL0 load(1, XDATA, add(CFA_XSP16, literal(-2)))
        CFI (cfiCond402) DPH0 load(1, XDATA, add(CFA_XSP16, literal(-1)))
        CFI (cfiCond402) CFA_SP SP+0
        CFI (cfiCond402) CFA_XSP16 add(XSP16, 20)
        CFI Block cfiCond403 Using cfiCommon0
        CFI (cfiCond403) NoFunction
        CFI (cfiCond403) Conditional ??CrossCallReturnLabel_25
        CFI (cfiCond403) R6 load(1, XDATA, add(CFA_XSP16, literal(-10)))
        CFI (cfiCond403) VB load(1, XDATA, add(CFA_XSP16, literal(-9)))
        CFI (cfiCond403) V0 load(1, XDATA, add(CFA_XSP16, literal(-8)))
        CFI (cfiCond403) V1 load(1, XDATA, add(CFA_XSP16, literal(-7)))
        CFI (cfiCond403) R7 load(1, XDATA, add(CFA_XSP16, literal(-6)))
        CFI (cfiCond403) ?RET_LOW load(1, XDATA, add(CFA_XSP16, literal(-5)))
        CFI (cfiCond403) ?RET_HIGH load(1, XDATA, add(CFA_XSP16, literal(-4)))
        CFI (cfiCond403) ?BRET_EXT load(1, XDATA, add(CFA_XSP16, literal(-3)))
        CFI (cfiCond403) DPL0 load(1, XDATA, add(CFA_XSP16, literal(-2)))
        CFI (cfiCond403) DPH0 load(1, XDATA, add(CFA_XSP16, literal(-1)))
        CFI (cfiCond403) CFA_SP SP+0
        CFI (cfiCond403) CFA_XSP16 add(XSP16, 14)
        CFI Block cfiPicker404 Using cfiCommon1
        CFI (cfiPicker404) NoFunction
        CFI (cfiPicker404) Picker
        LCALL   ??LCD_set_window?relay
        MOV     A,#0x4
        RET
        CFI EndBlock cfiCond399
        CFI EndBlock cfiCond400
        CFI EndBlock cfiCond401
        CFI EndBlock cfiCond402
        CFI EndBlock cfiCond403
        CFI EndBlock cfiPicker404

        RSEG BANKED_CODE:CODE:NOROOT(0)
?Subroutine9:
        CFI Block cfiCond405 Using cfiCommon0
        CFI NoFunction
        CFI Conditional ??CrossCallReturnLabel_11
        CFI R6 load(1, XDATA, add(CFA_XSP16, literal(-14)))
        CFI VB load(1, XDATA, add(CFA_XSP16, literal(-13)))
        CFI V0 load(1, XDATA, add(CFA_XSP16, literal(-12)))
        CFI V1 load(1, XDATA, add(CFA_XSP16, literal(-11)))
        CFI V2 load(1, XDATA, add(CFA_XSP16, literal(-10)))
        CFI V3 load(1, XDATA, add(CFA_XSP16, literal(-9)))
        CFI V4 load(1, XDATA, add(CFA_XSP16, literal(-8)))
        CFI V5 load(1, XDATA, add(CFA_XSP16, literal(-7)))
        CFI R7 load(1, XDATA, add(CFA_XSP16, literal(-6)))
        CFI ?RET_LOW load(1, XDATA, add(CFA_XSP16, literal(-5)))
        CFI ?RET_HIGH load(1, XDATA, add(CFA_XSP16, literal(-4)))
        CFI ?BRET_EXT load(1, XDATA, add(CFA_XSP16, literal(-3)))
        CFI DPL0 load(1, XDATA, add(CFA_XSP16, literal(-2)))
        CFI DPH0 load(1, XDATA, add(CFA_XSP16, literal(-1)))
        CFI CFA_SP SP+0
        CFI CFA_XSP16 add(XSP16, 14)
        CFI Block cfiCond406 Using cfiCommon0
        CFI (cfiCond406) NoFunction
        CFI (cfiCond406) Conditional ??CrossCallReturnLabel_12
        CFI (cfiCond406) R6 load(1, XDATA, add(CFA_XSP16, literal(-14)))
        CFI (cfiCond406) VB load(1, XDATA, add(CFA_XSP16, literal(-13)))
        CFI (cfiCond406) V0 load(1, XDATA, add(CFA_XSP16, literal(-12)))
        CFI (cfiCond406) V1 load(1, XDATA, add(CFA_XSP16, literal(-11)))
        CFI (cfiCond406) V2 load(1, XDATA, add(CFA_XSP16, literal(-10)))
        CFI (cfiCond406) V3 load(1, XDATA, add(CFA_XSP16, literal(-9)))
        CFI (cfiCond406) V4 load(1, XDATA, add(CFA_XSP16, literal(-8)))
        CFI (cfiCond406) V5 load(1, XDATA, add(CFA_XSP16, literal(-7)))
        CFI (cfiCond406) R7 load(1, XDATA, add(CFA_XSP16, literal(-6)))
        CFI (cfiCond406) ?RET_LOW load(1, XDATA, add(CFA_XSP16, literal(-5)))
        CFI (cfiCond406) ?RET_HIGH load(1, XDATA, add(CFA_XSP16, literal(-4)))
        CFI (cfiCond406) ?BRET_EXT load(1, XDATA, add(CFA_XSP16, literal(-3)))
        CFI (cfiCond406) DPL0 load(1, XDATA, add(CFA_XSP16, literal(-2)))
        CFI (cfiCond406) DPH0 load(1, XDATA, add(CFA_XSP16, literal(-1)))
        CFI (cfiCond406) CFA_SP SP+0
        CFI (cfiCond406) CFA_XSP16 add(XSP16, 14)
        CFI Block cfiPicker407 Using cfiCommon1
        CFI (cfiPicker407) NoFunction
        CFI (cfiPicker407) Picker
        MOV     R2,#0x1
        MOV     R1,?V0 + 2
        LCALL   ??Subroutine37_0 & 0xFFFF
??CrossCallReturnLabel_107:
        MOV     R1,?V0 + 3
        LCALL   ??LCD_write_byte?relay
        MOV     A,R6
        ADD     A,#0x1
        INC     R6
        MOV     A,R7
        ADDC    A,#0x0
        MOV     R7,A
        RET
        CFI EndBlock cfiCond405
        CFI EndBlock cfiCond406
        CFI EndBlock cfiPicker407
//  523 
//  524 /****************************************************************************
//  525 * 名    称: DrawRect()
//  526 * 功    能: 在指定位置以指定颜色画矩形
//  527 * 入口参数: X - 矩形起始位置横坐标      Y ―矩形起始位置纵坐标
//  528 *           Width  ―矩形宽度           Height ―矩形高度                   
//  529 *           Color  ―矩形颜色             
//  530 * 出口参数: 无
//  531 ****************************************************************************/

        RSEG BANKED_CODE:CODE:NOROOT(0)
//  532 void DrawRect(unsigned int Xpos, unsigned int Ypos, unsigned int Width, 
DrawRect:
        CFI Block cfiBlock408 Using cfiCommon0
        CFI Function DrawRect
        CODE
//  533               unsigned int Height,unsigned Color)
//  534 {
        FUNCALL DrawRect, DrawHorizonLine
        LOCFRAME ISTACK, 0, STACK
        LOCFRAME PSTACK, 0, STACK
        LOCFRAME XSTACK, 20, STACK
        LOCFRAME IOVERLAY, 0, STATIC
        LOCFRAME DOVERLAY, 0, STATIC
        ARGFRAME ISTACK, 0, STACK
        ARGFRAME PSTACK, 0, STACK
        ARGFRAME XSTACK, 20, STACK
        ARGFRAME IOVERLAY, 0, STATIC
        ARGFRAME DOVERLAY, 0, STATIC
        FUNCALL DrawRect, DrawHorizonLine
        LOCFRAME ISTACK, 0, STACK
        LOCFRAME PSTACK, 0, STACK
        LOCFRAME XSTACK, 20, STACK
        LOCFRAME IOVERLAY, 0, STATIC
        LOCFRAME DOVERLAY, 0, STATIC
        ARGFRAME ISTACK, 0, STACK
        ARGFRAME PSTACK, 0, STACK
        ARGFRAME XSTACK, 20, STACK
        ARGFRAME IOVERLAY, 0, STATIC
        ARGFRAME DOVERLAY, 0, STATIC
        FUNCALL DrawRect, DrawVerticalLine
        LOCFRAME ISTACK, 0, STACK
        LOCFRAME PSTACK, 0, STACK
        LOCFRAME XSTACK, 20, STACK
        LOCFRAME IOVERLAY, 0, STATIC
        LOCFRAME DOVERLAY, 0, STATIC
        ARGFRAME ISTACK, 0, STACK
        ARGFRAME PSTACK, 0, STACK
        ARGFRAME XSTACK, 20, STACK
        ARGFRAME IOVERLAY, 0, STATIC
        ARGFRAME DOVERLAY, 0, STATIC
        FUNCALL DrawRect, DrawVerticalLine
        LOCFRAME ISTACK, 0, STACK
        LOCFRAME PSTACK, 0, STACK
        LOCFRAME XSTACK, 20, STACK
        LOCFRAME IOVERLAY, 0, STATIC
        LOCFRAME DOVERLAY, 0, STATIC
        ARGFRAME ISTACK, 0, STACK
        ARGFRAME PSTACK, 0, STACK
        ARGFRAME XSTACK, 20, STACK
        ARGFRAME IOVERLAY, 0, STATIC
        ARGFRAME DOVERLAY, 0, STATIC
        MOV     A,#-0x10
        LCALL   ?BANKED_ENTER_XDATA
        CFI DPH0 load(1, XDATA, add(CFA_XSP16, literal(-1)))
        CFI DPL0 load(1, XDATA, add(CFA_XSP16, literal(-2)))
        CFI ?BRET_EXT load(1, XDATA, add(CFA_XSP16, literal(-3)))
        CFI ?RET_HIGH load(1, XDATA, add(CFA_XSP16, literal(-4)))
        CFI ?RET_LOW load(1, XDATA, add(CFA_XSP16, literal(-5)))
        CFI R7 load(1, XDATA, add(CFA_XSP16, literal(-6)))
        CFI V7 load(1, XDATA, add(CFA_XSP16, literal(-7)))
        CFI V6 load(1, XDATA, add(CFA_XSP16, literal(-8)))
        CFI V5 load(1, XDATA, add(CFA_XSP16, literal(-9)))
        CFI V4 load(1, XDATA, add(CFA_XSP16, literal(-10)))
        CFI V3 load(1, XDATA, add(CFA_XSP16, literal(-11)))
        CFI V2 load(1, XDATA, add(CFA_XSP16, literal(-12)))
        CFI V1 load(1, XDATA, add(CFA_XSP16, literal(-13)))
        CFI V0 load(1, XDATA, add(CFA_XSP16, literal(-14)))
        CFI VB load(1, XDATA, add(CFA_XSP16, literal(-15)))
        CFI R6 load(1, XDATA, add(CFA_XSP16, literal(-16)))
        CFI CFA_SP SP+0
        CFI CFA_XSP16 add(XSP16, 16)
        ; Saved register size: 16
        ; Auto size: 0
        MOV     A,R2
        MOV     R6,A
        MOV     A,R3
        MOV     R7,A
        MOV     ?V0 + 0,R4
        MOV     ?V0 + 1,R5
        MOV     A,#0x10
        LCALL   ?XSTACK_DISP0_8
        MOVX    A,@DPTR
        MOV     ?V0 + 6,A
        INC     DPTR
        MOVX    A,@DPTR
        MOV     ?V0 + 7,A
        MOV     A,#0x12
        LCALL   ?XSTACK_DISP0_8
        LCALL   ?Subroutine18 & 0xFFFF
??CrossCallReturnLabel_31:
        MOV     A,#0x14
        LCALL   ?XSTACK_DISP0_8
        LCALL   ?Subroutine19 & 0xFFFF
//  535   DrawHorizonLine(Xpos, Ypos, Width, Color) ;
??CrossCallReturnLabel_34:
        ; Setup parameters for call to function DrawHorizonLine
        MOV     R0,#?V0 + 2
        LCALL   ?PUSH_XSTACK_I_TWO
        CFI CFA_XSP16 add(XSP16, 18)
        MOV     R0,#?V0 + 6
        LCALL   ?PUSH_XSTACK_I_TWO
        CFI CFA_XSP16 add(XSP16, 20)
        LCALL   ??DrawHorizonLine?relay
        MOV     A,#0x4
        LCALL   ?DEALLOC_XSTACK8
        CFI CFA_XSP16 add(XSP16, 16)
//  536   DrawHorizonLine(Xpos, (Ypos + Height), Width, Color) ;
        ; Setup parameters for call to function DrawHorizonLine
        MOV     R0,#?V0 + 2
        LCALL   ?PUSH_XSTACK_I_TWO
        CFI CFA_XSP16 add(XSP16, 18)
        MOV     R0,#?V0 + 6
        LCALL   ?PUSH_XSTACK_I_TWO
        CFI CFA_XSP16 add(XSP16, 20)
        MOV     A,?V0 + 0
        ADD     A,?V0 + 4
        MOV     R4,A
        MOV     A,?V0 + 1
        ADDC    A,?V0 + 5
        MOV     R5,A
        MOV     A,R6
        MOV     R2,A
        MOV     A,R7
        MOV     R3,A
        LCALL   ??DrawHorizonLine?relay
        MOV     A,#0x4
        LCALL   ?DEALLOC_XSTACK8
        CFI CFA_XSP16 add(XSP16, 16)
//  537   DrawVerticalLine(Xpos, Ypos, Height, Color) ;
        ; Setup parameters for call to function DrawVerticalLine
        MOV     R0,#?V0 + 2
        LCALL   ?PUSH_XSTACK_I_TWO
        CFI CFA_XSP16 add(XSP16, 18)
        MOV     R0,#?V0 + 4
        LCALL   ?PUSH_XSTACK_I_TWO
        CFI CFA_XSP16 add(XSP16, 20)
        MOV     R4,?V0 + 0
        MOV     R5,?V0 + 1
        MOV     A,R6
        MOV     R2,A
        MOV     A,R7
        MOV     R3,A
        LCALL   ??DrawVerticalLine?relay
        MOV     A,#0x4
        LCALL   ?DEALLOC_XSTACK8
        CFI CFA_XSP16 add(XSP16, 16)
//  538   DrawVerticalLine((Xpos+Width-1) ,Ypos, Height, Color);
        ; Setup parameters for call to function DrawVerticalLine
        MOV     R0,#?V0 + 2
        LCALL   ?PUSH_XSTACK_I_TWO
        CFI CFA_XSP16 add(XSP16, 18)
        MOV     R0,#?V0 + 4
        LCALL   ?PUSH_XSTACK_I_TWO
        CFI CFA_XSP16 add(XSP16, 20)
        MOV     R4,?V0 + 0
        MOV     R5,?V0 + 1
        MOV     A,R6
        ADD     A,?V0 + 6
        MOV     R0,A
        MOV     A,R7
        ADDC    A,?V0 + 7
        MOV     R1,A
        MOV     A,R0
        ADD     A,#-0x1
        MOV     R2,A
        MOV     A,R1
        ADDC    A,#-0x1
        MOV     R3,A
        LCALL   ??DrawVerticalLine?relay
        MOV     A,#0x4
        LCALL   ?DEALLOC_XSTACK8
        CFI EndBlock cfiBlock408
//  539 }
        REQUIRE ?Subroutine3
        ; // Fall through to label ?Subroutine3

        RSEG BANKED_CODE:CODE:NOROOT(0)
?Subroutine3:
        CFI Block cfiBlock409 Using cfiCommon0
        CFI NoFunction
        CFI CFA_SP SP+0
        CFI CFA_XSP16 add(XSP16, 16)
        CFI VB load(1, XDATA, add(CFA_XSP16, literal(-15)))
        CFI DPL0 load(1, XDATA, add(CFA_XSP16, literal(-2)))
        CFI DPH0 load(1, XDATA, add(CFA_XSP16, literal(-1)))
        CFI R6 load(1, XDATA, add(CFA_XSP16, literal(-16)))
        CFI R7 load(1, XDATA, add(CFA_XSP16, literal(-6)))
        CFI V0 load(1, XDATA, add(CFA_XSP16, literal(-14)))
        CFI V1 load(1, XDATA, add(CFA_XSP16, literal(-13)))
        CFI V2 load(1, XDATA, add(CFA_XSP16, literal(-12)))
        CFI V3 load(1, XDATA, add(CFA_XSP16, literal(-11)))
        CFI V4 load(1, XDATA, add(CFA_XSP16, literal(-10)))
        CFI V5 load(1, XDATA, add(CFA_XSP16, literal(-9)))
        CFI V6 load(1, XDATA, add(CFA_XSP16, literal(-8)))
        CFI V7 load(1, XDATA, add(CFA_XSP16, literal(-7)))
        CFI ?BRET_EXT load(1, XDATA, add(CFA_XSP16, literal(-3)))
        CFI ?RET_HIGH load(1, XDATA, add(CFA_XSP16, literal(-4)))
        CFI ?RET_LOW load(1, XDATA, add(CFA_XSP16, literal(-5)))
        MOV     R7,#0x8
        LJMP    ?BANKED_LEAVE_XDATA
        CFI EndBlock cfiBlock409

        RSEG BANKED_CODE:CODE:NOROOT(0)
?Subroutine19:
        CFI Block cfiCond410 Using cfiCommon0
        CFI NoFunction
        CFI Conditional ??CrossCallReturnLabel_33
        CFI R6 load(1, XDATA, add(CFA_XSP16, literal(-14)))
        CFI VB load(1, XDATA, add(CFA_XSP16, literal(-13)))
        CFI V0 load(1, XDATA, add(CFA_XSP16, literal(-12)))
        CFI V1 load(1, XDATA, add(CFA_XSP16, literal(-11)))
        CFI V2 load(1, XDATA, add(CFA_XSP16, literal(-10)))
        CFI V3 load(1, XDATA, add(CFA_XSP16, literal(-9)))
        CFI V4 load(1, XDATA, add(CFA_XSP16, literal(-8)))
        CFI V5 load(1, XDATA, add(CFA_XSP16, literal(-7)))
        CFI R7 load(1, XDATA, add(CFA_XSP16, literal(-6)))
        CFI ?RET_LOW load(1, XDATA, add(CFA_XSP16, literal(-5)))
        CFI ?RET_HIGH load(1, XDATA, add(CFA_XSP16, literal(-4)))
        CFI ?BRET_EXT load(1, XDATA, add(CFA_XSP16, literal(-3)))
        CFI DPL0 load(1, XDATA, add(CFA_XSP16, literal(-2)))
        CFI DPH0 load(1, XDATA, add(CFA_XSP16, literal(-1)))
        CFI CFA_SP SP+0
        CFI CFA_XSP16 add(XSP16, 14)
        CFI Block cfiCond411 Using cfiCommon0
        CFI (cfiCond411) NoFunction
        CFI (cfiCond411) Conditional ??CrossCallReturnLabel_34
        CFI (cfiCond411) R6 load(1, XDATA, add(CFA_XSP16, literal(-16)))
        CFI (cfiCond411) VB load(1, XDATA, add(CFA_XSP16, literal(-15)))
        CFI (cfiCond411) V0 load(1, XDATA, add(CFA_XSP16, literal(-14)))
        CFI (cfiCond411) V1 load(1, XDATA, add(CFA_XSP16, literal(-13)))
        CFI (cfiCond411) V2 load(1, XDATA, add(CFA_XSP16, literal(-12)))
        CFI (cfiCond411) V3 load(1, XDATA, add(CFA_XSP16, literal(-11)))
        CFI (cfiCond411) V4 load(1, XDATA, add(CFA_XSP16, literal(-10)))
        CFI (cfiCond411) V5 load(1, XDATA, add(CFA_XSP16, literal(-9)))
        CFI (cfiCond411) V6 load(1, XDATA, add(CFA_XSP16, literal(-8)))
        CFI (cfiCond411) V7 load(1, XDATA, add(CFA_XSP16, literal(-7)))
        CFI (cfiCond411) R7 load(1, XDATA, add(CFA_XSP16, literal(-6)))
        CFI (cfiCond411) ?RET_LOW load(1, XDATA, add(CFA_XSP16, literal(-5)))
        CFI (cfiCond411) ?RET_HIGH load(1, XDATA, add(CFA_XSP16, literal(-4)))
        CFI (cfiCond411) ?BRET_EXT load(1, XDATA, add(CFA_XSP16, literal(-3)))
        CFI (cfiCond411) DPL0 load(1, XDATA, add(CFA_XSP16, literal(-2)))
        CFI (cfiCond411) DPH0 load(1, XDATA, add(CFA_XSP16, literal(-1)))
        CFI (cfiCond411) CFA_SP SP+0
        CFI (cfiCond411) CFA_XSP16 add(XSP16, 16)
        CFI Block cfiCond412 Using cfiCommon0
        CFI (cfiCond412) NoFunction
        CFI (cfiCond412) Conditional ??CrossCallReturnLabel_35
        CFI (cfiCond412) R6 load(1, XDATA, add(CFA_XSP16, literal(-16)))
        CFI (cfiCond412) VB load(1, XDATA, add(CFA_XSP16, literal(-15)))
        CFI (cfiCond412) V0 load(1, XDATA, add(CFA_XSP16, literal(-14)))
        CFI (cfiCond412) V1 load(1, XDATA, add(CFA_XSP16, literal(-13)))
        CFI (cfiCond412) V2 load(1, XDATA, add(CFA_XSP16, literal(-12)))
        CFI (cfiCond412) V3 load(1, XDATA, add(CFA_XSP16, literal(-11)))
        CFI (cfiCond412) V4 load(1, XDATA, add(CFA_XSP16, literal(-10)))
        CFI (cfiCond412) V5 load(1, XDATA, add(CFA_XSP16, literal(-9)))
        CFI (cfiCond412) V6 load(1, XDATA, add(CFA_XSP16, literal(-8)))
        CFI (cfiCond412) V7 load(1, XDATA, add(CFA_XSP16, literal(-7)))
        CFI (cfiCond412) R7 load(1, XDATA, add(CFA_XSP16, literal(-6)))
        CFI (cfiCond412) ?RET_LOW load(1, XDATA, add(CFA_XSP16, literal(-5)))
        CFI (cfiCond412) ?RET_HIGH load(1, XDATA, add(CFA_XSP16, literal(-4)))
        CFI (cfiCond412) ?BRET_EXT load(1, XDATA, add(CFA_XSP16, literal(-3)))
        CFI (cfiCond412) DPL0 load(1, XDATA, add(CFA_XSP16, literal(-2)))
        CFI (cfiCond412) DPH0 load(1, XDATA, add(CFA_XSP16, literal(-1)))
        CFI (cfiCond412) CFA_SP SP+0
        CFI (cfiCond412) CFA_XSP16 add(XSP16, 16)
        CFI Block cfiPicker413 Using cfiCommon1
        CFI (cfiPicker413) NoFunction
        CFI (cfiPicker413) Picker
        MOVX    A,@DPTR
        MOV     ?V0 + 2,A
        INC     DPTR
        MOVX    A,@DPTR
        MOV     ?V0 + 3,A
        RET
        CFI EndBlock cfiCond410
        CFI EndBlock cfiCond411
        CFI EndBlock cfiCond412
        CFI EndBlock cfiPicker413

        RSEG BANKED_CODE:CODE:NOROOT(0)
?Subroutine18:
        CFI Block cfiCond414 Using cfiCommon0
        CFI NoFunction
        CFI Conditional ??CrossCallReturnLabel_30
        CFI R6 load(1, XDATA, add(CFA_XSP16, literal(-14)))
        CFI VB load(1, XDATA, add(CFA_XSP16, literal(-13)))
        CFI V0 load(1, XDATA, add(CFA_XSP16, literal(-12)))
        CFI V1 load(1, XDATA, add(CFA_XSP16, literal(-11)))
        CFI V2 load(1, XDATA, add(CFA_XSP16, literal(-10)))
        CFI V3 load(1, XDATA, add(CFA_XSP16, literal(-9)))
        CFI V4 load(1, XDATA, add(CFA_XSP16, literal(-8)))
        CFI V5 load(1, XDATA, add(CFA_XSP16, literal(-7)))
        CFI R7 load(1, XDATA, add(CFA_XSP16, literal(-6)))
        CFI ?RET_LOW load(1, XDATA, add(CFA_XSP16, literal(-5)))
        CFI ?RET_HIGH load(1, XDATA, add(CFA_XSP16, literal(-4)))
        CFI ?BRET_EXT load(1, XDATA, add(CFA_XSP16, literal(-3)))
        CFI DPL0 load(1, XDATA, add(CFA_XSP16, literal(-2)))
        CFI DPH0 load(1, XDATA, add(CFA_XSP16, literal(-1)))
        CFI CFA_SP SP+0
        CFI CFA_XSP16 add(XSP16, 14)
        CFI Block cfiCond415 Using cfiCommon0
        CFI (cfiCond415) NoFunction
        CFI (cfiCond415) Conditional ??CrossCallReturnLabel_31
        CFI (cfiCond415) R6 load(1, XDATA, add(CFA_XSP16, literal(-16)))
        CFI (cfiCond415) VB load(1, XDATA, add(CFA_XSP16, literal(-15)))
        CFI (cfiCond415) V0 load(1, XDATA, add(CFA_XSP16, literal(-14)))
        CFI (cfiCond415) V1 load(1, XDATA, add(CFA_XSP16, literal(-13)))
        CFI (cfiCond415) V2 load(1, XDATA, add(CFA_XSP16, literal(-12)))
        CFI (cfiCond415) V3 load(1, XDATA, add(CFA_XSP16, literal(-11)))
        CFI (cfiCond415) V4 load(1, XDATA, add(CFA_XSP16, literal(-10)))
        CFI (cfiCond415) V5 load(1, XDATA, add(CFA_XSP16, literal(-9)))
        CFI (cfiCond415) V6 load(1, XDATA, add(CFA_XSP16, literal(-8)))
        CFI (cfiCond415) V7 load(1, XDATA, add(CFA_XSP16, literal(-7)))
        CFI (cfiCond415) R7 load(1, XDATA, add(CFA_XSP16, literal(-6)))
        CFI (cfiCond415) ?RET_LOW load(1, XDATA, add(CFA_XSP16, literal(-5)))
        CFI (cfiCond415) ?RET_HIGH load(1, XDATA, add(CFA_XSP16, literal(-4)))
        CFI (cfiCond415) ?BRET_EXT load(1, XDATA, add(CFA_XSP16, literal(-3)))
        CFI (cfiCond415) DPL0 load(1, XDATA, add(CFA_XSP16, literal(-2)))
        CFI (cfiCond415) DPH0 load(1, XDATA, add(CFA_XSP16, literal(-1)))
        CFI (cfiCond415) CFA_SP SP+0
        CFI (cfiCond415) CFA_XSP16 add(XSP16, 16)
        CFI Block cfiCond416 Using cfiCommon0
        CFI (cfiCond416) NoFunction
        CFI (cfiCond416) Conditional ??CrossCallReturnLabel_32
        CFI (cfiCond416) R6 load(1, XDATA, add(CFA_XSP16, literal(-16)))
        CFI (cfiCond416) VB load(1, XDATA, add(CFA_XSP16, literal(-15)))
        CFI (cfiCond416) V0 load(1, XDATA, add(CFA_XSP16, literal(-14)))
        CFI (cfiCond416) V1 load(1, XDATA, add(CFA_XSP16, literal(-13)))
        CFI (cfiCond416) V2 load(1, XDATA, add(CFA_XSP16, literal(-12)))
        CFI (cfiCond416) V3 load(1, XDATA, add(CFA_XSP16, literal(-11)))
        CFI (cfiCond416) V4 load(1, XDATA, add(CFA_XSP16, literal(-10)))
        CFI (cfiCond416) V5 load(1, XDATA, add(CFA_XSP16, literal(-9)))
        CFI (cfiCond416) V6 load(1, XDATA, add(CFA_XSP16, literal(-8)))
        CFI (cfiCond416) V7 load(1, XDATA, add(CFA_XSP16, literal(-7)))
        CFI (cfiCond416) R7 load(1, XDATA, add(CFA_XSP16, literal(-6)))
        CFI (cfiCond416) ?RET_LOW load(1, XDATA, add(CFA_XSP16, literal(-5)))
        CFI (cfiCond416) ?RET_HIGH load(1, XDATA, add(CFA_XSP16, literal(-4)))
        CFI (cfiCond416) ?BRET_EXT load(1, XDATA, add(CFA_XSP16, literal(-3)))
        CFI (cfiCond416) DPL0 load(1, XDATA, add(CFA_XSP16, literal(-2)))
        CFI (cfiCond416) DPH0 load(1, XDATA, add(CFA_XSP16, literal(-1)))
        CFI (cfiCond416) CFA_SP SP+0
        CFI (cfiCond416) CFA_XSP16 add(XSP16, 16)
        CFI Block cfiPicker417 Using cfiCommon1
        CFI (cfiPicker417) NoFunction
        CFI (cfiPicker417) Picker
        MOVX    A,@DPTR
        MOV     ?V0 + 4,A
        INC     DPTR
        MOVX    A,@DPTR
        MOV     ?V0 + 5,A
        RET
        CFI EndBlock cfiCond414
        CFI EndBlock cfiCond415
        CFI EndBlock cfiCond416
        CFI EndBlock cfiPicker417
//  540 
//  541 /****************************************************************************
//  542 * 名    称: DrawRectFill()
//  543 * 功    能: 在指定位置以指定颜色画矩形
//  544 * 入口参数: X - 矩形起始位置横坐标      Y ―矩形起始位置纵坐标
//  545 *           Width  ―矩形宽度           Height ―矩形高度                   
//  546 *           Color  ―矩形填充颜色             
//  547 * 出口参数: 无
//  548 ****************************************************************************/

        RSEG BANKED_CODE:CODE:NOROOT(0)
//  549 void DrawRectFill(unsigned int Xpos  , unsigned int Ypos, unsigned int Width, 
DrawRectFill:
        CFI Block cfiBlock418 Using cfiCommon0
        CFI Function DrawRectFill
        CODE
//  550                   unsigned int Height, unsigned Color                        )
//  551 {
        FUNCALL DrawRectFill, LCD_set_window
        LOCFRAME ISTACK, 0, STACK
        LOCFRAME PSTACK, 0, STACK
        LOCFRAME XSTACK, 20, STACK
        LOCFRAME IOVERLAY, 0, STATIC
        LOCFRAME DOVERLAY, 0, STATIC
        ARGFRAME ISTACK, 0, STACK
        ARGFRAME PSTACK, 0, STACK
        ARGFRAME XSTACK, 20, STACK
        ARGFRAME IOVERLAY, 0, STATIC
        ARGFRAME DOVERLAY, 0, STATIC
        FUNCALL DrawRectFill, LCD_write_byte
        LOCFRAME ISTACK, 0, STACK
        LOCFRAME PSTACK, 0, STACK
        LOCFRAME XSTACK, 16, STACK
        LOCFRAME IOVERLAY, 0, STATIC
        LOCFRAME DOVERLAY, 0, STATIC
        ARGFRAME ISTACK, 0, STACK
        ARGFRAME PSTACK, 0, STACK
        ARGFRAME XSTACK, 16, STACK
        ARGFRAME IOVERLAY, 0, STATIC
        ARGFRAME DOVERLAY, 0, STATIC
        FUNCALL DrawRectFill, SendByte
        LOCFRAME ISTACK, 0, STACK
        LOCFRAME PSTACK, 0, STACK
        LOCFRAME XSTACK, 16, STACK
        LOCFRAME IOVERLAY, 0, STATIC
        LOCFRAME DOVERLAY, 0, STATIC
        ARGFRAME ISTACK, 0, STACK
        ARGFRAME PSTACK, 0, STACK
        ARGFRAME XSTACK, 16, STACK
        ARGFRAME IOVERLAY, 0, STATIC
        ARGFRAME DOVERLAY, 0, STATIC
        FUNCALL DrawRectFill, SendByte
        LOCFRAME ISTACK, 0, STACK
        LOCFRAME PSTACK, 0, STACK
        LOCFRAME XSTACK, 16, STACK
        LOCFRAME IOVERLAY, 0, STATIC
        LOCFRAME DOVERLAY, 0, STATIC
        ARGFRAME ISTACK, 0, STACK
        ARGFRAME PSTACK, 0, STACK
        ARGFRAME XSTACK, 16, STACK
        ARGFRAME IOVERLAY, 0, STATIC
        ARGFRAME DOVERLAY, 0, STATIC
        FUNCALL DrawRectFill, SendByte
        LOCFRAME ISTACK, 0, STACK
        LOCFRAME PSTACK, 0, STACK
        LOCFRAME XSTACK, 16, STACK
        LOCFRAME IOVERLAY, 0, STATIC
        LOCFRAME DOVERLAY, 0, STATIC
        ARGFRAME ISTACK, 0, STACK
        ARGFRAME PSTACK, 0, STACK
        ARGFRAME XSTACK, 16, STACK
        ARGFRAME IOVERLAY, 0, STATIC
        ARGFRAME DOVERLAY, 0, STATIC
        FUNCALL DrawRectFill, SendByte
        LOCFRAME ISTACK, 0, STACK
        LOCFRAME PSTACK, 0, STACK
        LOCFRAME XSTACK, 16, STACK
        LOCFRAME IOVERLAY, 0, STATIC
        LOCFRAME DOVERLAY, 0, STATIC
        ARGFRAME ISTACK, 0, STACK
        ARGFRAME PSTACK, 0, STACK
        ARGFRAME XSTACK, 16, STACK
        ARGFRAME IOVERLAY, 0, STATIC
        ARGFRAME DOVERLAY, 0, STATIC
        FUNCALL DrawRectFill, SendByte
        LOCFRAME ISTACK, 0, STACK
        LOCFRAME PSTACK, 0, STACK
        LOCFRAME XSTACK, 16, STACK
        LOCFRAME IOVERLAY, 0, STATIC
        LOCFRAME DOVERLAY, 0, STATIC
        ARGFRAME ISTACK, 0, STACK
        ARGFRAME PSTACK, 0, STACK
        ARGFRAME XSTACK, 16, STACK
        ARGFRAME IOVERLAY, 0, STATIC
        ARGFRAME DOVERLAY, 0, STATIC
        FUNCALL DrawRectFill, SendByte
        LOCFRAME ISTACK, 0, STACK
        LOCFRAME PSTACK, 0, STACK
        LOCFRAME XSTACK, 16, STACK
        LOCFRAME IOVERLAY, 0, STATIC
        LOCFRAME DOVERLAY, 0, STATIC
        ARGFRAME ISTACK, 0, STACK
        ARGFRAME PSTACK, 0, STACK
        ARGFRAME XSTACK, 16, STACK
        ARGFRAME IOVERLAY, 0, STATIC
        ARGFRAME DOVERLAY, 0, STATIC
        FUNCALL DrawRectFill, SendByte
        LOCFRAME ISTACK, 0, STACK
        LOCFRAME PSTACK, 0, STACK
        LOCFRAME XSTACK, 16, STACK
        LOCFRAME IOVERLAY, 0, STATIC
        LOCFRAME DOVERLAY, 0, STATIC
        ARGFRAME ISTACK, 0, STACK
        ARGFRAME PSTACK, 0, STACK
        ARGFRAME XSTACK, 16, STACK
        ARGFRAME IOVERLAY, 0, STATIC
        ARGFRAME DOVERLAY, 0, STATIC
        FUNCALL DrawRectFill, SendByte
        LOCFRAME ISTACK, 0, STACK
        LOCFRAME PSTACK, 0, STACK
        LOCFRAME XSTACK, 16, STACK
        LOCFRAME IOVERLAY, 0, STATIC
        LOCFRAME DOVERLAY, 0, STATIC
        ARGFRAME ISTACK, 0, STACK
        ARGFRAME PSTACK, 0, STACK
        ARGFRAME XSTACK, 16, STACK
        ARGFRAME IOVERLAY, 0, STATIC
        ARGFRAME DOVERLAY, 0, STATIC
        FUNCALL DrawRectFill, SendByte
        LOCFRAME ISTACK, 0, STACK
        LOCFRAME PSTACK, 0, STACK
        LOCFRAME XSTACK, 16, STACK
        LOCFRAME IOVERLAY, 0, STATIC
        LOCFRAME DOVERLAY, 0, STATIC
        ARGFRAME ISTACK, 0, STACK
        ARGFRAME PSTACK, 0, STACK
        ARGFRAME XSTACK, 16, STACK
        ARGFRAME IOVERLAY, 0, STATIC
        ARGFRAME DOVERLAY, 0, STATIC
        FUNCALL DrawRectFill, SendByte
        LOCFRAME ISTACK, 0, STACK
        LOCFRAME PSTACK, 0, STACK
        LOCFRAME XSTACK, 16, STACK
        LOCFRAME IOVERLAY, 0, STATIC
        LOCFRAME DOVERLAY, 0, STATIC
        ARGFRAME ISTACK, 0, STACK
        ARGFRAME PSTACK, 0, STACK
        ARGFRAME XSTACK, 16, STACK
        ARGFRAME IOVERLAY, 0, STATIC
        ARGFRAME DOVERLAY, 0, STATIC
        FUNCALL DrawRectFill, SendByte
        LOCFRAME ISTACK, 0, STACK
        LOCFRAME PSTACK, 0, STACK
        LOCFRAME XSTACK, 16, STACK
        LOCFRAME IOVERLAY, 0, STATIC
        LOCFRAME DOVERLAY, 0, STATIC
        ARGFRAME ISTACK, 0, STACK
        ARGFRAME PSTACK, 0, STACK
        ARGFRAME XSTACK, 16, STACK
        ARGFRAME IOVERLAY, 0, STATIC
        ARGFRAME DOVERLAY, 0, STATIC
        FUNCALL DrawRectFill, SendByte
        LOCFRAME ISTACK, 0, STACK
        LOCFRAME PSTACK, 0, STACK
        LOCFRAME XSTACK, 16, STACK
        LOCFRAME IOVERLAY, 0, STATIC
        LOCFRAME DOVERLAY, 0, STATIC
        ARGFRAME ISTACK, 0, STACK
        ARGFRAME PSTACK, 0, STACK
        ARGFRAME XSTACK, 16, STACK
        ARGFRAME IOVERLAY, 0, STATIC
        ARGFRAME DOVERLAY, 0, STATIC
        FUNCALL DrawRectFill, SendByte
        LOCFRAME ISTACK, 0, STACK
        LOCFRAME PSTACK, 0, STACK
        LOCFRAME XSTACK, 16, STACK
        LOCFRAME IOVERLAY, 0, STATIC
        LOCFRAME DOVERLAY, 0, STATIC
        ARGFRAME ISTACK, 0, STACK
        ARGFRAME PSTACK, 0, STACK
        ARGFRAME XSTACK, 16, STACK
        ARGFRAME IOVERLAY, 0, STATIC
        ARGFRAME DOVERLAY, 0, STATIC
        FUNCALL DrawRectFill, SendByte
        LOCFRAME ISTACK, 0, STACK
        LOCFRAME PSTACK, 0, STACK
        LOCFRAME XSTACK, 16, STACK
        LOCFRAME IOVERLAY, 0, STATIC
        LOCFRAME DOVERLAY, 0, STATIC
        ARGFRAME ISTACK, 0, STACK
        ARGFRAME PSTACK, 0, STACK
        ARGFRAME XSTACK, 16, STACK
        ARGFRAME IOVERLAY, 0, STATIC
        ARGFRAME DOVERLAY, 0, STATIC
        FUNCALL DrawRectFill, SendByte
        LOCFRAME ISTACK, 0, STACK
        LOCFRAME PSTACK, 0, STACK
        LOCFRAME XSTACK, 16, STACK
        LOCFRAME IOVERLAY, 0, STATIC
        LOCFRAME DOVERLAY, 0, STATIC
        ARGFRAME ISTACK, 0, STACK
        ARGFRAME PSTACK, 0, STACK
        ARGFRAME XSTACK, 16, STACK
        ARGFRAME IOVERLAY, 0, STATIC
        ARGFRAME DOVERLAY, 0, STATIC
        FUNCALL DrawRectFill, SendByte
        LOCFRAME ISTACK, 0, STACK
        LOCFRAME PSTACK, 0, STACK
        LOCFRAME XSTACK, 16, STACK
        LOCFRAME IOVERLAY, 0, STATIC
        LOCFRAME DOVERLAY, 0, STATIC
        ARGFRAME ISTACK, 0, STACK
        ARGFRAME PSTACK, 0, STACK
        ARGFRAME XSTACK, 16, STACK
        ARGFRAME IOVERLAY, 0, STATIC
        ARGFRAME DOVERLAY, 0, STATIC
        FUNCALL DrawRectFill, SendByte
        LOCFRAME ISTACK, 0, STACK
        LOCFRAME PSTACK, 0, STACK
        LOCFRAME XSTACK, 16, STACK
        LOCFRAME IOVERLAY, 0, STATIC
        LOCFRAME DOVERLAY, 0, STATIC
        ARGFRAME ISTACK, 0, STACK
        ARGFRAME PSTACK, 0, STACK
        ARGFRAME XSTACK, 16, STACK
        ARGFRAME IOVERLAY, 0, STATIC
        ARGFRAME DOVERLAY, 0, STATIC
        FUNCALL DrawRectFill, SendByte
        LOCFRAME ISTACK, 0, STACK
        LOCFRAME PSTACK, 0, STACK
        LOCFRAME XSTACK, 16, STACK
        LOCFRAME IOVERLAY, 0, STATIC
        LOCFRAME DOVERLAY, 0, STATIC
        ARGFRAME ISTACK, 0, STACK
        ARGFRAME PSTACK, 0, STACK
        ARGFRAME XSTACK, 16, STACK
        ARGFRAME IOVERLAY, 0, STATIC
        ARGFRAME DOVERLAY, 0, STATIC
        FUNCALL DrawRectFill, SendByte
        LOCFRAME ISTACK, 0, STACK
        LOCFRAME PSTACK, 0, STACK
        LOCFRAME XSTACK, 16, STACK
        LOCFRAME IOVERLAY, 0, STATIC
        LOCFRAME DOVERLAY, 0, STATIC
        ARGFRAME ISTACK, 0, STACK
        ARGFRAME PSTACK, 0, STACK
        ARGFRAME XSTACK, 16, STACK
        ARGFRAME IOVERLAY, 0, STATIC
        ARGFRAME DOVERLAY, 0, STATIC
        FUNCALL DrawRectFill, SendByte
        LOCFRAME ISTACK, 0, STACK
        LOCFRAME PSTACK, 0, STACK
        LOCFRAME XSTACK, 16, STACK
        LOCFRAME IOVERLAY, 0, STATIC
        LOCFRAME DOVERLAY, 0, STATIC
        ARGFRAME ISTACK, 0, STACK
        ARGFRAME PSTACK, 0, STACK
        ARGFRAME XSTACK, 16, STACK
        ARGFRAME IOVERLAY, 0, STATIC
        ARGFRAME DOVERLAY, 0, STATIC
        FUNCALL DrawRectFill, SendByte
        LOCFRAME ISTACK, 0, STACK
        LOCFRAME PSTACK, 0, STACK
        LOCFRAME XSTACK, 16, STACK
        LOCFRAME IOVERLAY, 0, STATIC
        LOCFRAME DOVERLAY, 0, STATIC
        ARGFRAME ISTACK, 0, STACK
        ARGFRAME PSTACK, 0, STACK
        ARGFRAME XSTACK, 16, STACK
        ARGFRAME IOVERLAY, 0, STATIC
        ARGFRAME DOVERLAY, 0, STATIC
        FUNCALL DrawRectFill, SendByte
        LOCFRAME ISTACK, 0, STACK
        LOCFRAME PSTACK, 0, STACK
        LOCFRAME XSTACK, 16, STACK
        LOCFRAME IOVERLAY, 0, STATIC
        LOCFRAME DOVERLAY, 0, STATIC
        ARGFRAME ISTACK, 0, STACK
        ARGFRAME PSTACK, 0, STACK
        ARGFRAME XSTACK, 16, STACK
        ARGFRAME IOVERLAY, 0, STATIC
        ARGFRAME DOVERLAY, 0, STATIC
        FUNCALL DrawRectFill, SendByte
        LOCFRAME ISTACK, 0, STACK
        LOCFRAME PSTACK, 0, STACK
        LOCFRAME XSTACK, 16, STACK
        LOCFRAME IOVERLAY, 0, STATIC
        LOCFRAME DOVERLAY, 0, STATIC
        ARGFRAME ISTACK, 0, STACK
        ARGFRAME PSTACK, 0, STACK
        ARGFRAME XSTACK, 16, STACK
        ARGFRAME IOVERLAY, 0, STATIC
        ARGFRAME DOVERLAY, 0, STATIC
        FUNCALL DrawRectFill, SendByte
        LOCFRAME ISTACK, 0, STACK
        LOCFRAME PSTACK, 0, STACK
        LOCFRAME XSTACK, 16, STACK
        LOCFRAME IOVERLAY, 0, STATIC
        LOCFRAME DOVERLAY, 0, STATIC
        ARGFRAME ISTACK, 0, STACK
        ARGFRAME PSTACK, 0, STACK
        ARGFRAME XSTACK, 16, STACK
        ARGFRAME IOVERLAY, 0, STATIC
        ARGFRAME DOVERLAY, 0, STATIC
        FUNCALL DrawRectFill, SendByte
        LOCFRAME ISTACK, 0, STACK
        LOCFRAME PSTACK, 0, STACK
        LOCFRAME XSTACK, 16, STACK
        LOCFRAME IOVERLAY, 0, STATIC
        LOCFRAME DOVERLAY, 0, STATIC
        ARGFRAME ISTACK, 0, STACK
        ARGFRAME PSTACK, 0, STACK
        ARGFRAME XSTACK, 16, STACK
        ARGFRAME IOVERLAY, 0, STATIC
        ARGFRAME DOVERLAY, 0, STATIC
        FUNCALL DrawRectFill, SendByte
        LOCFRAME ISTACK, 0, STACK
        LOCFRAME PSTACK, 0, STACK
        LOCFRAME XSTACK, 16, STACK
        LOCFRAME IOVERLAY, 0, STATIC
        LOCFRAME DOVERLAY, 0, STATIC
        ARGFRAME ISTACK, 0, STACK
        ARGFRAME PSTACK, 0, STACK
        ARGFRAME XSTACK, 16, STACK
        ARGFRAME IOVERLAY, 0, STATIC
        ARGFRAME DOVERLAY, 0, STATIC
        FUNCALL DrawRectFill, SendByte
        LOCFRAME ISTACK, 0, STACK
        LOCFRAME PSTACK, 0, STACK
        LOCFRAME XSTACK, 16, STACK
        LOCFRAME IOVERLAY, 0, STATIC
        LOCFRAME DOVERLAY, 0, STATIC
        ARGFRAME ISTACK, 0, STACK
        ARGFRAME PSTACK, 0, STACK
        ARGFRAME XSTACK, 16, STACK
        ARGFRAME IOVERLAY, 0, STATIC
        ARGFRAME DOVERLAY, 0, STATIC
        FUNCALL DrawRectFill, SendByte
        LOCFRAME ISTACK, 0, STACK
        LOCFRAME PSTACK, 0, STACK
        LOCFRAME XSTACK, 16, STACK
        LOCFRAME IOVERLAY, 0, STATIC
        LOCFRAME DOVERLAY, 0, STATIC
        ARGFRAME ISTACK, 0, STACK
        ARGFRAME PSTACK, 0, STACK
        ARGFRAME XSTACK, 16, STACK
        ARGFRAME IOVERLAY, 0, STATIC
        ARGFRAME DOVERLAY, 0, STATIC
        FUNCALL DrawRectFill, SendByte
        LOCFRAME ISTACK, 0, STACK
        LOCFRAME PSTACK, 0, STACK
        LOCFRAME XSTACK, 16, STACK
        LOCFRAME IOVERLAY, 0, STATIC
        LOCFRAME DOVERLAY, 0, STATIC
        ARGFRAME ISTACK, 0, STACK
        ARGFRAME PSTACK, 0, STACK
        ARGFRAME XSTACK, 16, STACK
        ARGFRAME IOVERLAY, 0, STATIC
        ARGFRAME DOVERLAY, 0, STATIC
        FUNCALL DrawRectFill, SendByte
        LOCFRAME ISTACK, 0, STACK
        LOCFRAME PSTACK, 0, STACK
        LOCFRAME XSTACK, 16, STACK
        LOCFRAME IOVERLAY, 0, STATIC
        LOCFRAME DOVERLAY, 0, STATIC
        ARGFRAME ISTACK, 0, STACK
        ARGFRAME PSTACK, 0, STACK
        ARGFRAME XSTACK, 16, STACK
        ARGFRAME IOVERLAY, 0, STATIC
        ARGFRAME DOVERLAY, 0, STATIC
        FUNCALL DrawRectFill, SendByte
        LOCFRAME ISTACK, 0, STACK
        LOCFRAME PSTACK, 0, STACK
        LOCFRAME XSTACK, 16, STACK
        LOCFRAME IOVERLAY, 0, STATIC
        LOCFRAME DOVERLAY, 0, STATIC
        ARGFRAME ISTACK, 0, STACK
        ARGFRAME PSTACK, 0, STACK
        ARGFRAME XSTACK, 16, STACK
        ARGFRAME IOVERLAY, 0, STATIC
        ARGFRAME DOVERLAY, 0, STATIC
        FUNCALL DrawRectFill, SendByte
        LOCFRAME ISTACK, 0, STACK
        LOCFRAME PSTACK, 0, STACK
        LOCFRAME XSTACK, 16, STACK
        LOCFRAME IOVERLAY, 0, STATIC
        LOCFRAME DOVERLAY, 0, STATIC
        ARGFRAME ISTACK, 0, STACK
        ARGFRAME PSTACK, 0, STACK
        ARGFRAME XSTACK, 16, STACK
        ARGFRAME IOVERLAY, 0, STATIC
        ARGFRAME DOVERLAY, 0, STATIC
        MOV     A,#-0x10
        LCALL   ?BANKED_ENTER_XDATA
        CFI DPH0 load(1, XDATA, add(CFA_XSP16, literal(-1)))
        CFI DPL0 load(1, XDATA, add(CFA_XSP16, literal(-2)))
        CFI ?BRET_EXT load(1, XDATA, add(CFA_XSP16, literal(-3)))
        CFI ?RET_HIGH load(1, XDATA, add(CFA_XSP16, literal(-4)))
        CFI ?RET_LOW load(1, XDATA, add(CFA_XSP16, literal(-5)))
        CFI R7 load(1, XDATA, add(CFA_XSP16, literal(-6)))
        CFI V7 load(1, XDATA, add(CFA_XSP16, literal(-7)))
        CFI V6 load(1, XDATA, add(CFA_XSP16, literal(-8)))
        CFI V5 load(1, XDATA, add(CFA_XSP16, literal(-9)))
        CFI V4 load(1, XDATA, add(CFA_XSP16, literal(-10)))
        CFI V3 load(1, XDATA, add(CFA_XSP16, literal(-11)))
        CFI V2 load(1, XDATA, add(CFA_XSP16, literal(-12)))
        CFI V1 load(1, XDATA, add(CFA_XSP16, literal(-13)))
        CFI V0 load(1, XDATA, add(CFA_XSP16, literal(-14)))
        CFI VB load(1, XDATA, add(CFA_XSP16, literal(-15)))
        CFI R6 load(1, XDATA, add(CFA_XSP16, literal(-16)))
        CFI CFA_SP SP+0
        CFI CFA_XSP16 add(XSP16, 16)
        ; Saved register size: 16
        ; Auto size: 0
        MOV     A,#0x10
        LCALL   ?XSTACK_DISP0_8
        LCALL   ?Subroutine18 & 0xFFFF
??CrossCallReturnLabel_32:
        MOV     A,#0x12
        LCALL   ?XSTACK_DISP0_8
        LCALL   ?Subroutine19 & 0xFFFF
??CrossCallReturnLabel_35:
        MOV     A,#0x14
        LCALL   ?XSTACK_DISP0_8
        MOVX    A,@DPTR
        MOV     ?V0 + 6,A
        INC     DPTR
        MOVX    A,@DPTR
        MOV     ?V0 + 7,A
//  552   register unsigned int i;
//  553   register unsigned int index = Width*Height/16+1;
        MOV     ?V0 + 0,?V0 + 4
        MOV     ?V0 + 1,?V0 + 5
        MOV     A,?V0 + 0
        MOV     B,?V0 + 2
        MUL     AB
        XCH     A,?V0 + 0
        MOV     R0,B
        MOV     B,?V0 + 3
        MUL     AB
        ADD     A,R0
        MOV     R0,A
        MOV     B,?V0 + 2
        MOV     A,?V0 + 1
        MUL     AB
        ADD     A,R0
        MOV     ?V0 + 1,A
        MOV     A,#0x4
        MOV     R0,#?V0 + 0
        LCALL   ?US_SHR
        MOV     A,?V0 + 0
        ADD     A,#0x1
        MOV     ?V0 + 0,A
        MOV     A,?V0 + 1
        ADDC    A,#0x0
        MOV     ?V0 + 1,A
//  554   register char ch,cl;
//  555   
//  556   ch = (unsigned char)(Color>>8);
        MOV     R6,?V0 + 7
//  557   cl = (unsigned char)(Color);
        MOV     R7,?V0 + 6
//  558   LCD_set_window(Xpos,Ypos,Width,Height);
        ; Setup parameters for call to function LCD_set_window
        MOV     R0,#?V0 + 2
        LCALL   ?PUSH_XSTACK_I_TWO
        CFI CFA_XSP16 add(XSP16, 18)
        MOV     R0,#?V0 + 4
        LCALL   ?PUSH_XSTACK_I_TWO
        CFI CFA_XSP16 add(XSP16, 20)
        LCALL   ?Subroutine15 & 0xFFFF
??CrossCallReturnLabel_24:
        LCALL   ?DEALLOC_XSTACK8
        CFI CFA_XSP16 add(XSP16, 16)
//  559   LCD_write_byte(0x2C,LCD_COMMAND);
        ; Setup parameters for call to function LCD_write_byte
        MOV     R2,#0x0
        MOV     R1,#0x2c
        LCALL   ??LCD_write_byte?relay
//  560   //LCD_CS_CLR ; andy
//  561   LCD_DC_SET ;
        SETB    0x80.0
//  562   for(i=0;i<index;i++)
        MOV     ?V0 + 2,#0x0
        MOV     ?V0 + 3,#0x0
        SJMP    ??DrawRectFill_0
//  563   {
//  564       SendByte(ch);
??DrawRectFill_1:
        ; Setup parameters for call to function SendByte
        LCALL   ?Subroutine17 & 0xFFFF
//  565       SendByte(cl);
//  566       SendByte(ch);
//  567       SendByte(cl); 
//  568       SendByte(ch);
//  569       SendByte(cl);      
//  570       SendByte(ch);
//  571       SendByte(cl);
//  572       SendByte(ch);
//  573       SendByte(cl);
//  574       SendByte(ch);
//  575       SendByte(cl);
//  576       SendByte(ch);
//  577       SendByte(cl);
//  578       SendByte(ch);
//  579       SendByte(cl);
//  580       SendByte(ch);
??CrossCallReturnLabel_28:
        ; Setup parameters for call to function SendByte
        LCALL   ?Subroutine17 & 0xFFFF
//  581       SendByte(cl);
//  582       SendByte(ch);
//  583       SendByte(cl);
//  584       SendByte(ch);
//  585       SendByte(cl);
//  586       SendByte(ch);
//  587       SendByte(cl);
//  588       SendByte(ch);
//  589       SendByte(cl);
//  590       SendByte(ch);
//  591       SendByte(cl);
//  592       SendByte(ch);
//  593       SendByte(cl);
//  594       SendByte(ch);
//  595       SendByte(cl);
//  596   }    
??CrossCallReturnLabel_29:
        MOV     A,?V0 + 2
        ADD     A,#0x1
        MOV     ?V0 + 2,A
        MOV     A,?V0 + 3
        ADDC    A,#0x0
        MOV     ?V0 + 3,A
??DrawRectFill_0:
        CLR     C
        MOV     A,?V0 + 2
        SUBB    A,?V0 + 0
        MOV     A,?V0 + 3
        SUBB    A,?V0 + 1
        JC      ??DrawRectFill_1
//  597 }
        LJMP    ?Subroutine3 & 0xFFFF
        CFI EndBlock cfiBlock418
        REQUIRE _A_P0

        RSEG BANKED_CODE:CODE:NOROOT(0)
?Subroutine17:
        CFI Block cfiCond419 Using cfiCommon0
        CFI NoFunction
        CFI Conditional ??CrossCallReturnLabel_28
        CFI R6 load(1, XDATA, add(CFA_XSP16, literal(-16)))
        CFI VB load(1, XDATA, add(CFA_XSP16, literal(-15)))
        CFI V0 load(1, XDATA, add(CFA_XSP16, literal(-14)))
        CFI V1 load(1, XDATA, add(CFA_XSP16, literal(-13)))
        CFI V2 load(1, XDATA, add(CFA_XSP16, literal(-12)))
        CFI V3 load(1, XDATA, add(CFA_XSP16, literal(-11)))
        CFI V4 load(1, XDATA, add(CFA_XSP16, literal(-10)))
        CFI V5 load(1, XDATA, add(CFA_XSP16, literal(-9)))
        CFI V6 load(1, XDATA, add(CFA_XSP16, literal(-8)))
        CFI V7 load(1, XDATA, add(CFA_XSP16, literal(-7)))
        CFI R7 load(1, XDATA, add(CFA_XSP16, literal(-6)))
        CFI ?RET_LOW load(1, XDATA, add(CFA_XSP16, literal(-5)))
        CFI ?RET_HIGH load(1, XDATA, add(CFA_XSP16, literal(-4)))
        CFI ?BRET_EXT load(1, XDATA, add(CFA_XSP16, literal(-3)))
        CFI DPL0 load(1, XDATA, add(CFA_XSP16, literal(-2)))
        CFI DPH0 load(1, XDATA, add(CFA_XSP16, literal(-1)))
        CFI CFA_SP SP+0
        CFI CFA_XSP16 add(XSP16, 16)
        CFI Block cfiCond420 Using cfiCommon0
        CFI (cfiCond420) NoFunction
        CFI (cfiCond420) Conditional ??CrossCallReturnLabel_29
        CFI (cfiCond420) R6 load(1, XDATA, add(CFA_XSP16, literal(-16)))
        CFI (cfiCond420) VB load(1, XDATA, add(CFA_XSP16, literal(-15)))
        CFI (cfiCond420) V0 load(1, XDATA, add(CFA_XSP16, literal(-14)))
        CFI (cfiCond420) V1 load(1, XDATA, add(CFA_XSP16, literal(-13)))
        CFI (cfiCond420) V2 load(1, XDATA, add(CFA_XSP16, literal(-12)))
        CFI (cfiCond420) V3 load(1, XDATA, add(CFA_XSP16, literal(-11)))
        CFI (cfiCond420) V4 load(1, XDATA, add(CFA_XSP16, literal(-10)))
        CFI (cfiCond420) V5 load(1, XDATA, add(CFA_XSP16, literal(-9)))
        CFI (cfiCond420) V6 load(1, XDATA, add(CFA_XSP16, literal(-8)))
        CFI (cfiCond420) V7 load(1, XDATA, add(CFA_XSP16, literal(-7)))
        CFI (cfiCond420) R7 load(1, XDATA, add(CFA_XSP16, literal(-6)))
        CFI (cfiCond420) ?RET_LOW load(1, XDATA, add(CFA_XSP16, literal(-5)))
        CFI (cfiCond420) ?RET_HIGH load(1, XDATA, add(CFA_XSP16, literal(-4)))
        CFI (cfiCond420) ?BRET_EXT load(1, XDATA, add(CFA_XSP16, literal(-3)))
        CFI (cfiCond420) DPL0 load(1, XDATA, add(CFA_XSP16, literal(-2)))
        CFI (cfiCond420) DPH0 load(1, XDATA, add(CFA_XSP16, literal(-1)))
        CFI (cfiCond420) CFA_SP SP+0
        CFI (cfiCond420) CFA_XSP16 add(XSP16, 16)
        CFI Block cfiPicker421 Using cfiCommon1
        CFI (cfiPicker421) NoFunction
        CFI (cfiPicker421) Picker
        LCALL   ?Subroutine27 & 0xFFFF
??CrossCallReturnLabel_50:
        ; Setup parameters for call to function SendByte
        ; Setup parameters for call to function SendByte
        LCALL   ?Subroutine27 & 0xFFFF
??CrossCallReturnLabel_51:
        RET
        CFI EndBlock cfiCond419
        CFI EndBlock cfiCond420
        CFI EndBlock cfiPicker421

        RSEG BANKED_CODE:CODE:NOROOT(0)
?Subroutine27:
        CFI Block cfiCond422 Using cfiCommon0
        CFI NoFunction
        CFI Conditional ??CrossCallReturnLabel_50, ??CrossCallReturnLabel_28
        CFI R6 load(1, XDATA, add(CFA_XSP16, literal(-16)))
        CFI VB load(1, XDATA, add(CFA_XSP16, literal(-15)))
        CFI V0 load(1, XDATA, add(CFA_XSP16, literal(-14)))
        CFI V1 load(1, XDATA, add(CFA_XSP16, literal(-13)))
        CFI V2 load(1, XDATA, add(CFA_XSP16, literal(-12)))
        CFI V3 load(1, XDATA, add(CFA_XSP16, literal(-11)))
        CFI V4 load(1, XDATA, add(CFA_XSP16, literal(-10)))
        CFI V5 load(1, XDATA, add(CFA_XSP16, literal(-9)))
        CFI V6 load(1, XDATA, add(CFA_XSP16, literal(-8)))
        CFI V7 load(1, XDATA, add(CFA_XSP16, literal(-7)))
        CFI R7 load(1, XDATA, add(CFA_XSP16, literal(-6)))
        CFI ?RET_LOW load(1, XDATA, add(CFA_XSP16, literal(-5)))
        CFI ?RET_HIGH load(1, XDATA, add(CFA_XSP16, literal(-4)))
        CFI ?BRET_EXT load(1, XDATA, add(CFA_XSP16, literal(-3)))
        CFI DPL0 load(1, XDATA, add(CFA_XSP16, literal(-2)))
        CFI DPH0 load(1, XDATA, add(CFA_XSP16, literal(-1)))
        CFI CFA_SP SP+0
        CFI CFA_XSP16 add(XSP16, 16)
        CFI Block cfiCond423 Using cfiCommon0
        CFI (cfiCond423) NoFunction
        CFI (cfiCond423) Conditional ??CrossCallReturnLabel_50, ??CrossCallReturnLabel_29
        CFI (cfiCond423) R6 load(1, XDATA, add(CFA_XSP16, literal(-16)))
        CFI (cfiCond423) VB load(1, XDATA, add(CFA_XSP16, literal(-15)))
        CFI (cfiCond423) V0 load(1, XDATA, add(CFA_XSP16, literal(-14)))
        CFI (cfiCond423) V1 load(1, XDATA, add(CFA_XSP16, literal(-13)))
        CFI (cfiCond423) V2 load(1, XDATA, add(CFA_XSP16, literal(-12)))
        CFI (cfiCond423) V3 load(1, XDATA, add(CFA_XSP16, literal(-11)))
        CFI (cfiCond423) V4 load(1, XDATA, add(CFA_XSP16, literal(-10)))
        CFI (cfiCond423) V5 load(1, XDATA, add(CFA_XSP16, literal(-9)))
        CFI (cfiCond423) V6 load(1, XDATA, add(CFA_XSP16, literal(-8)))
        CFI (cfiCond423) V7 load(1, XDATA, add(CFA_XSP16, literal(-7)))
        CFI (cfiCond423) R7 load(1, XDATA, add(CFA_XSP16, literal(-6)))
        CFI (cfiCond423) ?RET_LOW load(1, XDATA, add(CFA_XSP16, literal(-5)))
        CFI (cfiCond423) ?RET_HIGH load(1, XDATA, add(CFA_XSP16, literal(-4)))
        CFI (cfiCond423) ?BRET_EXT load(1, XDATA, add(CFA_XSP16, literal(-3)))
        CFI (cfiCond423) DPL0 load(1, XDATA, add(CFA_XSP16, literal(-2)))
        CFI (cfiCond423) DPH0 load(1, XDATA, add(CFA_XSP16, literal(-1)))
        CFI (cfiCond423) CFA_SP SP+0
        CFI (cfiCond423) CFA_XSP16 add(XSP16, 16)
        CFI Block cfiCond424 Using cfiCommon0
        CFI (cfiCond424) NoFunction
        CFI (cfiCond424) Conditional ??CrossCallReturnLabel_51, ??CrossCallReturnLabel_28
        CFI (cfiCond424) R6 load(1, XDATA, add(CFA_XSP16, literal(-16)))
        CFI (cfiCond424) VB load(1, XDATA, add(CFA_XSP16, literal(-15)))
        CFI (cfiCond424) V0 load(1, XDATA, add(CFA_XSP16, literal(-14)))
        CFI (cfiCond424) V1 load(1, XDATA, add(CFA_XSP16, literal(-13)))
        CFI (cfiCond424) V2 load(1, XDATA, add(CFA_XSP16, literal(-12)))
        CFI (cfiCond424) V3 load(1, XDATA, add(CFA_XSP16, literal(-11)))
        CFI (cfiCond424) V4 load(1, XDATA, add(CFA_XSP16, literal(-10)))
        CFI (cfiCond424) V5 load(1, XDATA, add(CFA_XSP16, literal(-9)))
        CFI (cfiCond424) V6 load(1, XDATA, add(CFA_XSP16, literal(-8)))
        CFI (cfiCond424) V7 load(1, XDATA, add(CFA_XSP16, literal(-7)))
        CFI (cfiCond424) R7 load(1, XDATA, add(CFA_XSP16, literal(-6)))
        CFI (cfiCond424) ?RET_LOW load(1, XDATA, add(CFA_XSP16, literal(-5)))
        CFI (cfiCond424) ?RET_HIGH load(1, XDATA, add(CFA_XSP16, literal(-4)))
        CFI (cfiCond424) ?BRET_EXT load(1, XDATA, add(CFA_XSP16, literal(-3)))
        CFI (cfiCond424) DPL0 load(1, XDATA, add(CFA_XSP16, literal(-2)))
        CFI (cfiCond424) DPH0 load(1, XDATA, add(CFA_XSP16, literal(-1)))
        CFI (cfiCond424) CFA_SP SP+0
        CFI (cfiCond424) CFA_XSP16 add(XSP16, 16)
        CFI Block cfiCond425 Using cfiCommon0
        CFI (cfiCond425) NoFunction
        CFI (cfiCond425) Conditional ??CrossCallReturnLabel_51, ??CrossCallReturnLabel_29
        CFI (cfiCond425) R6 load(1, XDATA, add(CFA_XSP16, literal(-16)))
        CFI (cfiCond425) VB load(1, XDATA, add(CFA_XSP16, literal(-15)))
        CFI (cfiCond425) V0 load(1, XDATA, add(CFA_XSP16, literal(-14)))
        CFI (cfiCond425) V1 load(1, XDATA, add(CFA_XSP16, literal(-13)))
        CFI (cfiCond425) V2 load(1, XDATA, add(CFA_XSP16, literal(-12)))
        CFI (cfiCond425) V3 load(1, XDATA, add(CFA_XSP16, literal(-11)))
        CFI (cfiCond425) V4 load(1, XDATA, add(CFA_XSP16, literal(-10)))
        CFI (cfiCond425) V5 load(1, XDATA, add(CFA_XSP16, literal(-9)))
        CFI (cfiCond425) V6 load(1, XDATA, add(CFA_XSP16, literal(-8)))
        CFI (cfiCond425) V7 load(1, XDATA, add(CFA_XSP16, literal(-7)))
        CFI (cfiCond425) R7 load(1, XDATA, add(CFA_XSP16, literal(-6)))
        CFI (cfiCond425) ?RET_LOW load(1, XDATA, add(CFA_XSP16, literal(-5)))
        CFI (cfiCond425) ?RET_HIGH load(1, XDATA, add(CFA_XSP16, literal(-4)))
        CFI (cfiCond425) ?BRET_EXT load(1, XDATA, add(CFA_XSP16, literal(-3)))
        CFI (cfiCond425) DPL0 load(1, XDATA, add(CFA_XSP16, literal(-2)))
        CFI (cfiCond425) DPH0 load(1, XDATA, add(CFA_XSP16, literal(-1)))
        CFI (cfiCond425) CFA_SP SP+0
        CFI (cfiCond425) CFA_XSP16 add(XSP16, 16)
        CFI Block cfiPicker426 Using cfiCommon1
        CFI (cfiPicker426) NoFunction
        CFI (cfiPicker426) Picker
        LCALL   ?Subroutine29 & 0xFFFF
??CrossCallReturnLabel_54:
        ; Setup parameters for call to function SendByte
        ; Setup parameters for call to function SendByte
        ; Setup parameters for call to function SendByte
        ; Setup parameters for call to function SendByte
        LCALL   ?Subroutine29 & 0xFFFF
??CrossCallReturnLabel_55:
        RET
        CFI EndBlock cfiCond422
        CFI EndBlock cfiCond423
        CFI EndBlock cfiCond424
        CFI EndBlock cfiCond425
        CFI EndBlock cfiPicker426

        RSEG BANKED_CODE:CODE:NOROOT(0)
?Subroutine29:
        CFI Block cfiCond427 Using cfiCommon0
        CFI NoFunction
        CFI Conditional ??CrossCallReturnLabel_54, ??CrossCallReturnLabel_50, ??CrossCallReturnLabel_28
        CFI R6 load(1, XDATA, add(CFA_XSP16, literal(-16)))
        CFI VB load(1, XDATA, add(CFA_XSP16, literal(-15)))
        CFI V0 load(1, XDATA, add(CFA_XSP16, literal(-14)))
        CFI V1 load(1, XDATA, add(CFA_XSP16, literal(-13)))
        CFI V2 load(1, XDATA, add(CFA_XSP16, literal(-12)))
        CFI V3 load(1, XDATA, add(CFA_XSP16, literal(-11)))
        CFI V4 load(1, XDATA, add(CFA_XSP16, literal(-10)))
        CFI V5 load(1, XDATA, add(CFA_XSP16, literal(-9)))
        CFI V6 load(1, XDATA, add(CFA_XSP16, literal(-8)))
        CFI V7 load(1, XDATA, add(CFA_XSP16, literal(-7)))
        CFI R7 load(1, XDATA, add(CFA_XSP16, literal(-6)))
        CFI ?RET_LOW load(1, XDATA, add(CFA_XSP16, literal(-5)))
        CFI ?RET_HIGH load(1, XDATA, add(CFA_XSP16, literal(-4)))
        CFI ?BRET_EXT load(1, XDATA, add(CFA_XSP16, literal(-3)))
        CFI DPL0 load(1, XDATA, add(CFA_XSP16, literal(-2)))
        CFI DPH0 load(1, XDATA, add(CFA_XSP16, literal(-1)))
        CFI CFA_SP SP+0
        CFI CFA_XSP16 add(XSP16, 16)
        CFI Block cfiCond428 Using cfiCommon0
        CFI (cfiCond428) NoFunction
        CFI (cfiCond428) Conditional ??CrossCallReturnLabel_54, ??CrossCallReturnLabel_50, ??CrossCallReturnLabel_29
        CFI (cfiCond428) R6 load(1, XDATA, add(CFA_XSP16, literal(-16)))
        CFI (cfiCond428) VB load(1, XDATA, add(CFA_XSP16, literal(-15)))
        CFI (cfiCond428) V0 load(1, XDATA, add(CFA_XSP16, literal(-14)))
        CFI (cfiCond428) V1 load(1, XDATA, add(CFA_XSP16, literal(-13)))
        CFI (cfiCond428) V2 load(1, XDATA, add(CFA_XSP16, literal(-12)))
        CFI (cfiCond428) V3 load(1, XDATA, add(CFA_XSP16, literal(-11)))
        CFI (cfiCond428) V4 load(1, XDATA, add(CFA_XSP16, literal(-10)))
        CFI (cfiCond428) V5 load(1, XDATA, add(CFA_XSP16, literal(-9)))
        CFI (cfiCond428) V6 load(1, XDATA, add(CFA_XSP16, literal(-8)))
        CFI (cfiCond428) V7 load(1, XDATA, add(CFA_XSP16, literal(-7)))
        CFI (cfiCond428) R7 load(1, XDATA, add(CFA_XSP16, literal(-6)))
        CFI (cfiCond428) ?RET_LOW load(1, XDATA, add(CFA_XSP16, literal(-5)))
        CFI (cfiCond428) ?RET_HIGH load(1, XDATA, add(CFA_XSP16, literal(-4)))
        CFI (cfiCond428) ?BRET_EXT load(1, XDATA, add(CFA_XSP16, literal(-3)))
        CFI (cfiCond428) DPL0 load(1, XDATA, add(CFA_XSP16, literal(-2)))
        CFI (cfiCond428) DPH0 load(1, XDATA, add(CFA_XSP16, literal(-1)))
        CFI (cfiCond428) CFA_SP SP+0
        CFI (cfiCond428) CFA_XSP16 add(XSP16, 16)
        CFI Block cfiCond429 Using cfiCommon0
        CFI (cfiCond429) NoFunction
        CFI (cfiCond429) Conditional ??CrossCallReturnLabel_54, ??CrossCallReturnLabel_51, ??CrossCallReturnLabel_28
        CFI (cfiCond429) R6 load(1, XDATA, add(CFA_XSP16, literal(-16)))
        CFI (cfiCond429) VB load(1, XDATA, add(CFA_XSP16, literal(-15)))
        CFI (cfiCond429) V0 load(1, XDATA, add(CFA_XSP16, literal(-14)))
        CFI (cfiCond429) V1 load(1, XDATA, add(CFA_XSP16, literal(-13)))
        CFI (cfiCond429) V2 load(1, XDATA, add(CFA_XSP16, literal(-12)))
        CFI (cfiCond429) V3 load(1, XDATA, add(CFA_XSP16, literal(-11)))
        CFI (cfiCond429) V4 load(1, XDATA, add(CFA_XSP16, literal(-10)))
        CFI (cfiCond429) V5 load(1, XDATA, add(CFA_XSP16, literal(-9)))
        CFI (cfiCond429) V6 load(1, XDATA, add(CFA_XSP16, literal(-8)))
        CFI (cfiCond429) V7 load(1, XDATA, add(CFA_XSP16, literal(-7)))
        CFI (cfiCond429) R7 load(1, XDATA, add(CFA_XSP16, literal(-6)))
        CFI (cfiCond429) ?RET_LOW load(1, XDATA, add(CFA_XSP16, literal(-5)))
        CFI (cfiCond429) ?RET_HIGH load(1, XDATA, add(CFA_XSP16, literal(-4)))
        CFI (cfiCond429) ?BRET_EXT load(1, XDATA, add(CFA_XSP16, literal(-3)))
        CFI (cfiCond429) DPL0 load(1, XDATA, add(CFA_XSP16, literal(-2)))
        CFI (cfiCond429) DPH0 load(1, XDATA, add(CFA_XSP16, literal(-1)))
        CFI (cfiCond429) CFA_SP SP+0
        CFI (cfiCond429) CFA_XSP16 add(XSP16, 16)
        CFI Block cfiCond430 Using cfiCommon0
        CFI (cfiCond430) NoFunction
        CFI (cfiCond430) Conditional ??CrossCallReturnLabel_54, ??CrossCallReturnLabel_51, ??CrossCallReturnLabel_29
        CFI (cfiCond430) R6 load(1, XDATA, add(CFA_XSP16, literal(-16)))
        CFI (cfiCond430) VB load(1, XDATA, add(CFA_XSP16, literal(-15)))
        CFI (cfiCond430) V0 load(1, XDATA, add(CFA_XSP16, literal(-14)))
        CFI (cfiCond430) V1 load(1, XDATA, add(CFA_XSP16, literal(-13)))
        CFI (cfiCond430) V2 load(1, XDATA, add(CFA_XSP16, literal(-12)))
        CFI (cfiCond430) V3 load(1, XDATA, add(CFA_XSP16, literal(-11)))
        CFI (cfiCond430) V4 load(1, XDATA, add(CFA_XSP16, literal(-10)))
        CFI (cfiCond430) V5 load(1, XDATA, add(CFA_XSP16, literal(-9)))
        CFI (cfiCond430) V6 load(1, XDATA, add(CFA_XSP16, literal(-8)))
        CFI (cfiCond430) V7 load(1, XDATA, add(CFA_XSP16, literal(-7)))
        CFI (cfiCond430) R7 load(1, XDATA, add(CFA_XSP16, literal(-6)))
        CFI (cfiCond430) ?RET_LOW load(1, XDATA, add(CFA_XSP16, literal(-5)))
        CFI (cfiCond430) ?RET_HIGH load(1, XDATA, add(CFA_XSP16, literal(-4)))
        CFI (cfiCond430) ?BRET_EXT load(1, XDATA, add(CFA_XSP16, literal(-3)))
        CFI (cfiCond430) DPL0 load(1, XDATA, add(CFA_XSP16, literal(-2)))
        CFI (cfiCond430) DPH0 load(1, XDATA, add(CFA_XSP16, literal(-1)))
        CFI (cfiCond430) CFA_SP SP+0
        CFI (cfiCond430) CFA_XSP16 add(XSP16, 16)
        CFI Block cfiCond431 Using cfiCommon0
        CFI (cfiCond431) NoFunction
        CFI (cfiCond431) Conditional ??CrossCallReturnLabel_55, ??CrossCallReturnLabel_50, ??CrossCallReturnLabel_28
        CFI (cfiCond431) R6 load(1, XDATA, add(CFA_XSP16, literal(-16)))
        CFI (cfiCond431) VB load(1, XDATA, add(CFA_XSP16, literal(-15)))
        CFI (cfiCond431) V0 load(1, XDATA, add(CFA_XSP16, literal(-14)))
        CFI (cfiCond431) V1 load(1, XDATA, add(CFA_XSP16, literal(-13)))
        CFI (cfiCond431) V2 load(1, XDATA, add(CFA_XSP16, literal(-12)))
        CFI (cfiCond431) V3 load(1, XDATA, add(CFA_XSP16, literal(-11)))
        CFI (cfiCond431) V4 load(1, XDATA, add(CFA_XSP16, literal(-10)))
        CFI (cfiCond431) V5 load(1, XDATA, add(CFA_XSP16, literal(-9)))
        CFI (cfiCond431) V6 load(1, XDATA, add(CFA_XSP16, literal(-8)))
        CFI (cfiCond431) V7 load(1, XDATA, add(CFA_XSP16, literal(-7)))
        CFI (cfiCond431) R7 load(1, XDATA, add(CFA_XSP16, literal(-6)))
        CFI (cfiCond431) ?RET_LOW load(1, XDATA, add(CFA_XSP16, literal(-5)))
        CFI (cfiCond431) ?RET_HIGH load(1, XDATA, add(CFA_XSP16, literal(-4)))
        CFI (cfiCond431) ?BRET_EXT load(1, XDATA, add(CFA_XSP16, literal(-3)))
        CFI (cfiCond431) DPL0 load(1, XDATA, add(CFA_XSP16, literal(-2)))
        CFI (cfiCond431) DPH0 load(1, XDATA, add(CFA_XSP16, literal(-1)))
        CFI (cfiCond431) CFA_SP SP+0
        CFI (cfiCond431) CFA_XSP16 add(XSP16, 16)
        CFI Block cfiCond432 Using cfiCommon0
        CFI (cfiCond432) NoFunction
        CFI (cfiCond432) Conditional ??CrossCallReturnLabel_55, ??CrossCallReturnLabel_50, ??CrossCallReturnLabel_29
        CFI (cfiCond432) R6 load(1, XDATA, add(CFA_XSP16, literal(-16)))
        CFI (cfiCond432) VB load(1, XDATA, add(CFA_XSP16, literal(-15)))
        CFI (cfiCond432) V0 load(1, XDATA, add(CFA_XSP16, literal(-14)))
        CFI (cfiCond432) V1 load(1, XDATA, add(CFA_XSP16, literal(-13)))
        CFI (cfiCond432) V2 load(1, XDATA, add(CFA_XSP16, literal(-12)))
        CFI (cfiCond432) V3 load(1, XDATA, add(CFA_XSP16, literal(-11)))
        CFI (cfiCond432) V4 load(1, XDATA, add(CFA_XSP16, literal(-10)))
        CFI (cfiCond432) V5 load(1, XDATA, add(CFA_XSP16, literal(-9)))
        CFI (cfiCond432) V6 load(1, XDATA, add(CFA_XSP16, literal(-8)))
        CFI (cfiCond432) V7 load(1, XDATA, add(CFA_XSP16, literal(-7)))
        CFI (cfiCond432) R7 load(1, XDATA, add(CFA_XSP16, literal(-6)))
        CFI (cfiCond432) ?RET_LOW load(1, XDATA, add(CFA_XSP16, literal(-5)))
        CFI (cfiCond432) ?RET_HIGH load(1, XDATA, add(CFA_XSP16, literal(-4)))
        CFI (cfiCond432) ?BRET_EXT load(1, XDATA, add(CFA_XSP16, literal(-3)))
        CFI (cfiCond432) DPL0 load(1, XDATA, add(CFA_XSP16, literal(-2)))
        CFI (cfiCond432) DPH0 load(1, XDATA, add(CFA_XSP16, literal(-1)))
        CFI (cfiCond432) CFA_SP SP+0
        CFI (cfiCond432) CFA_XSP16 add(XSP16, 16)
        CFI Block cfiCond433 Using cfiCommon0
        CFI (cfiCond433) NoFunction
        CFI (cfiCond433) Conditional ??CrossCallReturnLabel_55, ??CrossCallReturnLabel_51, ??CrossCallReturnLabel_28
        CFI (cfiCond433) R6 load(1, XDATA, add(CFA_XSP16, literal(-16)))
        CFI (cfiCond433) VB load(1, XDATA, add(CFA_XSP16, literal(-15)))
        CFI (cfiCond433) V0 load(1, XDATA, add(CFA_XSP16, literal(-14)))
        CFI (cfiCond433) V1 load(1, XDATA, add(CFA_XSP16, literal(-13)))
        CFI (cfiCond433) V2 load(1, XDATA, add(CFA_XSP16, literal(-12)))
        CFI (cfiCond433) V3 load(1, XDATA, add(CFA_XSP16, literal(-11)))
        CFI (cfiCond433) V4 load(1, XDATA, add(CFA_XSP16, literal(-10)))
        CFI (cfiCond433) V5 load(1, XDATA, add(CFA_XSP16, literal(-9)))
        CFI (cfiCond433) V6 load(1, XDATA, add(CFA_XSP16, literal(-8)))
        CFI (cfiCond433) V7 load(1, XDATA, add(CFA_XSP16, literal(-7)))
        CFI (cfiCond433) R7 load(1, XDATA, add(CFA_XSP16, literal(-6)))
        CFI (cfiCond433) ?RET_LOW load(1, XDATA, add(CFA_XSP16, literal(-5)))
        CFI (cfiCond433) ?RET_HIGH load(1, XDATA, add(CFA_XSP16, literal(-4)))
        CFI (cfiCond433) ?BRET_EXT load(1, XDATA, add(CFA_XSP16, literal(-3)))
        CFI (cfiCond433) DPL0 load(1, XDATA, add(CFA_XSP16, literal(-2)))
        CFI (cfiCond433) DPH0 load(1, XDATA, add(CFA_XSP16, literal(-1)))
        CFI (cfiCond433) CFA_SP SP+0
        CFI (cfiCond433) CFA_XSP16 add(XSP16, 16)
        CFI Block cfiCond434 Using cfiCommon0
        CFI (cfiCond434) NoFunction
        CFI (cfiCond434) Conditional ??CrossCallReturnLabel_55, ??CrossCallReturnLabel_51, ??CrossCallReturnLabel_29
        CFI (cfiCond434) R6 load(1, XDATA, add(CFA_XSP16, literal(-16)))
        CFI (cfiCond434) VB load(1, XDATA, add(CFA_XSP16, literal(-15)))
        CFI (cfiCond434) V0 load(1, XDATA, add(CFA_XSP16, literal(-14)))
        CFI (cfiCond434) V1 load(1, XDATA, add(CFA_XSP16, literal(-13)))
        CFI (cfiCond434) V2 load(1, XDATA, add(CFA_XSP16, literal(-12)))
        CFI (cfiCond434) V3 load(1, XDATA, add(CFA_XSP16, literal(-11)))
        CFI (cfiCond434) V4 load(1, XDATA, add(CFA_XSP16, literal(-10)))
        CFI (cfiCond434) V5 load(1, XDATA, add(CFA_XSP16, literal(-9)))
        CFI (cfiCond434) V6 load(1, XDATA, add(CFA_XSP16, literal(-8)))
        CFI (cfiCond434) V7 load(1, XDATA, add(CFA_XSP16, literal(-7)))
        CFI (cfiCond434) R7 load(1, XDATA, add(CFA_XSP16, literal(-6)))
        CFI (cfiCond434) ?RET_LOW load(1, XDATA, add(CFA_XSP16, literal(-5)))
        CFI (cfiCond434) ?RET_HIGH load(1, XDATA, add(CFA_XSP16, literal(-4)))
        CFI (cfiCond434) ?BRET_EXT load(1, XDATA, add(CFA_XSP16, literal(-3)))
        CFI (cfiCond434) DPL0 load(1, XDATA, add(CFA_XSP16, literal(-2)))
        CFI (cfiCond434) DPH0 load(1, XDATA, add(CFA_XSP16, literal(-1)))
        CFI (cfiCond434) CFA_SP SP+0
        CFI (cfiCond434) CFA_XSP16 add(XSP16, 16)
        CFI Block cfiPicker435 Using cfiCommon1
        CFI (cfiPicker435) NoFunction
        CFI (cfiPicker435) Picker
        LCALL   ?Subroutine32 & 0xFFFF
??CrossCallReturnLabel_58:
        ; Setup parameters for call to function SendByte
        ; Setup parameters for call to function SendByte
        ; Setup parameters for call to function SendByte
        ; Setup parameters for call to function SendByte
        ; Setup parameters for call to function SendByte
        ; Setup parameters for call to function SendByte
        ; Setup parameters for call to function SendByte
        ; Setup parameters for call to function SendByte
        LCALL   ?Subroutine32 & 0xFFFF
??CrossCallReturnLabel_59:
        RET
        CFI EndBlock cfiCond427
        CFI EndBlock cfiCond428
        CFI EndBlock cfiCond429
        CFI EndBlock cfiCond430
        CFI EndBlock cfiCond431
        CFI EndBlock cfiCond432
        CFI EndBlock cfiCond433
        CFI EndBlock cfiCond434
        CFI EndBlock cfiPicker435

        RSEG BANKED_CODE:CODE:NOROOT(0)
?Subroutine32:
        CFI Block cfiCond436 Using cfiCommon0
        CFI NoFunction
        CFI Conditional ??CrossCallReturnLabel_58, ??CrossCallReturnLabel_54, ??CrossCallReturnLabel_50, ??CrossCallReturnLabel_28
        CFI R6 load(1, XDATA, add(CFA_XSP16, literal(-16)))
        CFI VB load(1, XDATA, add(CFA_XSP16, literal(-15)))
        CFI V0 load(1, XDATA, add(CFA_XSP16, literal(-14)))
        CFI V1 load(1, XDATA, add(CFA_XSP16, literal(-13)))
        CFI V2 load(1, XDATA, add(CFA_XSP16, literal(-12)))
        CFI V3 load(1, XDATA, add(CFA_XSP16, literal(-11)))
        CFI V4 load(1, XDATA, add(CFA_XSP16, literal(-10)))
        CFI V5 load(1, XDATA, add(CFA_XSP16, literal(-9)))
        CFI V6 load(1, XDATA, add(CFA_XSP16, literal(-8)))
        CFI V7 load(1, XDATA, add(CFA_XSP16, literal(-7)))
        CFI R7 load(1, XDATA, add(CFA_XSP16, literal(-6)))
        CFI ?RET_LOW load(1, XDATA, add(CFA_XSP16, literal(-5)))
        CFI ?RET_HIGH load(1, XDATA, add(CFA_XSP16, literal(-4)))
        CFI ?BRET_EXT load(1, XDATA, add(CFA_XSP16, literal(-3)))
        CFI DPL0 load(1, XDATA, add(CFA_XSP16, literal(-2)))
        CFI DPH0 load(1, XDATA, add(CFA_XSP16, literal(-1)))
        CFI CFA_SP SP+0
        CFI CFA_XSP16 add(XSP16, 16)
        CFI Block cfiCond437 Using cfiCommon0
        CFI (cfiCond437) NoFunction
        CFI (cfiCond437) Conditional ??CrossCallReturnLabel_58, ??CrossCallReturnLabel_54, ??CrossCallReturnLabel_50, ??CrossCallReturnLabel_29
        CFI (cfiCond437) R6 load(1, XDATA, add(CFA_XSP16, literal(-16)))
        CFI (cfiCond437) VB load(1, XDATA, add(CFA_XSP16, literal(-15)))
        CFI (cfiCond437) V0 load(1, XDATA, add(CFA_XSP16, literal(-14)))
        CFI (cfiCond437) V1 load(1, XDATA, add(CFA_XSP16, literal(-13)))
        CFI (cfiCond437) V2 load(1, XDATA, add(CFA_XSP16, literal(-12)))
        CFI (cfiCond437) V3 load(1, XDATA, add(CFA_XSP16, literal(-11)))
        CFI (cfiCond437) V4 load(1, XDATA, add(CFA_XSP16, literal(-10)))
        CFI (cfiCond437) V5 load(1, XDATA, add(CFA_XSP16, literal(-9)))
        CFI (cfiCond437) V6 load(1, XDATA, add(CFA_XSP16, literal(-8)))
        CFI (cfiCond437) V7 load(1, XDATA, add(CFA_XSP16, literal(-7)))
        CFI (cfiCond437) R7 load(1, XDATA, add(CFA_XSP16, literal(-6)))
        CFI (cfiCond437) ?RET_LOW load(1, XDATA, add(CFA_XSP16, literal(-5)))
        CFI (cfiCond437) ?RET_HIGH load(1, XDATA, add(CFA_XSP16, literal(-4)))
        CFI (cfiCond437) ?BRET_EXT load(1, XDATA, add(CFA_XSP16, literal(-3)))
        CFI (cfiCond437) DPL0 load(1, XDATA, add(CFA_XSP16, literal(-2)))
        CFI (cfiCond437) DPH0 load(1, XDATA, add(CFA_XSP16, literal(-1)))
        CFI (cfiCond437) CFA_SP SP+0
        CFI (cfiCond437) CFA_XSP16 add(XSP16, 16)
        CFI Block cfiCond438 Using cfiCommon0
        CFI (cfiCond438) NoFunction
        CFI (cfiCond438) Conditional ??CrossCallReturnLabel_58, ??CrossCallReturnLabel_54, ??CrossCallReturnLabel_51, ??CrossCallReturnLabel_28
        CFI (cfiCond438) R6 load(1, XDATA, add(CFA_XSP16, literal(-16)))
        CFI (cfiCond438) VB load(1, XDATA, add(CFA_XSP16, literal(-15)))
        CFI (cfiCond438) V0 load(1, XDATA, add(CFA_XSP16, literal(-14)))
        CFI (cfiCond438) V1 load(1, XDATA, add(CFA_XSP16, literal(-13)))
        CFI (cfiCond438) V2 load(1, XDATA, add(CFA_XSP16, literal(-12)))
        CFI (cfiCond438) V3 load(1, XDATA, add(CFA_XSP16, literal(-11)))
        CFI (cfiCond438) V4 load(1, XDATA, add(CFA_XSP16, literal(-10)))
        CFI (cfiCond438) V5 load(1, XDATA, add(CFA_XSP16, literal(-9)))
        CFI (cfiCond438) V6 load(1, XDATA, add(CFA_XSP16, literal(-8)))
        CFI (cfiCond438) V7 load(1, XDATA, add(CFA_XSP16, literal(-7)))
        CFI (cfiCond438) R7 load(1, XDATA, add(CFA_XSP16, literal(-6)))
        CFI (cfiCond438) ?RET_LOW load(1, XDATA, add(CFA_XSP16, literal(-5)))
        CFI (cfiCond438) ?RET_HIGH load(1, XDATA, add(CFA_XSP16, literal(-4)))
        CFI (cfiCond438) ?BRET_EXT load(1, XDATA, add(CFA_XSP16, literal(-3)))
        CFI (cfiCond438) DPL0 load(1, XDATA, add(CFA_XSP16, literal(-2)))
        CFI (cfiCond438) DPH0 load(1, XDATA, add(CFA_XSP16, literal(-1)))
        CFI (cfiCond438) CFA_SP SP+0
        CFI (cfiCond438) CFA_XSP16 add(XSP16, 16)
        CFI Block cfiCond439 Using cfiCommon0
        CFI (cfiCond439) NoFunction
        CFI (cfiCond439) Conditional ??CrossCallReturnLabel_58, ??CrossCallReturnLabel_54, ??CrossCallReturnLabel_51, ??CrossCallReturnLabel_29
        CFI (cfiCond439) R6 load(1, XDATA, add(CFA_XSP16, literal(-16)))
        CFI (cfiCond439) VB load(1, XDATA, add(CFA_XSP16, literal(-15)))
        CFI (cfiCond439) V0 load(1, XDATA, add(CFA_XSP16, literal(-14)))
        CFI (cfiCond439) V1 load(1, XDATA, add(CFA_XSP16, literal(-13)))
        CFI (cfiCond439) V2 load(1, XDATA, add(CFA_XSP16, literal(-12)))
        CFI (cfiCond439) V3 load(1, XDATA, add(CFA_XSP16, literal(-11)))
        CFI (cfiCond439) V4 load(1, XDATA, add(CFA_XSP16, literal(-10)))
        CFI (cfiCond439) V5 load(1, XDATA, add(CFA_XSP16, literal(-9)))
        CFI (cfiCond439) V6 load(1, XDATA, add(CFA_XSP16, literal(-8)))
        CFI (cfiCond439) V7 load(1, XDATA, add(CFA_XSP16, literal(-7)))
        CFI (cfiCond439) R7 load(1, XDATA, add(CFA_XSP16, literal(-6)))
        CFI (cfiCond439) ?RET_LOW load(1, XDATA, add(CFA_XSP16, literal(-5)))
        CFI (cfiCond439) ?RET_HIGH load(1, XDATA, add(CFA_XSP16, literal(-4)))
        CFI (cfiCond439) ?BRET_EXT load(1, XDATA, add(CFA_XSP16, literal(-3)))
        CFI (cfiCond439) DPL0 load(1, XDATA, add(CFA_XSP16, literal(-2)))
        CFI (cfiCond439) DPH0 load(1, XDATA, add(CFA_XSP16, literal(-1)))
        CFI (cfiCond439) CFA_SP SP+0
        CFI (cfiCond439) CFA_XSP16 add(XSP16, 16)
        CFI Block cfiCond440 Using cfiCommon0
        CFI (cfiCond440) NoFunction
        CFI (cfiCond440) Conditional ??CrossCallReturnLabel_58, ??CrossCallReturnLabel_55, ??CrossCallReturnLabel_50, ??CrossCallReturnLabel_28
        CFI (cfiCond440) R6 load(1, XDATA, add(CFA_XSP16, literal(-16)))
        CFI (cfiCond440) VB load(1, XDATA, add(CFA_XSP16, literal(-15)))
        CFI (cfiCond440) V0 load(1, XDATA, add(CFA_XSP16, literal(-14)))
        CFI (cfiCond440) V1 load(1, XDATA, add(CFA_XSP16, literal(-13)))
        CFI (cfiCond440) V2 load(1, XDATA, add(CFA_XSP16, literal(-12)))
        CFI (cfiCond440) V3 load(1, XDATA, add(CFA_XSP16, literal(-11)))
        CFI (cfiCond440) V4 load(1, XDATA, add(CFA_XSP16, literal(-10)))
        CFI (cfiCond440) V5 load(1, XDATA, add(CFA_XSP16, literal(-9)))
        CFI (cfiCond440) V6 load(1, XDATA, add(CFA_XSP16, literal(-8)))
        CFI (cfiCond440) V7 load(1, XDATA, add(CFA_XSP16, literal(-7)))
        CFI (cfiCond440) R7 load(1, XDATA, add(CFA_XSP16, literal(-6)))
        CFI (cfiCond440) ?RET_LOW load(1, XDATA, add(CFA_XSP16, literal(-5)))
        CFI (cfiCond440) ?RET_HIGH load(1, XDATA, add(CFA_XSP16, literal(-4)))
        CFI (cfiCond440) ?BRET_EXT load(1, XDATA, add(CFA_XSP16, literal(-3)))
        CFI (cfiCond440) DPL0 load(1, XDATA, add(CFA_XSP16, literal(-2)))
        CFI (cfiCond440) DPH0 load(1, XDATA, add(CFA_XSP16, literal(-1)))
        CFI (cfiCond440) CFA_SP SP+0
        CFI (cfiCond440) CFA_XSP16 add(XSP16, 16)
        CFI Block cfiCond441 Using cfiCommon0
        CFI (cfiCond441) NoFunction
        CFI (cfiCond441) Conditional ??CrossCallReturnLabel_58, ??CrossCallReturnLabel_55, ??CrossCallReturnLabel_50, ??CrossCallReturnLabel_29
        CFI (cfiCond441) R6 load(1, XDATA, add(CFA_XSP16, literal(-16)))
        CFI (cfiCond441) VB load(1, XDATA, add(CFA_XSP16, literal(-15)))
        CFI (cfiCond441) V0 load(1, XDATA, add(CFA_XSP16, literal(-14)))
        CFI (cfiCond441) V1 load(1, XDATA, add(CFA_XSP16, literal(-13)))
        CFI (cfiCond441) V2 load(1, XDATA, add(CFA_XSP16, literal(-12)))
        CFI (cfiCond441) V3 load(1, XDATA, add(CFA_XSP16, literal(-11)))
        CFI (cfiCond441) V4 load(1, XDATA, add(CFA_XSP16, literal(-10)))
        CFI (cfiCond441) V5 load(1, XDATA, add(CFA_XSP16, literal(-9)))
        CFI (cfiCond441) V6 load(1, XDATA, add(CFA_XSP16, literal(-8)))
        CFI (cfiCond441) V7 load(1, XDATA, add(CFA_XSP16, literal(-7)))
        CFI (cfiCond441) R7 load(1, XDATA, add(CFA_XSP16, literal(-6)))
        CFI (cfiCond441) ?RET_LOW load(1, XDATA, add(CFA_XSP16, literal(-5)))
        CFI (cfiCond441) ?RET_HIGH load(1, XDATA, add(CFA_XSP16, literal(-4)))
        CFI (cfiCond441) ?BRET_EXT load(1, XDATA, add(CFA_XSP16, literal(-3)))
        CFI (cfiCond441) DPL0 load(1, XDATA, add(CFA_XSP16, literal(-2)))
        CFI (cfiCond441) DPH0 load(1, XDATA, add(CFA_XSP16, literal(-1)))
        CFI (cfiCond441) CFA_SP SP+0
        CFI (cfiCond441) CFA_XSP16 add(XSP16, 16)
        CFI Block cfiCond442 Using cfiCommon0
        CFI (cfiCond442) NoFunction
        CFI (cfiCond442) Conditional ??CrossCallReturnLabel_58, ??CrossCallReturnLabel_55, ??CrossCallReturnLabel_51, ??CrossCallReturnLabel_28
        CFI (cfiCond442) R6 load(1, XDATA, add(CFA_XSP16, literal(-16)))
        CFI (cfiCond442) VB load(1, XDATA, add(CFA_XSP16, literal(-15)))
        CFI (cfiCond442) V0 load(1, XDATA, add(CFA_XSP16, literal(-14)))
        CFI (cfiCond442) V1 load(1, XDATA, add(CFA_XSP16, literal(-13)))
        CFI (cfiCond442) V2 load(1, XDATA, add(CFA_XSP16, literal(-12)))
        CFI (cfiCond442) V3 load(1, XDATA, add(CFA_XSP16, literal(-11)))
        CFI (cfiCond442) V4 load(1, XDATA, add(CFA_XSP16, literal(-10)))
        CFI (cfiCond442) V5 load(1, XDATA, add(CFA_XSP16, literal(-9)))
        CFI (cfiCond442) V6 load(1, XDATA, add(CFA_XSP16, literal(-8)))
        CFI (cfiCond442) V7 load(1, XDATA, add(CFA_XSP16, literal(-7)))
        CFI (cfiCond442) R7 load(1, XDATA, add(CFA_XSP16, literal(-6)))
        CFI (cfiCond442) ?RET_LOW load(1, XDATA, add(CFA_XSP16, literal(-5)))
        CFI (cfiCond442) ?RET_HIGH load(1, XDATA, add(CFA_XSP16, literal(-4)))
        CFI (cfiCond442) ?BRET_EXT load(1, XDATA, add(CFA_XSP16, literal(-3)))
        CFI (cfiCond442) DPL0 load(1, XDATA, add(CFA_XSP16, literal(-2)))
        CFI (cfiCond442) DPH0 load(1, XDATA, add(CFA_XSP16, literal(-1)))
        CFI (cfiCond442) CFA_SP SP+0
        CFI (cfiCond442) CFA_XSP16 add(XSP16, 16)
        CFI Block cfiCond443 Using cfiCommon0
        CFI (cfiCond443) NoFunction
        CFI (cfiCond443) Conditional ??CrossCallReturnLabel_58, ??CrossCallReturnLabel_55, ??CrossCallReturnLabel_51, ??CrossCallReturnLabel_29
        CFI (cfiCond443) R6 load(1, XDATA, add(CFA_XSP16, literal(-16)))
        CFI (cfiCond443) VB load(1, XDATA, add(CFA_XSP16, literal(-15)))
        CFI (cfiCond443) V0 load(1, XDATA, add(CFA_XSP16, literal(-14)))
        CFI (cfiCond443) V1 load(1, XDATA, add(CFA_XSP16, literal(-13)))
        CFI (cfiCond443) V2 load(1, XDATA, add(CFA_XSP16, literal(-12)))
        CFI (cfiCond443) V3 load(1, XDATA, add(CFA_XSP16, literal(-11)))
        CFI (cfiCond443) V4 load(1, XDATA, add(CFA_XSP16, literal(-10)))
        CFI (cfiCond443) V5 load(1, XDATA, add(CFA_XSP16, literal(-9)))
        CFI (cfiCond443) V6 load(1, XDATA, add(CFA_XSP16, literal(-8)))
        CFI (cfiCond443) V7 load(1, XDATA, add(CFA_XSP16, literal(-7)))
        CFI (cfiCond443) R7 load(1, XDATA, add(CFA_XSP16, literal(-6)))
        CFI (cfiCond443) ?RET_LOW load(1, XDATA, add(CFA_XSP16, literal(-5)))
        CFI (cfiCond443) ?RET_HIGH load(1, XDATA, add(CFA_XSP16, literal(-4)))
        CFI (cfiCond443) ?BRET_EXT load(1, XDATA, add(CFA_XSP16, literal(-3)))
        CFI (cfiCond443) DPL0 load(1, XDATA, add(CFA_XSP16, literal(-2)))
        CFI (cfiCond443) DPH0 load(1, XDATA, add(CFA_XSP16, literal(-1)))
        CFI (cfiCond443) CFA_SP SP+0
        CFI (cfiCond443) CFA_XSP16 add(XSP16, 16)
        CFI Block cfiCond444 Using cfiCommon0
        CFI (cfiCond444) NoFunction
        CFI (cfiCond444) Conditional ??CrossCallReturnLabel_59, ??CrossCallReturnLabel_54, ??CrossCallReturnLabel_50, ??CrossCallReturnLabel_28
        CFI (cfiCond444) R6 load(1, XDATA, add(CFA_XSP16, literal(-16)))
        CFI (cfiCond444) VB load(1, XDATA, add(CFA_XSP16, literal(-15)))
        CFI (cfiCond444) V0 load(1, XDATA, add(CFA_XSP16, literal(-14)))
        CFI (cfiCond444) V1 load(1, XDATA, add(CFA_XSP16, literal(-13)))
        CFI (cfiCond444) V2 load(1, XDATA, add(CFA_XSP16, literal(-12)))
        CFI (cfiCond444) V3 load(1, XDATA, add(CFA_XSP16, literal(-11)))
        CFI (cfiCond444) V4 load(1, XDATA, add(CFA_XSP16, literal(-10)))
        CFI (cfiCond444) V5 load(1, XDATA, add(CFA_XSP16, literal(-9)))
        CFI (cfiCond444) V6 load(1, XDATA, add(CFA_XSP16, literal(-8)))
        CFI (cfiCond444) V7 load(1, XDATA, add(CFA_XSP16, literal(-7)))
        CFI (cfiCond444) R7 load(1, XDATA, add(CFA_XSP16, literal(-6)))
        CFI (cfiCond444) ?RET_LOW load(1, XDATA, add(CFA_XSP16, literal(-5)))
        CFI (cfiCond444) ?RET_HIGH load(1, XDATA, add(CFA_XSP16, literal(-4)))
        CFI (cfiCond444) ?BRET_EXT load(1, XDATA, add(CFA_XSP16, literal(-3)))
        CFI (cfiCond444) DPL0 load(1, XDATA, add(CFA_XSP16, literal(-2)))
        CFI (cfiCond444) DPH0 load(1, XDATA, add(CFA_XSP16, literal(-1)))
        CFI (cfiCond444) CFA_SP SP+0
        CFI (cfiCond444) CFA_XSP16 add(XSP16, 16)
        CFI Block cfiCond445 Using cfiCommon0
        CFI (cfiCond445) NoFunction
        CFI (cfiCond445) Conditional ??CrossCallReturnLabel_59, ??CrossCallReturnLabel_54, ??CrossCallReturnLabel_50, ??CrossCallReturnLabel_29
        CFI (cfiCond445) R6 load(1, XDATA, add(CFA_XSP16, literal(-16)))
        CFI (cfiCond445) VB load(1, XDATA, add(CFA_XSP16, literal(-15)))
        CFI (cfiCond445) V0 load(1, XDATA, add(CFA_XSP16, literal(-14)))
        CFI (cfiCond445) V1 load(1, XDATA, add(CFA_XSP16, literal(-13)))
        CFI (cfiCond445) V2 load(1, XDATA, add(CFA_XSP16, literal(-12)))
        CFI (cfiCond445) V3 load(1, XDATA, add(CFA_XSP16, literal(-11)))
        CFI (cfiCond445) V4 load(1, XDATA, add(CFA_XSP16, literal(-10)))
        CFI (cfiCond445) V5 load(1, XDATA, add(CFA_XSP16, literal(-9)))
        CFI (cfiCond445) V6 load(1, XDATA, add(CFA_XSP16, literal(-8)))
        CFI (cfiCond445) V7 load(1, XDATA, add(CFA_XSP16, literal(-7)))
        CFI (cfiCond445) R7 load(1, XDATA, add(CFA_XSP16, literal(-6)))
        CFI (cfiCond445) ?RET_LOW load(1, XDATA, add(CFA_XSP16, literal(-5)))
        CFI (cfiCond445) ?RET_HIGH load(1, XDATA, add(CFA_XSP16, literal(-4)))
        CFI (cfiCond445) ?BRET_EXT load(1, XDATA, add(CFA_XSP16, literal(-3)))
        CFI (cfiCond445) DPL0 load(1, XDATA, add(CFA_XSP16, literal(-2)))
        CFI (cfiCond445) DPH0 load(1, XDATA, add(CFA_XSP16, literal(-1)))
        CFI (cfiCond445) CFA_SP SP+0
        CFI (cfiCond445) CFA_XSP16 add(XSP16, 16)
        CFI Block cfiCond446 Using cfiCommon0
        CFI (cfiCond446) NoFunction
        CFI (cfiCond446) Conditional ??CrossCallReturnLabel_59, ??CrossCallReturnLabel_54, ??CrossCallReturnLabel_51, ??CrossCallReturnLabel_28
        CFI (cfiCond446) R6 load(1, XDATA, add(CFA_XSP16, literal(-16)))
        CFI (cfiCond446) VB load(1, XDATA, add(CFA_XSP16, literal(-15)))
        CFI (cfiCond446) V0 load(1, XDATA, add(CFA_XSP16, literal(-14)))
        CFI (cfiCond446) V1 load(1, XDATA, add(CFA_XSP16, literal(-13)))
        CFI (cfiCond446) V2 load(1, XDATA, add(CFA_XSP16, literal(-12)))
        CFI (cfiCond446) V3 load(1, XDATA, add(CFA_XSP16, literal(-11)))
        CFI (cfiCond446) V4 load(1, XDATA, add(CFA_XSP16, literal(-10)))
        CFI (cfiCond446) V5 load(1, XDATA, add(CFA_XSP16, literal(-9)))
        CFI (cfiCond446) V6 load(1, XDATA, add(CFA_XSP16, literal(-8)))
        CFI (cfiCond446) V7 load(1, XDATA, add(CFA_XSP16, literal(-7)))
        CFI (cfiCond446) R7 load(1, XDATA, add(CFA_XSP16, literal(-6)))
        CFI (cfiCond446) ?RET_LOW load(1, XDATA, add(CFA_XSP16, literal(-5)))
        CFI (cfiCond446) ?RET_HIGH load(1, XDATA, add(CFA_XSP16, literal(-4)))
        CFI (cfiCond446) ?BRET_EXT load(1, XDATA, add(CFA_XSP16, literal(-3)))
        CFI (cfiCond446) DPL0 load(1, XDATA, add(CFA_XSP16, literal(-2)))
        CFI (cfiCond446) DPH0 load(1, XDATA, add(CFA_XSP16, literal(-1)))
        CFI (cfiCond446) CFA_SP SP+0
        CFI (cfiCond446) CFA_XSP16 add(XSP16, 16)
        CFI Block cfiCond447 Using cfiCommon0
        CFI (cfiCond447) NoFunction
        CFI (cfiCond447) Conditional ??CrossCallReturnLabel_59, ??CrossCallReturnLabel_54, ??CrossCallReturnLabel_51, ??CrossCallReturnLabel_29
        CFI (cfiCond447) R6 load(1, XDATA, add(CFA_XSP16, literal(-16)))
        CFI (cfiCond447) VB load(1, XDATA, add(CFA_XSP16, literal(-15)))
        CFI (cfiCond447) V0 load(1, XDATA, add(CFA_XSP16, literal(-14)))
        CFI (cfiCond447) V1 load(1, XDATA, add(CFA_XSP16, literal(-13)))
        CFI (cfiCond447) V2 load(1, XDATA, add(CFA_XSP16, literal(-12)))
        CFI (cfiCond447) V3 load(1, XDATA, add(CFA_XSP16, literal(-11)))
        CFI (cfiCond447) V4 load(1, XDATA, add(CFA_XSP16, literal(-10)))
        CFI (cfiCond447) V5 load(1, XDATA, add(CFA_XSP16, literal(-9)))
        CFI (cfiCond447) V6 load(1, XDATA, add(CFA_XSP16, literal(-8)))
        CFI (cfiCond447) V7 load(1, XDATA, add(CFA_XSP16, literal(-7)))
        CFI (cfiCond447) R7 load(1, XDATA, add(CFA_XSP16, literal(-6)))
        CFI (cfiCond447) ?RET_LOW load(1, XDATA, add(CFA_XSP16, literal(-5)))
        CFI (cfiCond447) ?RET_HIGH load(1, XDATA, add(CFA_XSP16, literal(-4)))
        CFI (cfiCond447) ?BRET_EXT load(1, XDATA, add(CFA_XSP16, literal(-3)))
        CFI (cfiCond447) DPL0 load(1, XDATA, add(CFA_XSP16, literal(-2)))
        CFI (cfiCond447) DPH0 load(1, XDATA, add(CFA_XSP16, literal(-1)))
        CFI (cfiCond447) CFA_SP SP+0
        CFI (cfiCond447) CFA_XSP16 add(XSP16, 16)
        CFI Block cfiCond448 Using cfiCommon0
        CFI (cfiCond448) NoFunction
        CFI (cfiCond448) Conditional ??CrossCallReturnLabel_59, ??CrossCallReturnLabel_55, ??CrossCallReturnLabel_50, ??CrossCallReturnLabel_28
        CFI (cfiCond448) R6 load(1, XDATA, add(CFA_XSP16, literal(-16)))
        CFI (cfiCond448) VB load(1, XDATA, add(CFA_XSP16, literal(-15)))
        CFI (cfiCond448) V0 load(1, XDATA, add(CFA_XSP16, literal(-14)))
        CFI (cfiCond448) V1 load(1, XDATA, add(CFA_XSP16, literal(-13)))
        CFI (cfiCond448) V2 load(1, XDATA, add(CFA_XSP16, literal(-12)))
        CFI (cfiCond448) V3 load(1, XDATA, add(CFA_XSP16, literal(-11)))
        CFI (cfiCond448) V4 load(1, XDATA, add(CFA_XSP16, literal(-10)))
        CFI (cfiCond448) V5 load(1, XDATA, add(CFA_XSP16, literal(-9)))
        CFI (cfiCond448) V6 load(1, XDATA, add(CFA_XSP16, literal(-8)))
        CFI (cfiCond448) V7 load(1, XDATA, add(CFA_XSP16, literal(-7)))
        CFI (cfiCond448) R7 load(1, XDATA, add(CFA_XSP16, literal(-6)))
        CFI (cfiCond448) ?RET_LOW load(1, XDATA, add(CFA_XSP16, literal(-5)))
        CFI (cfiCond448) ?RET_HIGH load(1, XDATA, add(CFA_XSP16, literal(-4)))
        CFI (cfiCond448) ?BRET_EXT load(1, XDATA, add(CFA_XSP16, literal(-3)))
        CFI (cfiCond448) DPL0 load(1, XDATA, add(CFA_XSP16, literal(-2)))
        CFI (cfiCond448) DPH0 load(1, XDATA, add(CFA_XSP16, literal(-1)))
        CFI (cfiCond448) CFA_SP SP+0
        CFI (cfiCond448) CFA_XSP16 add(XSP16, 16)
        CFI Block cfiCond449 Using cfiCommon0
        CFI (cfiCond449) NoFunction
        CFI (cfiCond449) Conditional ??CrossCallReturnLabel_59, ??CrossCallReturnLabel_55, ??CrossCallReturnLabel_50, ??CrossCallReturnLabel_29
        CFI (cfiCond449) R6 load(1, XDATA, add(CFA_XSP16, literal(-16)))
        CFI (cfiCond449) VB load(1, XDATA, add(CFA_XSP16, literal(-15)))
        CFI (cfiCond449) V0 load(1, XDATA, add(CFA_XSP16, literal(-14)))
        CFI (cfiCond449) V1 load(1, XDATA, add(CFA_XSP16, literal(-13)))
        CFI (cfiCond449) V2 load(1, XDATA, add(CFA_XSP16, literal(-12)))
        CFI (cfiCond449) V3 load(1, XDATA, add(CFA_XSP16, literal(-11)))
        CFI (cfiCond449) V4 load(1, XDATA, add(CFA_XSP16, literal(-10)))
        CFI (cfiCond449) V5 load(1, XDATA, add(CFA_XSP16, literal(-9)))
        CFI (cfiCond449) V6 load(1, XDATA, add(CFA_XSP16, literal(-8)))
        CFI (cfiCond449) V7 load(1, XDATA, add(CFA_XSP16, literal(-7)))
        CFI (cfiCond449) R7 load(1, XDATA, add(CFA_XSP16, literal(-6)))
        CFI (cfiCond449) ?RET_LOW load(1, XDATA, add(CFA_XSP16, literal(-5)))
        CFI (cfiCond449) ?RET_HIGH load(1, XDATA, add(CFA_XSP16, literal(-4)))
        CFI (cfiCond449) ?BRET_EXT load(1, XDATA, add(CFA_XSP16, literal(-3)))
        CFI (cfiCond449) DPL0 load(1, XDATA, add(CFA_XSP16, literal(-2)))
        CFI (cfiCond449) DPH0 load(1, XDATA, add(CFA_XSP16, literal(-1)))
        CFI (cfiCond449) CFA_SP SP+0
        CFI (cfiCond449) CFA_XSP16 add(XSP16, 16)
        CFI Block cfiCond450 Using cfiCommon0
        CFI (cfiCond450) NoFunction
        CFI (cfiCond450) Conditional ??CrossCallReturnLabel_59, ??CrossCallReturnLabel_55, ??CrossCallReturnLabel_51, ??CrossCallReturnLabel_28
        CFI (cfiCond450) R6 load(1, XDATA, add(CFA_XSP16, literal(-16)))
        CFI (cfiCond450) VB load(1, XDATA, add(CFA_XSP16, literal(-15)))
        CFI (cfiCond450) V0 load(1, XDATA, add(CFA_XSP16, literal(-14)))
        CFI (cfiCond450) V1 load(1, XDATA, add(CFA_XSP16, literal(-13)))
        CFI (cfiCond450) V2 load(1, XDATA, add(CFA_XSP16, literal(-12)))
        CFI (cfiCond450) V3 load(1, XDATA, add(CFA_XSP16, literal(-11)))
        CFI (cfiCond450) V4 load(1, XDATA, add(CFA_XSP16, literal(-10)))
        CFI (cfiCond450) V5 load(1, XDATA, add(CFA_XSP16, literal(-9)))
        CFI (cfiCond450) V6 load(1, XDATA, add(CFA_XSP16, literal(-8)))
        CFI (cfiCond450) V7 load(1, XDATA, add(CFA_XSP16, literal(-7)))
        CFI (cfiCond450) R7 load(1, XDATA, add(CFA_XSP16, literal(-6)))
        CFI (cfiCond450) ?RET_LOW load(1, XDATA, add(CFA_XSP16, literal(-5)))
        CFI (cfiCond450) ?RET_HIGH load(1, XDATA, add(CFA_XSP16, literal(-4)))
        CFI (cfiCond450) ?BRET_EXT load(1, XDATA, add(CFA_XSP16, literal(-3)))
        CFI (cfiCond450) DPL0 load(1, XDATA, add(CFA_XSP16, literal(-2)))
        CFI (cfiCond450) DPH0 load(1, XDATA, add(CFA_XSP16, literal(-1)))
        CFI (cfiCond450) CFA_SP SP+0
        CFI (cfiCond450) CFA_XSP16 add(XSP16, 16)
        CFI Block cfiCond451 Using cfiCommon0
        CFI (cfiCond451) NoFunction
        CFI (cfiCond451) Conditional ??CrossCallReturnLabel_59, ??CrossCallReturnLabel_55, ??CrossCallReturnLabel_51, ??CrossCallReturnLabel_29
        CFI (cfiCond451) R6 load(1, XDATA, add(CFA_XSP16, literal(-16)))
        CFI (cfiCond451) VB load(1, XDATA, add(CFA_XSP16, literal(-15)))
        CFI (cfiCond451) V0 load(1, XDATA, add(CFA_XSP16, literal(-14)))
        CFI (cfiCond451) V1 load(1, XDATA, add(CFA_XSP16, literal(-13)))
        CFI (cfiCond451) V2 load(1, XDATA, add(CFA_XSP16, literal(-12)))
        CFI (cfiCond451) V3 load(1, XDATA, add(CFA_XSP16, literal(-11)))
        CFI (cfiCond451) V4 load(1, XDATA, add(CFA_XSP16, literal(-10)))
        CFI (cfiCond451) V5 load(1, XDATA, add(CFA_XSP16, literal(-9)))
        CFI (cfiCond451) V6 load(1, XDATA, add(CFA_XSP16, literal(-8)))
        CFI (cfiCond451) V7 load(1, XDATA, add(CFA_XSP16, literal(-7)))
        CFI (cfiCond451) R7 load(1, XDATA, add(CFA_XSP16, literal(-6)))
        CFI (cfiCond451) ?RET_LOW load(1, XDATA, add(CFA_XSP16, literal(-5)))
        CFI (cfiCond451) ?RET_HIGH load(1, XDATA, add(CFA_XSP16, literal(-4)))
        CFI (cfiCond451) ?BRET_EXT load(1, XDATA, add(CFA_XSP16, literal(-3)))
        CFI (cfiCond451) DPL0 load(1, XDATA, add(CFA_XSP16, literal(-2)))
        CFI (cfiCond451) DPH0 load(1, XDATA, add(CFA_XSP16, literal(-1)))
        CFI (cfiCond451) CFA_SP SP+0
        CFI (cfiCond451) CFA_XSP16 add(XSP16, 16)
        CFI Block cfiPicker452 Using cfiCommon1
        CFI (cfiPicker452) NoFunction
        CFI (cfiPicker452) Picker
        MOV     A,R6
        MOV     R1,A
        LCALL   ??SendByte?relay
        ; Setup parameters for call to function SendByte
        ; Setup parameters for call to function SendByte
        ; Setup parameters for call to function SendByte
        ; Setup parameters for call to function SendByte
        ; Setup parameters for call to function SendByte
        ; Setup parameters for call to function SendByte
        ; Setup parameters for call to function SendByte
        ; Setup parameters for call to function SendByte
        ; Setup parameters for call to function SendByte
        ; Setup parameters for call to function SendByte
        ; Setup parameters for call to function SendByte
        ; Setup parameters for call to function SendByte
        ; Setup parameters for call to function SendByte
        ; Setup parameters for call to function SendByte
        ; Setup parameters for call to function SendByte
        ; Setup parameters for call to function SendByte
        MOV     A,R7
        MOV     R1,A
        LCALL   ??SendByte?relay
        RET
        CFI EndBlock cfiCond436
        CFI EndBlock cfiCond437
        CFI EndBlock cfiCond438
        CFI EndBlock cfiCond439
        CFI EndBlock cfiCond440
        CFI EndBlock cfiCond441
        CFI EndBlock cfiCond442
        CFI EndBlock cfiCond443
        CFI EndBlock cfiCond444
        CFI EndBlock cfiCond445
        CFI EndBlock cfiCond446
        CFI EndBlock cfiCond447
        CFI EndBlock cfiCond448
        CFI EndBlock cfiCond449
        CFI EndBlock cfiCond450
        CFI EndBlock cfiCond451
        CFI EndBlock cfiPicker452
//  598 
//  599 /****************************************************************************
//  600 * 名    称: LCD_write_EN()
//  601 * 功    能: 在指定位置显示 7 ×14 点阵ASCII字符 
//  602 * 入口参数: X - 显示位置左上角横坐标      Y ―显示位置左上角纵坐标
//  603 *           c ―显示字符                  
//  604 * 出口参数: 无
//  605 ****************************************************************************/

        RSEG BANKED_CODE:CODE:NOROOT(0)
//  606 static void LCD_write_EN(unsigned int X, unsigned int Y, unsigned char c)
LCD_write_EN:
        CFI Block cfiBlock453 Using cfiCommon0
        CFI Function LCD_write_EN
        CODE
//  607 {
        FUNCALL LCD_write_EN, LCD_set_window
        LOCFRAME ISTACK, 0, STACK
        LOCFRAME PSTACK, 0, STACK
        LOCFRAME XSTACK, 14, STACK
        LOCFRAME IOVERLAY, 0, STATIC
        LOCFRAME DOVERLAY, 0, STATIC
        ARGFRAME ISTACK, 0, STACK
        ARGFRAME PSTACK, 0, STACK
        ARGFRAME XSTACK, 14, STACK
        ARGFRAME IOVERLAY, 0, STATIC
        ARGFRAME DOVERLAY, 0, STATIC
        FUNCALL LCD_write_EN, SendByte
        LOCFRAME ISTACK, 0, STACK
        LOCFRAME PSTACK, 0, STACK
        LOCFRAME XSTACK, 10, STACK
        LOCFRAME IOVERLAY, 0, STATIC
        LOCFRAME DOVERLAY, 0, STATIC
        ARGFRAME ISTACK, 0, STACK
        ARGFRAME PSTACK, 0, STACK
        ARGFRAME XSTACK, 10, STACK
        ARGFRAME IOVERLAY, 0, STATIC
        ARGFRAME DOVERLAY, 0, STATIC
        FUNCALL LCD_write_EN, SendByte
        LOCFRAME ISTACK, 0, STACK
        LOCFRAME PSTACK, 0, STACK
        LOCFRAME XSTACK, 10, STACK
        LOCFRAME IOVERLAY, 0, STATIC
        LOCFRAME DOVERLAY, 0, STATIC
        ARGFRAME ISTACK, 0, STACK
        ARGFRAME PSTACK, 0, STACK
        ARGFRAME XSTACK, 10, STACK
        ARGFRAME IOVERLAY, 0, STATIC
        ARGFRAME DOVERLAY, 0, STATIC
        FUNCALL LCD_write_EN, SendByte
        LOCFRAME ISTACK, 0, STACK
        LOCFRAME PSTACK, 0, STACK
        LOCFRAME XSTACK, 10, STACK
        LOCFRAME IOVERLAY, 0, STATIC
        LOCFRAME DOVERLAY, 0, STATIC
        ARGFRAME ISTACK, 0, STACK
        ARGFRAME PSTACK, 0, STACK
        ARGFRAME XSTACK, 10, STACK
        ARGFRAME IOVERLAY, 0, STATIC
        ARGFRAME DOVERLAY, 0, STATIC
        FUNCALL LCD_write_EN, SendByte
        LOCFRAME ISTACK, 0, STACK
        LOCFRAME PSTACK, 0, STACK
        LOCFRAME XSTACK, 10, STACK
        LOCFRAME IOVERLAY, 0, STATIC
        LOCFRAME DOVERLAY, 0, STATIC
        ARGFRAME ISTACK, 0, STACK
        ARGFRAME PSTACK, 0, STACK
        ARGFRAME XSTACK, 10, STACK
        ARGFRAME IOVERLAY, 0, STATIC
        ARGFRAME DOVERLAY, 0, STATIC
        MOV     A,#-0xa
        LCALL   ?BANKED_ENTER_XDATA
        CFI DPH0 load(1, XDATA, add(CFA_XSP16, literal(-1)))
        CFI DPL0 load(1, XDATA, add(CFA_XSP16, literal(-2)))
        CFI ?BRET_EXT load(1, XDATA, add(CFA_XSP16, literal(-3)))
        CFI ?RET_HIGH load(1, XDATA, add(CFA_XSP16, literal(-4)))
        CFI ?RET_LOW load(1, XDATA, add(CFA_XSP16, literal(-5)))
        CFI R7 load(1, XDATA, add(CFA_XSP16, literal(-6)))
        CFI V1 load(1, XDATA, add(CFA_XSP16, literal(-7)))
        CFI V0 load(1, XDATA, add(CFA_XSP16, literal(-8)))
        CFI VB load(1, XDATA, add(CFA_XSP16, literal(-9)))
        CFI R6 load(1, XDATA, add(CFA_XSP16, literal(-10)))
        CFI CFA_SP SP+0
        CFI CFA_XSP16 add(XSP16, 10)
        ; Saved register size: 10
        ; Auto size: 0
        MOV     A,R1
        MOV     R6,A
//  608   unsigned char i,j,temp;
//  609   
//  610   LCD_set_window(X,Y,7,14);
        ; Setup parameters for call to function LCD_set_window
        MOV     ?V0 + 0,#0xe
        MOV     ?V0 + 1,#0x0
        MOV     R0,#?V0 + 0
        LCALL   ?PUSH_XSTACK_I_TWO
        CFI CFA_XSP16 add(XSP16, 12)
        MOV     ?V0 + 0,#0x7
        MOV     R0,#?V0 + 0
        LCALL   ?PUSH_XSTACK_I_TWO
        CFI CFA_XSP16 add(XSP16, 14)
        LCALL   ?Subroutine15 & 0xFFFF
??CrossCallReturnLabel_25:
        LCALL   ?DEALLOC_XSTACK8
        CFI CFA_XSP16 add(XSP16, 10)
//  611   //LCD_CS_CLR ;
//  612   LCD_DC_SET ;
        SETB    0x80.0
//  613   for(i=0;i<14;i++)
        MOV     R7,#0x0
//  614   {
//  615     temp = ASCII7x14[c-32][i];
??LCD_write_EN_0:
        MOV     A,R6
        MOV     B,#0xe
        MUL     AB
        MOV     R2,A
        MOV     R3,B
        MOV     ?V0 + 0,R7
        MOV     A,#(ASCII7x14 + 64) & 0xff
        ADD     A,?V0 + 0
        MOV     R0,A
        MOV     A,#((ASCII7x14 - 448) >> 8) & 0xff
        ADDC    A,#0x0
        MOV     R1,A
        MOV     A,R0
        ADD     A,R2
        MOV     DPL,A
        MOV     A,R1
        ADDC    A,R3
        MOV     DPH,A
        CLR     A
        MOVC    A,@A+DPTR
        MOV     ?V0 + 1,A
//  616     for(j=0;j<7;j++)
        MOV     ?V0 + 0,#0x7
//  617     {
//  618       if(temp&0x80)
??LCD_write_EN_1:
        MOV     A,?V0 + 1
        MOV     C,0xE0 /* A   */.7
        JNC     ??LCD_write_EN_2
//  619       {
//  620         SendByte(Color>>8);  
        ; Setup parameters for call to function SendByte
        MOV     DPTR,#Color + 1
        LCALL   ?Subroutine22 & 0xFFFF
//  621         SendByte(Color) ;
??CrossCallReturnLabel_40:
        ; Setup parameters for call to function SendByte
        MOV     DPTR,#Color
        SJMP    ??LCD_write_EN_3
//  622       }
//  623       else
//  624       {
//  625         SendByte(Color_BK>>8) ;  
??LCD_write_EN_2:
        ; Setup parameters for call to function SendByte
        MOV     DPTR,#Color_BK + 1
        LCALL   ?Subroutine22 & 0xFFFF
//  626         SendByte(Color_BK);
??CrossCallReturnLabel_41:
        ; Setup parameters for call to function SendByte
        MOV     DPTR,#Color_BK
//  627       }            
??LCD_write_EN_3:
        LCALL   ?Subroutine22 & 0xFFFF
//  628       temp <<= 1 ;
??CrossCallReturnLabel_42:
        MOV     A,?V0 + 1
        CLR     C
        RLC     A
        MOV     ?V0 + 1,A
//  629     }
        DEC     ?V0 + 0
        MOV     A,?V0 + 0
        JNZ     ??LCD_write_EN_1
//  630   }
        INC     R7
        MOV     A,R7
        CLR     C
        SUBB    A,#0xe
        JC      ??LCD_write_EN_0
//  631   //LCD_CS_SET ; andy
//  632   LCD_DC_SET ;
        SETB    0x80.0
//  633 }
        MOV     R7,#0x2
        LJMP    ?BANKED_LEAVE_XDATA
        CFI EndBlock cfiBlock453
        REQUIRE _A_P0

        RSEG BANKED_CODE:CODE:NOROOT(0)
?Subroutine22:
        CFI Block cfiCond454 Using cfiCommon0
        CFI NoFunction
        CFI Conditional ??CrossCallReturnLabel_40
        CFI R6 load(1, XDATA, add(CFA_XSP16, literal(-10)))
        CFI VB load(1, XDATA, add(CFA_XSP16, literal(-9)))
        CFI V0 load(1, XDATA, add(CFA_XSP16, literal(-8)))
        CFI V1 load(1, XDATA, add(CFA_XSP16, literal(-7)))
        CFI R7 load(1, XDATA, add(CFA_XSP16, literal(-6)))
        CFI ?RET_LOW load(1, XDATA, add(CFA_XSP16, literal(-5)))
        CFI ?RET_HIGH load(1, XDATA, add(CFA_XSP16, literal(-4)))
        CFI ?BRET_EXT load(1, XDATA, add(CFA_XSP16, literal(-3)))
        CFI DPL0 load(1, XDATA, add(CFA_XSP16, literal(-2)))
        CFI DPH0 load(1, XDATA, add(CFA_XSP16, literal(-1)))
        CFI CFA_SP SP+0
        CFI CFA_XSP16 add(XSP16, 10)
        CFI Block cfiCond455 Using cfiCommon0
        CFI (cfiCond455) NoFunction
        CFI (cfiCond455) Conditional ??CrossCallReturnLabel_41
        CFI (cfiCond455) R6 load(1, XDATA, add(CFA_XSP16, literal(-10)))
        CFI (cfiCond455) VB load(1, XDATA, add(CFA_XSP16, literal(-9)))
        CFI (cfiCond455) V0 load(1, XDATA, add(CFA_XSP16, literal(-8)))
        CFI (cfiCond455) V1 load(1, XDATA, add(CFA_XSP16, literal(-7)))
        CFI (cfiCond455) R7 load(1, XDATA, add(CFA_XSP16, literal(-6)))
        CFI (cfiCond455) ?RET_LOW load(1, XDATA, add(CFA_XSP16, literal(-5)))
        CFI (cfiCond455) ?RET_HIGH load(1, XDATA, add(CFA_XSP16, literal(-4)))
        CFI (cfiCond455) ?BRET_EXT load(1, XDATA, add(CFA_XSP16, literal(-3)))
        CFI (cfiCond455) DPL0 load(1, XDATA, add(CFA_XSP16, literal(-2)))
        CFI (cfiCond455) DPH0 load(1, XDATA, add(CFA_XSP16, literal(-1)))
        CFI (cfiCond455) CFA_SP SP+0
        CFI (cfiCond455) CFA_XSP16 add(XSP16, 10)
        CFI Block cfiCond456 Using cfiCommon0
        CFI (cfiCond456) NoFunction
        CFI (cfiCond456) Conditional ??CrossCallReturnLabel_42
        CFI (cfiCond456) R6 load(1, XDATA, add(CFA_XSP16, literal(-10)))
        CFI (cfiCond456) VB load(1, XDATA, add(CFA_XSP16, literal(-9)))
        CFI (cfiCond456) V0 load(1, XDATA, add(CFA_XSP16, literal(-8)))
        CFI (cfiCond456) V1 load(1, XDATA, add(CFA_XSP16, literal(-7)))
        CFI (cfiCond456) R7 load(1, XDATA, add(CFA_XSP16, literal(-6)))
        CFI (cfiCond456) ?RET_LOW load(1, XDATA, add(CFA_XSP16, literal(-5)))
        CFI (cfiCond456) ?RET_HIGH load(1, XDATA, add(CFA_XSP16, literal(-4)))
        CFI (cfiCond456) ?BRET_EXT load(1, XDATA, add(CFA_XSP16, literal(-3)))
        CFI (cfiCond456) DPL0 load(1, XDATA, add(CFA_XSP16, literal(-2)))
        CFI (cfiCond456) DPH0 load(1, XDATA, add(CFA_XSP16, literal(-1)))
        CFI (cfiCond456) CFA_SP SP+0
        CFI (cfiCond456) CFA_XSP16 add(XSP16, 10)
        CFI Block cfiPicker457 Using cfiCommon1
        CFI (cfiPicker457) NoFunction
        CFI (cfiPicker457) Picker
        MOVX    A,@DPTR
        MOV     R1,A
        LCALL   ??SendByte?relay
        RET
        CFI EndBlock cfiCond454
        CFI EndBlock cfiCond455
        CFI EndBlock cfiCond456
        CFI EndBlock cfiPicker457
//  634 
//  635 /****************************************************************************
//  636 * 名    称: LCD_write_EN_string()
//  637 * 功    能: 在指定位置显示 7 ×14 点阵ASCII字符串 
//  638 * 入口参数: X - 显示位置左上角横坐标      Y ―显示位置左上角纵坐标
//  639 *           s ―字符串指针                  
//  640 * 出口参数: 无
//  641 ****************************************************************************/

        RSEG BANKED_CODE:CODE:NOROOT(0)
//  642 void LCD_write_EN_string(unsigned char X,unsigned char Y,uint8 *s)
LCD_write_EN_string:
        CFI Block cfiBlock458 Using cfiCommon0
        CFI Function LCD_write_EN_string
        CODE
//  643 {
        FUNCALL LCD_write_EN_string, LCD_write_EN
        LOCFRAME ISTACK, 0, STACK
        LOCFRAME PSTACK, 0, STACK
        LOCFRAME XSTACK, 13, STACK
        LOCFRAME IOVERLAY, 0, STATIC
        LOCFRAME DOVERLAY, 0, STATIC
        ARGFRAME ISTACK, 0, STACK
        ARGFRAME PSTACK, 0, STACK
        ARGFRAME XSTACK, 13, STACK
        ARGFRAME IOVERLAY, 0, STATIC
        ARGFRAME DOVERLAY, 0, STATIC
        MOV     A,#-0xd
        LCALL   ?BANKED_ENTER_XDATA
        CFI DPH0 load(1, XDATA, add(CFA_XSP16, literal(-1)))
        CFI DPL0 load(1, XDATA, add(CFA_XSP16, literal(-2)))
        CFI ?BRET_EXT load(1, XDATA, add(CFA_XSP16, literal(-3)))
        CFI ?RET_HIGH load(1, XDATA, add(CFA_XSP16, literal(-4)))
        CFI ?RET_LOW load(1, XDATA, add(CFA_XSP16, literal(-5)))
        CFI R7 load(1, XDATA, add(CFA_XSP16, literal(-6)))
        CFI V4 load(1, XDATA, add(CFA_XSP16, literal(-7)))
        CFI V3 load(1, XDATA, add(CFA_XSP16, literal(-8)))
        CFI V2 load(1, XDATA, add(CFA_XSP16, literal(-9)))
        CFI V1 load(1, XDATA, add(CFA_XSP16, literal(-10)))
        CFI V0 load(1, XDATA, add(CFA_XSP16, literal(-11)))
        CFI VB load(1, XDATA, add(CFA_XSP16, literal(-12)))
        CFI R6 load(1, XDATA, add(CFA_XSP16, literal(-13)))
        CFI CFA_SP SP+0
        CFI CFA_XSP16 add(XSP16, 13)
        ; Saved register size: 13
        ; Auto size: 0
        MOV     ?V0 + 3,R1
        MOV     ?V0 + 4,R2
        MOV     A,R4
        MOV     R6,A
        MOV     A,R5
        MOV     R7,A
//  644   unsigned char i=0;
        MOV     ?V0 + 2,#0x0
//  645   
//  646   while (*s)
??LCD_write_EN_string_0:
        MOV     DPL,R6
        MOV     DPH,R7
        MOVX    A,@DPTR
        MOV     R1,A
        JZ      ??LCD_write_EN_string_1
//  647   {
//  648     LCD_write_EN(X+i*7,Y,*s);
        ; Setup parameters for call to function LCD_write_EN
        MOV     ?V0 + 0,?V0 + 4
        MOV     R4,?V0 + 0
        MOV     R5,#0x0
        MOV     ?V0 + 0,?V0 + 3
        MOV     A,?V0 + 2
        MOV     B,#0x7
        MUL     AB
        MOV     R2,A
        MOV     R3,B
        MOV     A,?V0 + 0
        ADD     A,R2
        MOV     R2,A
        CLR     A
        ADDC    A,R3
        MOV     R3,A
        LCALL   ??LCD_write_EN?relay
//  649     s++;
        MOV     DPL,R6
        MOV     DPH,R7
        INC     DPTR
        MOV     R6,DPL
        MOV     R7,DPH
//  650     i++;
        INC     ?V0 + 2
//  651     if(i>=HAL_LCD_MAX_CHARS)return;
        MOV     A,?V0 + 2
        CLR     C
        SUBB    A,#0x12
        JC      ??LCD_write_EN_string_0
??LCD_write_EN_string_1:
        MOV     R7,#0x5
        LJMP    ?BANKED_LEAVE_XDATA
        CFI EndBlock cfiBlock458
//  652   }
//  653   return;
//  654 }

        RSEG XDATA_ID:CODE:NOROOT(0)
`?<Initializer for Color>`:
        DATA16
        DW 65504

        RSEG XDATA_ID:CODE:NOROOT(0)
`?<Initializer for Color_BK>`:
        DATA16
        DW 31

        RSEG BANK_RELAYS:CODE:REORDER:NOROOT(0)
??SendByte?relay:
        LCALL   ?BDISPATCH
        DATA
        DC24    SendByte

        RSEG BANK_RELAYS:CODE:REORDER:NOROOT(0)
??SPI_WriteData?relay:
        LCALL   ?BDISPATCH
        DATA
        DC24    SPI_WriteData

        RSEG BANK_RELAYS:CODE:REORDER:NOROOT(0)
??Lcd_WriteIndex?relay:
        LCALL   ?BDISPATCH
        DATA
        DC24    Lcd_WriteIndex

        RSEG BANK_RELAYS:CODE:REORDER:NOROOT(0)
??Lcd_WriteData?relay:
        LCALL   ?BDISPATCH
        DATA
        DC24    Lcd_WriteData

        RSEG BANK_RELAYS:CODE:REORDER:NOROOT(0)
??LCD_WriteData_16Bit?relay:
        LCALL   ?BDISPATCH
        DATA
        DC24    LCD_WriteData_16Bit

        RSEG BANK_RELAYS:CODE:REORDER:NOROOT(0)
??LCD_write_byte?relay:
        LCALL   ?BDISPATCH
        DATA
        DC24    LCD_write_byte

        RSEG BANK_RELAYS:CODE:REORDER:NOROOT(0)
??SPI_Init?relay:
        LCALL   ?BDISPATCH
        DATA
        DC24    SPI_Init

        RSEG BANK_RELAYS:CODE:REORDER:NOROOT(0)
??Lcd_Reset?relay:
        LCALL   ?BDISPATCH
        DATA
        DC24    Lcd_Reset

        RSEG BANK_RELAYS:CODE:REORDER:NOROOT(0)
??InitLcd?relay:
        LCALL   ?BDISPATCH
        DATA
        DC24    InitLcd

        RSEG BANK_RELAYS:CODE:REORDER:NOROOT(0)
??LCD_clear?relay:
        LCALL   ?BDISPATCH
        DATA
        DC24    LCD_clear

        RSEG BANK_RELAYS:CODE:REORDER:NOROOT(0)
??LCD_set_window?relay:
        LCALL   ?BDISPATCH
        DATA
        DC24    LCD_set_window

        RSEG BANK_RELAYS:CODE:REORDER:NOROOT(0)
??DrawPixel?relay:
        LCALL   ?BDISPATCH
        DATA
        DC24    DrawPixel

        RSEG BANK_RELAYS:CODE:REORDER:NOROOT(0)
??DrawVerticalLine?relay:
        LCALL   ?BDISPATCH
        DATA
        DC24    DrawVerticalLine

        RSEG BANK_RELAYS:CODE:REORDER:NOROOT(0)
??DrawHorizonLine?relay:
        LCALL   ?BDISPATCH
        DATA
        DC24    DrawHorizonLine

        RSEG BANK_RELAYS:CODE:REORDER:NOROOT(0)
??DrawRect?relay:
        LCALL   ?BDISPATCH
        DATA
        DC24    DrawRect

        RSEG BANK_RELAYS:CODE:REORDER:NOROOT(0)
??DrawRectFill?relay:
        LCALL   ?BDISPATCH
        DATA
        DC24    DrawRectFill

        RSEG BANK_RELAYS:CODE:REORDER:NOROOT(0)
??LCD_write_EN?relay:
        LCALL   ?BDISPATCH
        DATA
        DC24    LCD_write_EN

        RSEG BANK_RELAYS:CODE:REORDER:NOROOT(0)
??LCD_write_EN_string?relay:
        LCALL   ?BDISPATCH
        DATA
        DC24    LCD_write_EN_string

        END
// 
// 1 617 bytes in segment BANKED_CODE
//   108 bytes in segment BANK_RELAYS
// 1 288 bytes in segment CODE_C
//    10 bytes in segment SFR_AN
//     4 bytes in segment XDATA_I
//     4 bytes in segment XDATA_ID
// 
// 3 017 bytes of CODE  memory
//     0 bytes of DATA  memory (+ 10 bytes shared)
//     4 bytes of XDATA memory
//
//Errors: none
//Warnings: none
