///////////////////////////////////////////////////////////////////////////////
//                                                                            /
// IAR C/C++ Compiler V8.10.3.10338/W32 for 8051        19/Apr/2017  12:15:25 /
// Copyright 2004-2011 IAR Systems AB.                                        /
//                                                                            /
//    Core               =  plain                                             /
//    Code model         =  banked                                            /
//    Data model         =  large                                             /
//    Calling convention =  xdata reentrant                                   /
//    Constant location  =  data_rom                                          /
//    Dptr setup         =  1,16                                              /
//    Source file        =  C:\Users\Administrator\Desktop\PT100\ZStack-CC253 /
//                          0-2.3.0-1.4.0\Projects\zstack\ZIGBEE\ZIGBEE\Sourc /
//                          e\Router.c                                        /
//    Command line       =  -f C:\Users\Administrator\Desktop\PT100\ZStack-CC /
//                          2530-2.3.0-1.4.0\Projects\zstack\ZIGBEE\ZIGBEE\CC /
//                          2530DB\..\..\..\Tools\CC2530DB\f8wRouter.cfg      /
//                          (-DCPU32MHZ -DROOT=__near_func                    /
//                          -DMAC_CFG_APP_PENDING_QUEUE=TRUE -DRTR_NWK        /
//                          -DBLINK_LEDS) -f C:\Users\Administrator\Desktop\P /
//                          T100\ZStack-CC2530-2.3.0-1.4.0\Projects\zstack\ZI /
//                          GBEE\ZIGBEE\CC2530DB\..\..\..\Tools\CC2530DB\f8wC /
//                          onfig.cfg (-DSECURE=0 -DZG_SECURE_DYNAMIC=0       /
//                          -DREFLECTOR -DDEFAULT_CHANLIST=0x00000800         /
//                          -DZDAPP_CONFIG_PAN_ID=0xFFF1                      /
//                          -DNWK_START_DELAY=100 -DEXTENDED_JOINING_RANDOM_M /
//                          ASK=0x007F -DBEACON_REQUEST_DELAY=100             /
//                          -DBEACON_REQ_DELAY_MASK=0x00FF                    /
//                          -DROUTE_EXPIRY_TIME=30 -DAPSC_ACK_WAIT_DURATION_P /
//                          OLLED=3000 -DNWK_INDIRECT_MSG_TIMEOUT=7           /
//                          -DMAX_RREQ_ENTRIES=8 -DAPSC_MAX_FRAME_RETRIES=3   /
//                          -DNWK_MAX_DATA_RETRIES=2                          /
//                          -DMAX_POLL_FAILURE_RETRIES=2 -DMAX_BCAST=9        /
//                          -DAPS_MAX_GROUPS=16 -DMAX_RTG_ENTRIES=40          /
//                          -DNWK_MAX_BINDING_ENTRIES=4                       /
//                          -DMAX_BINDING_CLUSTER_IDS=4                       /
//                          "-DDEFAULT_KEY={0x01, 0x03, 0x05, 0x07, 0x09,     /
//                          0x0B, 0x0D, 0x0F, 0x00, 0x02, 0x04, 0x06, 0x08,   /
//                          0x0A, 0x0C, 0x0D}" -DMAC_MAX_FRAME_SIZE=116       /
//                          "-DCONST=const __code" -DGENERIC=__generic        /
//                          -DRFD_RCVC_ALWAYS_ON=FALSE -DPOLL_RATE=1000       /
//                          -DQUEUED_POLL_RATE=100 -DRESPONSE_POLL_RATE=100)  /
//                          -DREJOIN_POLL_RATE=440 C:\Users\Administrator\Des /
//                          ktop\PT100\ZStack-CC2530-2.3.0-1.4.0\Projects\zst /
//                          ack\ZIGBEE\ZIGBEE\Source\Router.c -D ZIGBEEPRO    /
//                          -D ZTOOL_P1 -D MT_TASK -D MT_SYS_FUNC -D          /
//                          MT_ZDO_FUNC -D LCD_SUPPORTED=DEBUG -lC            /
//                          C:\Users\Administrator\Desktop\PT100\ZStack-CC253 /
//                          0-2.3.0-1.4.0\Projects\zstack\ZIGBEE\ZIGBEE\CC253 /
//                          0DB\RouterEB-Pro\List\ -lA                        /
//                          C:\Users\Administrator\Desktop\PT100\ZStack-CC253 /
//                          0-2.3.0-1.4.0\Projects\zstack\ZIGBEE\ZIGBEE\CC253 /
//                          0DB\RouterEB-Pro\List\ --diag_suppress            /
//                          Pe001,Pa010 -o C:\Users\Administrator\Desktop\PT1 /
//                          00\ZStack-CC2530-2.3.0-1.4.0\Projects\zstack\ZIGB /
//                          EE\ZIGBEE\CC2530DB\RouterEB-Pro\Obj\ -e --debug   /
//                          --core=plain --dptr=16,1 --data_model=large       /
//                          --code_model=banked --calling_convention=xdata_re /
//                          entrant --place_constants=data_rom                /
//                          --nr_virtual_regs 16 -I                           /
//                          C:\Users\Administrator\Desktop\PT100\ZStack-CC253 /
//                          0-2.3.0-1.4.0\Projects\zstack\ZIGBEE\ZIGBEE\CC253 /
//                          0DB\ -I C:\Users\Administrator\Desktop\PT100\ZSta /
//                          ck-CC2530-2.3.0-1.4.0\Projects\zstack\ZIGBEE\ZIGB /
//                          EE\CC2530DB\..\SOURCE\ -I                         /
//                          C:\Users\Administrator\Desktop\PT100\ZStack-CC253 /
//                          0-2.3.0-1.4.0\Projects\zstack\ZIGBEE\ZIGBEE\CC253 /
//                          0DB\..\..\..\ZMAIN\TI2530DB\ -I                   /
//                          C:\Users\Administrator\Desktop\PT100\ZStack-CC253 /
//                          0-2.3.0-1.4.0\Projects\zstack\ZIGBEE\ZIGBEE\CC253 /
//                          0DB\..\..\..\..\..\COMPONENTS\MT\ -I              /
//                          C:\Users\Administrator\Desktop\PT100\ZStack-CC253 /
//                          0-2.3.0-1.4.0\Projects\zstack\ZIGBEE\ZIGBEE\CC253 /
//                          0DB\..\..\..\..\..\COMPONENTS\HAL\INCLUDE\ -I     /
//                          C:\Users\Administrator\Desktop\PT100\ZStack-CC253 /
//                          0-2.3.0-1.4.0\Projects\zstack\ZIGBEE\ZIGBEE\CC253 /
//                          0DB\..\..\..\..\..\COMPONENTS\HAL\TARGET\CC2530EB /
//                          \ -I C:\Users\Administrator\Desktop\PT100\ZStack- /
//                          CC2530-2.3.0-1.4.0\Projects\zstack\ZIGBEE\ZIGBEE\ /
//                          CC2530DB\..\..\..\..\..\COMPONENTS\OSAL\MCU\CCSOC /
//                          \ -I C:\Users\Administrator\Desktop\PT100\ZStack- /
//                          CC2530-2.3.0-1.4.0\Projects\zstack\ZIGBEE\ZIGBEE\ /
//                          CC2530DB\..\..\..\..\..\COMPONENTS\OSAL\INCLUDE\  /
//                          -I C:\Users\Administrator\Desktop\PT100\ZStack-CC /
//                          2530-2.3.0-1.4.0\Projects\zstack\ZIGBEE\ZIGBEE\CC /
//                          2530DB\..\..\..\..\..\COMPONENTS\STACK\AF\ -I     /
//                          C:\Users\Administrator\Desktop\PT100\ZStack-CC253 /
//                          0-2.3.0-1.4.0\Projects\zstack\ZIGBEE\ZIGBEE\CC253 /
//                          0DB\..\..\..\..\..\COMPONENTS\STACK\NWK\ -I       /
//                          C:\Users\Administrator\Desktop\PT100\ZStack-CC253 /
//                          0-2.3.0-1.4.0\Projects\zstack\ZIGBEE\ZIGBEE\CC253 /
//                          0DB\..\..\..\..\..\COMPONENTS\STACK\SEC\ -I       /
//                          C:\Users\Administrator\Desktop\PT100\ZStack-CC253 /
//                          0-2.3.0-1.4.0\Projects\zstack\ZIGBEE\ZIGBEE\CC253 /
//                          0DB\..\..\..\..\..\COMPONENTS\STACK\SAPI\ -I      /
//                          C:\Users\Administrator\Desktop\PT100\ZStack-CC253 /
//                          0-2.3.0-1.4.0\Projects\zstack\ZIGBEE\ZIGBEE\CC253 /
//                          0DB\..\..\..\..\..\COMPONENTS\STACK\SYS\ -I       /
//                          C:\Users\Administrator\Desktop\PT100\ZStack-CC253 /
//                          0-2.3.0-1.4.0\Projects\zstack\ZIGBEE\ZIGBEE\CC253 /
//                          0DB\..\..\..\..\..\COMPONENTS\STACK\ZDO\ -I       /
//                          C:\Users\Administrator\Desktop\PT100\ZStack-CC253 /
//                          0-2.3.0-1.4.0\Projects\zstack\ZIGBEE\ZIGBEE\CC253 /
//                          0DB\..\..\..\..\..\COMPONENTS\ZMAC\F8W\ -I        /
//                          C:\Users\Administrator\Desktop\PT100\ZStack-CC253 /
//                          0-2.3.0-1.4.0\Projects\zstack\ZIGBEE\ZIGBEE\CC253 /
//                          0DB\..\..\..\..\..\COMPONENTS\ZMAC\ -I            /
//                          C:\Users\Administrator\Desktop\PT100\ZStack-CC253 /
//                          0-2.3.0-1.4.0\Projects\zstack\ZIGBEE\ZIGBEE\CC253 /
//                          0DB\..\..\..\..\..\COMPONENTS\SERVICES\SADDR\ -I  /
//                          C:\Users\Administrator\Desktop\PT100\ZStack-CC253 /
//                          0-2.3.0-1.4.0\Projects\zstack\ZIGBEE\ZIGBEE\CC253 /
//                          0DB\..\..\..\..\..\COMPONENTS\SERVICES\SDATA\ -I  /
//                          C:\Users\Administrator\Desktop\PT100\ZStack-CC253 /
//                          0-2.3.0-1.4.0\Projects\zstack\ZIGBEE\ZIGBEE\CC253 /
//                          0DB\..\..\..\..\..\COMPONENTS\MAC\INCLUDE\ -I     /
//                          C:\Users\Administrator\Desktop\PT100\ZStack-CC253 /
//                          0-2.3.0-1.4.0\Projects\zstack\ZIGBEE\ZIGBEE\CC253 /
//                          0DB\..\..\..\..\..\COMPONENTS\MAC\HIGH_LEVEL\ -I  /
//                          C:\Users\Administrator\Desktop\PT100\ZStack-CC253 /
//                          0-2.3.0-1.4.0\Projects\zstack\ZIGBEE\ZIGBEE\CC253 /
//                          0DB\..\..\..\..\..\COMPONENTS\MAC\LOW_LEVEL\srf04 /
//                          \ -I C:\Users\Administrator\Desktop\PT100\ZStack- /
//                          CC2530-2.3.0-1.4.0\Projects\zstack\ZIGBEE\ZIGBEE\ /
//                          CC2530DB\..\..\..\..\..\COMPONENTS\MAC\LOW_LEVEL\ /
//                          srf04\SINGLE_CHIP\ -Ohz --require_prototypes      /
//    List file          =  C:\Users\Administrator\Desktop\PT100\ZStack-CC253 /
//                          0-2.3.0-1.4.0\Projects\zstack\ZIGBEE\ZIGBEE\CC253 /
//                          0DB\RouterEB-Pro\List\Router.s51                  /
//                                                                            /
//                                                                            /
///////////////////////////////////////////////////////////////////////////////

        NAME Router

        RTMODEL "__SystemLibrary", "CLib"
        RTMODEL "__calling_convention", "xdata_reentrant"
        RTMODEL "__code_model", "banked"
        RTMODEL "__core", "plain"
        RTMODEL "__data_model", "large"
        RTMODEL "__dptr_size", "16"
        RTMODEL "__extended_stack", "disabled"
        RTMODEL "__location_for_constants", "data"
        RTMODEL "__number_of_dptrs", "1"
        RTMODEL "__rt_version", "1"

        RSEG DOVERLAY:DATA:NOROOT(0)
        RSEG IOVERLAY:IDATA:NOROOT(0)
        RSEG ISTACK:IDATA:NOROOT(0)
        RSEG PSTACK:XDATA:NOROOT(0)
        RSEG XSTACK:XDATA:NOROOT(0)

        EXTERN ?BANKED_ENTER_XDATA
        EXTERN ?BANKED_LEAVE_XDATA
        EXTERN ?BDISPATCH
        EXTERN ?BRET
        EXTERN __INIT_XDATA_Z

        PUBLIC ??SampleApp_HandleKeys?relay
        FUNCTION ??SampleApp_HandleKeys?relay,0203H
        PUBLIC ??SampleApp_Init?relay
        FUNCTION ??SampleApp_Init?relay,0203H
        PUBLIC ??SampleApp_MessageMSGCB?relay
        FUNCTION ??SampleApp_MessageMSGCB?relay,0203H
        PUBLIC ??SampleApp_ProcessEvent?relay
        FUNCTION ??SampleApp_ProcessEvent?relay,0203H
        PUBLIC ??SampleApp_Send_P2P_Message?relay
        FUNCTION ??SampleApp_Send_P2P_Message?relay,0203H
        PUBLIC ??UART_CallBack?relay
        FUNCTION ??UART_CallBack?relay,0203H
        PUBLIC CMD
        PUBLIC SampleApp_ClusterList
        PUBLIC SampleApp_HandleKeys
        FUNCTION SampleApp_HandleKeys,0203H
        ARGFRAME XSTACK, 0, STACK
        PUBLIC SampleApp_Init
        FUNCTION SampleApp_Init,021203H
        ARGFRAME XSTACK, 0, STACK
        LOCFRAME XSTACK, 9, STACK
        PUBLIC SampleApp_MessageMSGCB
        FUNCTION SampleApp_MessageMSGCB,0203H
        ARGFRAME XSTACK, 0, STACK
        PUBLIC SampleApp_NwkState
        PUBLIC SampleApp_P2P_DstAddr
        PUBLIC SampleApp_ProcessEvent
        FUNCTION SampleApp_ProcessEvent,021203H
        ARGFRAME XSTACK, 0, STACK
        LOCFRAME XSTACK, 10, STACK
        PUBLIC SampleApp_Send_P2P_Message
        FUNCTION SampleApp_Send_P2P_Message,0203H
        ARGFRAME XSTACK, 0, STACK
        PUBLIC SampleApp_SimpleDesc
        PUBLIC SampleApp_TaskID
        PUBLIC SampleApp_TransID
        PUBLIC SampleApp_epDesc
        PUBLIC UART_CallBack
        FUNCTION UART_CallBack,0203H
        ARGFRAME XSTACK, 0, STACK
        
        CFI Names cfiNames0
        CFI StackFrame CFA_SP SP IDATA
        CFI StackFrame CFA_PSP16 PSP16 XDATA
        CFI StackFrame CFA_XSP16 XSP16 XDATA
        CFI StaticOverlayFrame CFA_IOVERLAY IOVERLAY
        CFI StaticOverlayFrame CFA_DOVERLAY DOVERLAY
        CFI Resource `PSW.CY`:1, `B.BR0`:1, `B.BR1`:1, `B.BR2`:1, `B.BR3`:1
        CFI Resource `B.BR4`:1, `B.BR5`:1, `B.BR6`:1, `B.BR7`:1, `VB.BR8`:1
        CFI Resource `VB.BR9`:1, `VB.BR10`:1, `VB.BR11`:1, `VB.BR12`:1
        CFI Resource `VB.BR13`:1, `VB.BR14`:1, `VB.BR15`:1, VB:8, B:8, A:8
        CFI Resource PSW:8, DPL0:8, DPH0:8, R0:8, R1:8, R2:8, R3:8, R4:8, R5:8
        CFI Resource R6:8, R7:8, V0:8, V1:8, V2:8, V3:8, V4:8, V5:8, V6:8, V7:8
        CFI Resource V8:8, V9:8, V10:8, V11:8, V12:8, V13:8, V14:8, V15:8, SP:8
        CFI Resource PSPH:8, PSPL:8, PSP16:16, XSPH:8, XSPL:8, XSP16:16
        CFI VirtualResource ?RET:24
        CFI Resource ?BRET_EXT:8
        CFI VirtualResource ?RET_HIGH:8, ?RET_LOW:8
        CFI ResourceParts PSP16 PSPH, PSPL
        CFI ResourceParts XSP16 XSPH, XSPL
        CFI ResourceParts ?RET ?BRET_EXT, ?RET_HIGH, ?RET_LOW
        CFI EndNames cfiNames0
        
        CFI Common cfiCommon0 Using cfiNames0
        CFI CodeAlign 1
        CFI DataAlign -1
        CFI ReturnAddress ?RET CODE
        CFI CFA_DOVERLAY Used
        CFI CFA_IOVERLAY Used
        CFI CFA_SP SP+-3
        CFI CFA_PSP16 PSP16+0
        CFI CFA_XSP16 XSP16+0
        CFI `PSW.CY` SameValue
        CFI `B.BR0` SameValue
        CFI `B.BR1` SameValue
        CFI `B.BR2` SameValue
        CFI `B.BR3` SameValue
        CFI `B.BR4` SameValue
        CFI `B.BR5` SameValue
        CFI `B.BR6` SameValue
        CFI `B.BR7` SameValue
        CFI `VB.BR8` SameValue
        CFI `VB.BR9` SameValue
        CFI `VB.BR10` SameValue
        CFI `VB.BR11` SameValue
        CFI `VB.BR12` SameValue
        CFI `VB.BR13` SameValue
        CFI `VB.BR14` SameValue
        CFI `VB.BR15` SameValue
        CFI VB SameValue
        CFI B Undefined
        CFI A Undefined
        CFI PSW SameValue
        CFI DPL0 SameValue
        CFI DPH0 SameValue
        CFI R0 Undefined
        CFI R1 Undefined
        CFI R2 Undefined
        CFI R3 Undefined
        CFI R4 Undefined
        CFI R5 Undefined
        CFI R6 SameValue
        CFI R7 SameValue
        CFI V0 SameValue
        CFI V1 SameValue
        CFI V2 SameValue
        CFI V3 SameValue
        CFI V4 SameValue
        CFI V5 SameValue
        CFI V6 SameValue
        CFI V7 SameValue
        CFI V8 SameValue
        CFI V9 SameValue
        CFI V10 SameValue
        CFI V11 SameValue
        CFI V12 SameValue
        CFI V13 SameValue
        CFI V14 SameValue
        CFI V15 SameValue
        CFI PSPH Undefined
        CFI PSPL Undefined
        CFI XSPH Undefined
        CFI XSPL Undefined
        CFI ?RET Concat
        CFI ?BRET_EXT Frame(CFA_SP, 3)
        CFI ?RET_HIGH Frame(CFA_SP, 2)
        CFI ?RET_LOW Frame(CFA_SP, 1)
        CFI EndCommon cfiCommon0
        
MT_UartInit         SYMBOL "MT_UartInit"
MT_UartRegisterTaskID SYMBOL "MT_UartRegisterTaskID"
afRegister          SYMBOL "afRegister"
RegisterForKeys     SYMBOL "RegisterForKeys"
osal_msg_receive    SYMBOL "osal_msg_receive"
osal_msg_deallocate SYMBOL "osal_msg_deallocate"
??MT_UartInit?relay SYMBOL "?relay", MT_UartInit
??MT_UartRegisterTaskID?relay SYMBOL "?relay", MT_UartRegisterTaskID
??RegisterForKeys?relay SYMBOL "?relay", RegisterForKeys
??afRegister?relay  SYMBOL "?relay", afRegister
??osal_msg_deallocate?relay SYMBOL "?relay", osal_msg_deallocate
??osal_msg_receive?relay SYMBOL "?relay", osal_msg_receive
SampleApp_HandleKeys SYMBOL "SampleApp_HandleKeys"
??SampleApp_HandleKeys?relay SYMBOL "?relay", SampleApp_HandleKeys
SampleApp_Init      SYMBOL "SampleApp_Init"
??SampleApp_Init?relay SYMBOL "?relay", SampleApp_Init
SampleApp_MessageMSGCB SYMBOL "SampleApp_MessageMSGCB"
??SampleApp_MessageMSGCB?relay SYMBOL "?relay", SampleApp_MessageMSGCB
SampleApp_ProcessEvent SYMBOL "SampleApp_ProcessEvent"
??SampleApp_ProcessEvent?relay SYMBOL "?relay", SampleApp_ProcessEvent
SampleApp_Send_P2P_Message SYMBOL "SampleApp_Send_P2P_Message"
??SampleApp_Send_P2P_Message?relay SYMBOL "?relay", SampleApp_Send_P2P_Message
UART_CallBack       SYMBOL "UART_CallBack"
??UART_CallBack?relay SYMBOL "?relay", UART_CallBack

        EXTERN MT_UartInit
        FUNCTION MT_UartInit,0202H
        ARGFRAME ISTACK, 0, STACK
        ARGFRAME PSTACK, 0, STACK
        ARGFRAME XSTACK, 9, STACK
        ARGFRAME IOVERLAY, 0, STATIC
        ARGFRAME DOVERLAY, 0, STATIC
        EXTERN MT_UartRegisterTaskID
        FUNCTION MT_UartRegisterTaskID,0202H
        ARGFRAME ISTACK, 0, STACK
        ARGFRAME PSTACK, 0, STACK
        ARGFRAME XSTACK, 9, STACK
        ARGFRAME IOVERLAY, 0, STATIC
        ARGFRAME DOVERLAY, 0, STATIC
        EXTERN afRegister
        FUNCTION afRegister,0202H
        ARGFRAME ISTACK, 0, STACK
        ARGFRAME PSTACK, 0, STACK
        ARGFRAME XSTACK, 9, STACK
        ARGFRAME IOVERLAY, 0, STATIC
        ARGFRAME DOVERLAY, 0, STATIC
        EXTERN RegisterForKeys
        FUNCTION RegisterForKeys,0202H
        ARGFRAME ISTACK, 0, STACK
        ARGFRAME PSTACK, 0, STACK
        ARGFRAME XSTACK, 9, STACK
        ARGFRAME IOVERLAY, 0, STATIC
        ARGFRAME DOVERLAY, 0, STATIC
        EXTERN osal_msg_receive
        FUNCTION osal_msg_receive,0202H
        ARGFRAME ISTACK, 0, STACK
        ARGFRAME PSTACK, 0, STACK
        ARGFRAME XSTACK, 10, STACK
        ARGFRAME IOVERLAY, 0, STATIC
        ARGFRAME DOVERLAY, 0, STATIC
        EXTERN osal_msg_deallocate
        FUNCTION osal_msg_deallocate,0202H
        ARGFRAME ISTACK, 0, STACK
        ARGFRAME PSTACK, 0, STACK
        ARGFRAME XSTACK, 10, STACK
        ARGFRAME IOVERLAY, 0, STATIC
        ARGFRAME DOVERLAY, 0, STATIC
        EXTERN ??MT_UartInit?relay
        FUNCTION ??MT_UartInit?relay,00H
        EXTERN ??MT_UartRegisterTaskID?relay
        FUNCTION ??MT_UartRegisterTaskID?relay,00H
        EXTERN ??RegisterForKeys?relay
        FUNCTION ??RegisterForKeys?relay,00H
        EXTERN ??afRegister?relay
        FUNCTION ??afRegister?relay,00H
        EXTERN ??osal_msg_deallocate?relay
        FUNCTION ??osal_msg_deallocate?relay,00H
        EXTERN ??osal_msg_receive?relay
        FUNCTION ??osal_msg_receive?relay,00H

// C:\Users\Administrator\Desktop\PT100\ZStack-CC2530-2.3.0-1.4.0\Projects\zstack\ZIGBEE\ZIGBEE\Source\Router.c
//    1 /**************************************************************************************************
//    2   Filename:       SampleApp.c
//    3   Revised:        $Date: 2009-03-18 15:56:27 -0700 (Wed, 18 Mar 2009) $
//    4   Revision:       $Revision: 19453 $
//    5 
//    6   Description:    Sample Application (no Profile).
//    7 
//    8 **************************************************************************************************/
//    9 
//   10 #include "OSAL.h"
//   11 #include "ZGlobals.h"
//   12 #include "AF.h"
//   13 #include "aps_groups.h"
//   14 #include "ZDApp.h"
//   15 #include <string.h>
//   16 #include <stdio.h>
//   17 #include "SampleApp.h"
//   18 #include "SampleAppHw.h"
//   19 
//   20 #include "OnBoard.h"
//   21 
//   22 /* HAL */
//   23 #include "hal_lcd.h"
//   24 #include "hal_led.h"
//   25 #include "hal_key.h"
//   26 #include "MT_UART.h"
//   27 #include "MT_APP.h"
//   28 #include "MT.h"
//   29 
//   30 

        RSEG XDATA_Z:XDATA:NOROOT(0)
        DATA8
//   31 uint8 CMD;
CMD:
        DS 1
        REQUIRE __INIT_XDATA_Z
//   32 // This list should be filled with Application specific Cluster IDs.

        RSEG XDATA_ROM_C:CONST:REORDER:NOROOT(0)
        DATA16
//   33 const cId_t SampleApp_ClusterList[ENDDEVICE_MAX_CLUSTERS] =
SampleApp_ClusterList:
        DW 1
//   34 {
//   35  ENDDEVIC1_MSG
//   36 };
//   37 

        RSEG XDATA_ROM_C:CONST:REORDER:NOROOT(0)
        DATA8
//   38 const SimpleDescriptionFormat_t SampleApp_SimpleDesc =
SampleApp_SimpleDesc:
        DB 20
        DATA16
        DW 3848
        DW 1
        DATA8
        DB 0
        DB 1
        DATA16
        DW SampleApp_ClusterList
        DATA8
        DB 1
        DATA16
        DW SampleApp_ClusterList
//   39 {
//   40   SAMPLEAPP_ENDPOINT,              //  int Endpoint;
//   41   SAMPLEAPP_PROFID,                //  uint16 AppProfId[2];
//   42   SAMPLEAPP_DEVICEID,              //  uint16 AppDevVer:4;
//   43   SAMPLEAPP_FLAGS,                 //  int  pDeviceId[2];
//   44   SAMPLEAPP_DEVICE_VERSION,        //  int   Ap AppFlags:4;
//   45   ENDDEVICE_MAX_CLUSTERS,          //  uint  8  AppNumInClusters;
//   46   (cId_t *)SampleApp_ClusterList,  //  uint8 *pAppInClusterList;
//   47   ENDDEVICE_MAX_CLUSTERS,          //  uint8  AppNumInClusters;
//   48   (cId_t *)SampleApp_ClusterList   //  uint8 *pAppInClusterList;
//   49 };
//   50 
//   51 // This is the Endpoint/Interface description.  It is defined here, but
//   52 // filled-in in SampleApp_Init().  Another way to go would be to fill
//   53 // in the structure here and make it a "const" (in code space).  The
//   54 // way it's defined in this sample app it is define in RAM.

        RSEG XDATA_Z:XDATA:NOROOT(0)
        DATA8
//   55 endPointDesc_t SampleApp_epDesc;
SampleApp_epDesc:
        DS 6
        REQUIRE __INIT_XDATA_Z
//   56 
//   57 /*********************************************************************
//   58  * EXTERNAL VARIABLES
//   59  */
//   60 
//   61 /*********************************************************************
//   62  * EXTERNAL FUNCTIONS
//   63  */
//   64 
//   65 /*********************************************************************
//   66  * LOCAL VARIABLES
//   67  */

        RSEG XDATA_Z:XDATA:NOROOT(0)
        DATA8
//   68 uint8 SampleApp_TaskID;   // Task ID for internal task/event processing
SampleApp_TaskID:
        DS 1
        REQUIRE __INIT_XDATA_Z
//   69                           // This variable will be received when
//   70                           // SampleApp_Init() is called.

        RSEG XDATA_Z:XDATA:NOROOT(0)
        DATA8
//   71 devStates_t SampleApp_NwkState;
SampleApp_NwkState:
        DS 1
        REQUIRE __INIT_XDATA_Z
//   72 

        RSEG XDATA_Z:XDATA:NOROOT(0)
        DATA8
//   73 uint8 SampleApp_TransID;  // This is the unique message ID (counter)
SampleApp_TransID:
        DS 1
        REQUIRE __INIT_XDATA_Z
//   74 
//   75 

        RSEG XDATA_Z:XDATA:NOROOT(0)
        DATA8
//   76 afAddrType_t SampleApp_P2P_DstAddr;      //点播
SampleApp_P2P_DstAddr:
        DS 12
        REQUIRE __INIT_XDATA_Z
//   77 
//   78 
//   79 /*********************************************************************
//   80  * LOCAL FUNCTIONS
//   81  */
//   82 void SampleApp_HandleKeys( uint8 shift, uint8 keys );
//   83 void SampleApp_MessageMSGCB( afIncomingMSGPacket_t *pckt );
//   84 void SampleApp_Send_P2P_Message(void);
//   85 void UART_CallBack(uint8 port, uint8 event);
//   86 /*********************************************************************
//   87  * NETWORK LAYER CALLBACKS
//   88  */
//   89 
//   90 /*********************************************************************
//   91  * PUBLIC FUNCTIONS
//   92  */
//   93 
//   94 /*********************************************************************
//   95  * @fn      SampleApp_Init
//   96  *
//   97  * @brief   Initialization function for the Generic App Task.
//   98  *          This is called during initialization and should contain
//   99  *          any application specific initialization (ie. hardware
//  100  *          initialization/setup, table initialization, power up
//  101  *          notificaiton ... ).
//  102  *
//  103  * @param   task_id - the ID assigned by OSAL.  This ID should be
//  104  *                    used to send messages and set timers.
//  105  *
//  106  * @return  none
//  107  */

        RSEG BANKED_CODE:CODE:NOROOT(0)
//  108 void SampleApp_Init( uint8 task_id )
SampleApp_Init:
        CFI Block cfiBlock0 Using cfiCommon0
        CFI Function SampleApp_Init
        CODE
//  109 { 
        FUNCALL SampleApp_Init, MT_UartInit
        LOCFRAME ISTACK, 0, STACK
        LOCFRAME PSTACK, 0, STACK
        LOCFRAME XSTACK, 9, STACK
        LOCFRAME IOVERLAY, 0, STATIC
        LOCFRAME DOVERLAY, 0, STATIC
        ARGFRAME ISTACK, 0, STACK
        ARGFRAME PSTACK, 0, STACK
        ARGFRAME XSTACK, 9, STACK
        ARGFRAME IOVERLAY, 0, STATIC
        ARGFRAME DOVERLAY, 0, STATIC
        FUNCALL SampleApp_Init, MT_UartRegisterTaskID
        LOCFRAME ISTACK, 0, STACK
        LOCFRAME PSTACK, 0, STACK
        LOCFRAME XSTACK, 9, STACK
        LOCFRAME IOVERLAY, 0, STATIC
        LOCFRAME DOVERLAY, 0, STATIC
        ARGFRAME ISTACK, 0, STACK
        ARGFRAME PSTACK, 0, STACK
        ARGFRAME XSTACK, 9, STACK
        ARGFRAME IOVERLAY, 0, STATIC
        ARGFRAME DOVERLAY, 0, STATIC
        FUNCALL SampleApp_Init, afRegister
        LOCFRAME ISTACK, 0, STACK
        LOCFRAME PSTACK, 0, STACK
        LOCFRAME XSTACK, 9, STACK
        LOCFRAME IOVERLAY, 0, STATIC
        LOCFRAME DOVERLAY, 0, STATIC
        ARGFRAME ISTACK, 0, STACK
        ARGFRAME PSTACK, 0, STACK
        ARGFRAME XSTACK, 9, STACK
        ARGFRAME IOVERLAY, 0, STATIC
        ARGFRAME DOVERLAY, 0, STATIC
        FUNCALL SampleApp_Init, RegisterForKeys
        LOCFRAME ISTACK, 0, STACK
        LOCFRAME PSTACK, 0, STACK
        LOCFRAME XSTACK, 9, STACK
        LOCFRAME IOVERLAY, 0, STATIC
        LOCFRAME DOVERLAY, 0, STATIC
        ARGFRAME ISTACK, 0, STACK
        ARGFRAME PSTACK, 0, STACK
        ARGFRAME XSTACK, 9, STACK
        ARGFRAME IOVERLAY, 0, STATIC
        ARGFRAME DOVERLAY, 0, STATIC
        MOV     A,#-0x9
        LCALL   ?BANKED_ENTER_XDATA
        CFI DPH0 load(1, XDATA, add(CFA_XSP16, literal(-1)))
        CFI DPL0 load(1, XDATA, add(CFA_XSP16, literal(-2)))
        CFI ?BRET_EXT load(1, XDATA, add(CFA_XSP16, literal(-3)))
        CFI ?RET_HIGH load(1, XDATA, add(CFA_XSP16, literal(-4)))
        CFI ?RET_LOW load(1, XDATA, add(CFA_XSP16, literal(-5)))
        CFI R7 load(1, XDATA, add(CFA_XSP16, literal(-6)))
        CFI V0 load(1, XDATA, add(CFA_XSP16, literal(-7)))
        CFI VB load(1, XDATA, add(CFA_XSP16, literal(-8)))
        CFI R6 load(1, XDATA, add(CFA_XSP16, literal(-9)))
        CFI CFA_SP SP+0
        CFI CFA_XSP16 add(XSP16, 9)
        ; Saved register size: 9
        ; Auto size: 0
        MOV     A,R1
        MOV     R6,A
//  110   SampleApp_TaskID = task_id;
        MOV     DPTR,#SampleApp_TaskID
        MOVX    @DPTR,A
//  111   SampleApp_NwkState = DEV_INIT;
        MOV     DPTR,#SampleApp_NwkState
        MOV     A,#0x1
        MOVX    @DPTR,A
//  112   SampleApp_TransID = 0;
        MOV     DPTR,#SampleApp_TransID
        CLR     A
        MOVX    @DPTR,A
//  113   
//  114   MT_UartInit();                  //串口初始化
        ; Setup parameters for call to function MT_UartInit
        LCALL   ??MT_UartInit?relay
//  115   MT_UartRegisterTaskID(task_id); //注册串口任务
        ; Setup parameters for call to function MT_UartRegisterTaskID
        MOV     A,R6
        MOV     R1,A
        LCALL   ??MT_UartRegisterTaskID?relay
//  116   
//  117   // Device hardware initialization can be added here or in main() (Zmain.c).
//  118   // If the hardware is application specific - add it here.
//  119   // If the hardware is other parts of the device add it in main().
//  120 
//  121  
//  122 #if defined ( HOLD_AUTO_START )
//  123   // HOLD_AUTO_START is a compile option that will surpress ZDApp
//  124   //  from starting the device and wait for the application to
//  125   //  start the device.
//  126   ZDOInitDevice(0);
//  127 #endif
//  128  
//  129   SampleApp_P2P_DstAddr.addrMode = (afAddrMode_t)AddrBroadcast; //点播 
        MOV     DPTR,#SampleApp_P2P_DstAddr + 8
        MOV     A,#0xf
        MOVX    @DPTR,A
//  130   SampleApp_P2P_DstAddr.endPoint = SAMPLEAPP_ENDPOINT; 
        INC     DPTR
        MOV     A,#0x14
        MOVX    @DPTR,A
//  131   
//  132   SampleApp_P2P_DstAddr.addr.shortAddr = 0xFFFF;          
        MOV     DPTR,#SampleApp_P2P_DstAddr
        MOV     A,#-0x1
        MOVX    @DPTR,A
        INC     DPTR
        MOVX    @DPTR,A
//  133 
//  134   // Fill out the endpoint description.
//  135   SampleApp_epDesc.endPoint = SAMPLEAPP_ENDPOINT;
        MOV     DPTR,#SampleApp_epDesc
        MOV     A,#0x14
        MOVX    @DPTR,A
//  136   SampleApp_epDesc.task_id = &SampleApp_TaskID;
        INC     DPTR
        MOV     A,#SampleApp_TaskID & 0xff
        MOVX    @DPTR,A
        INC     DPTR
        MOV     A,#(SampleApp_TaskID >> 8) & 0xff
        MOVX    @DPTR,A
//  137   SampleApp_epDesc.simpleDesc
//  138             = (SimpleDescriptionFormat_t *)&SampleApp_SimpleDesc;
        INC     DPTR
        MOV     A,#SampleApp_SimpleDesc & 0xff
        MOVX    @DPTR,A
        INC     DPTR
        MOV     A,#(SampleApp_SimpleDesc >> 8) & 0xff
        MOVX    @DPTR,A
//  139   SampleApp_epDesc.latencyReq = noLatencyReqs;
        INC     DPTR
        CLR     A
        MOVX    @DPTR,A
//  140 
//  141   // Register the endpoint description with the AF
//  142   afRegister( &SampleApp_epDesc );
        ; Setup parameters for call to function afRegister
        MOV     R2,#SampleApp_epDesc & 0xff
        MOV     R3,#(SampleApp_epDesc >> 8) & 0xff
        LCALL   ??afRegister?relay
//  143 
//  144   // Register for all key events - This app will handle all key events
//  145   RegisterForKeys( SampleApp_TaskID );
        ; Setup parameters for call to function RegisterForKeys
        MOV     DPTR,#SampleApp_TaskID
        MOVX    A,@DPTR
        MOV     R1,A
        LCALL   ??RegisterForKeys?relay
//  146 
//  147   // By default, all devices start out in Group 1
//  148  
//  149 }
        MOV     R7,#0x1
        LJMP    ?BANKED_LEAVE_XDATA
        CFI EndBlock cfiBlock0
//  150 
//  151 /*********************************************************************
//  152  * @fn      SampleApp_ProcessEvent
//  153  *
//  154  * @brief   Generic Application Task event processor.  This function
//  155  *          is called to process all events for the task.  Events
//  156  *          include timers, messages and any other user defined events.
//  157  *
//  158  * @param   task_id  - The OSAL assigned task ID.
//  159  * @param   events - events to process.  This is a bit map and can
//  160  *                   contain more than one event.
//  161  *
//  162  * @return  none
//  163  */

        RSEG BANKED_CODE:CODE:NOROOT(0)
//  164 uint16 SampleApp_ProcessEvent( uint8 task_id, uint16 events )
SampleApp_ProcessEvent:
        CFI Block cfiBlock1 Using cfiCommon0
        CFI Function SampleApp_ProcessEvent
        CODE
//  165 {
        FUNCALL SampleApp_ProcessEvent, osal_msg_receive
        LOCFRAME ISTACK, 0, STACK
        LOCFRAME PSTACK, 0, STACK
        LOCFRAME XSTACK, 10, STACK
        LOCFRAME IOVERLAY, 0, STATIC
        LOCFRAME DOVERLAY, 0, STATIC
        ARGFRAME ISTACK, 0, STACK
        ARGFRAME PSTACK, 0, STACK
        ARGFRAME XSTACK, 10, STACK
        ARGFRAME IOVERLAY, 0, STATIC
        ARGFRAME DOVERLAY, 0, STATIC
        FUNCALL SampleApp_ProcessEvent, osal_msg_deallocate
        LOCFRAME ISTACK, 0, STACK
        LOCFRAME PSTACK, 0, STACK
        LOCFRAME XSTACK, 10, STACK
        LOCFRAME IOVERLAY, 0, STATIC
        LOCFRAME DOVERLAY, 0, STATIC
        ARGFRAME ISTACK, 0, STACK
        ARGFRAME PSTACK, 0, STACK
        ARGFRAME XSTACK, 10, STACK
        ARGFRAME IOVERLAY, 0, STATIC
        ARGFRAME DOVERLAY, 0, STATIC
        FUNCALL SampleApp_ProcessEvent, osal_msg_receive
        LOCFRAME ISTACK, 0, STACK
        LOCFRAME PSTACK, 0, STACK
        LOCFRAME XSTACK, 10, STACK
        LOCFRAME IOVERLAY, 0, STATIC
        LOCFRAME DOVERLAY, 0, STATIC
        ARGFRAME ISTACK, 0, STACK
        ARGFRAME PSTACK, 0, STACK
        ARGFRAME XSTACK, 10, STACK
        ARGFRAME IOVERLAY, 0, STATIC
        ARGFRAME DOVERLAY, 0, STATIC
        MOV     A,#-0xa
        LCALL   ?BANKED_ENTER_XDATA
        CFI DPH0 load(1, XDATA, add(CFA_XSP16, literal(-1)))
        CFI DPL0 load(1, XDATA, add(CFA_XSP16, literal(-2)))
        CFI ?BRET_EXT load(1, XDATA, add(CFA_XSP16, literal(-3)))
        CFI ?RET_HIGH load(1, XDATA, add(CFA_XSP16, literal(-4)))
        CFI ?RET_LOW load(1, XDATA, add(CFA_XSP16, literal(-5)))
        CFI R7 load(1, XDATA, add(CFA_XSP16, literal(-6)))
        CFI V1 load(1, XDATA, add(CFA_XSP16, literal(-7)))
        CFI V0 load(1, XDATA, add(CFA_XSP16, literal(-8)))
        CFI VB load(1, XDATA, add(CFA_XSP16, literal(-9)))
        CFI R6 load(1, XDATA, add(CFA_XSP16, literal(-10)))
        CFI CFA_SP SP+0
        CFI CFA_XSP16 add(XSP16, 10)
        ; Saved register size: 10
        ; Auto size: 0
        MOV     A,R2
        MOV     R6,A
        MOV     A,R3
        MOV     R7,A
//  166   afIncomingMSGPacket_t *MSGpkt;
//  167   (void)task_id;  // Intentionally unreferenced parameter
//  168 
//  169   if ( events & SYS_EVENT_MSG )
        ANL     A,#0x80
        JZ      ??SampleApp_ProcessEvent_0
//  170   {
//  171     MSGpkt = (afIncomingMSGPacket_t *)osal_msg_receive( SampleApp_TaskID );
        ; Setup parameters for call to function osal_msg_receive
        SJMP    ??SampleApp_ProcessEvent_1
//  172     while ( MSGpkt )
//  173     {
//  174       switch ( MSGpkt->hdr.event )
??SampleApp_ProcessEvent_2:
        MOV     DPL,R2
        MOV     DPH,R3
        MOVX    A,@DPTR
        XRL     A,#0xd1
        JNZ     ??SampleApp_ProcessEvent_3
//  175       {
//  176         // Received when a key is pressed
//  177         case KEY_CHANGE:
//  178          
//  179           break;
//  180 
//  181         // Received when a messages is received (OTA) for this endpoint
//  182         case AF_INCOMING_MSG_CMD:
//  183          
//  184           break;
//  185 
//  186         // Received whenever the device changes state in the network
//  187         case ZDO_STATE_CHANGE:
//  188           SampleApp_NwkState = (devStates_t)(MSGpkt->hdr.status);
        INC     DPTR
        MOVX    A,@DPTR
        MOV     DPTR,#SampleApp_NwkState
        MOVX    @DPTR,A
//  189           if ( (SampleApp_NwkState == DEV_ZB_COORD) ||
//  190                  (SampleApp_NwkState == DEV_ROUTER)
//  191                || (SampleApp_NwkState == DEV_END_DEVICE) )
//  192             {
//  193             // Start sending the periodic message in a regular interval.
//  194            
//  195             }
//  196           else
//  197           {
//  198             // Device is no longer in the network
//  199           }
//  200           break;
//  201 
//  202         default:
//  203           break;
//  204       }
//  205 
//  206       // Release the memory
//  207       osal_msg_deallocate( (uint8 *)MSGpkt );
??SampleApp_ProcessEvent_3:
        ; Setup parameters for call to function osal_msg_deallocate
        LCALL   ??osal_msg_deallocate?relay
//  208 
//  209       // Next - if one is available
//  210       MSGpkt = (afIncomingMSGPacket_t *)osal_msg_receive( SampleApp_TaskID );
        ; Setup parameters for call to function osal_msg_receive
??SampleApp_ProcessEvent_1:
        MOV     DPTR,#SampleApp_TaskID
        MOVX    A,@DPTR
        MOV     R1,A
        LCALL   ??osal_msg_receive?relay
//  211     }
        MOV     A,R2
        ORL     A,R3
        JNZ     ??SampleApp_ProcessEvent_2
//  212 
//  213     // return unprocessed events
//  214     return (events ^ SYS_EVENT_MSG);
        MOV     A,R6
        MOV     R2,A
        MOV     A,R7
        XRL     A,#0x80
        MOV     R3,A
        SJMP    ??SampleApp_ProcessEvent_4
//  215   }
//  216 
//  217   return 0;
??SampleApp_ProcessEvent_0:
        MOV     R2,#0x0
        MOV     R3,#0x0
??SampleApp_ProcessEvent_4:
        MOV     R7,#0x2
        LJMP    ?BANKED_LEAVE_XDATA
        CFI EndBlock cfiBlock1
//  218 }
//  219 
//  220 /*********************************************************************
//  221  * Event Generation Functions
//  222  */
//  223 /*********************************************************************
//  224  * @fn      SampleApp_HandleKeys
//  225  *
//  226  * @brief   Handles all key events for this device.
//  227  *
//  228  * @param   shift - true if in shift/alt.
//  229  * @param   keys - bit field for key events. Valid entries:
//  230  *                 HAL_KEY_SW_2
//  231  *                 HAL_KEY_SW_1
//  232  *
//  233  * @return  none
//  234  */

        RSEG BANKED_CODE:CODE:NOROOT(0)
//  235 void SampleApp_HandleKeys( uint8 shift, uint8 keys )
SampleApp_HandleKeys:
        CFI Block cfiBlock2 Using cfiCommon0
        CFI Function SampleApp_HandleKeys
        CODE
//  236 {
        ; Saved register size: 0
        ; Auto size: 0
//  237   
//  238   (void)shift;  // Intentionally unreferenced parameter
//  239   
//  240   if ( keys & HAL_KEY_SW_6 )
//  241   {
//  242     
//  243 
//  244   }
//  245 }
        LJMP    ?BRET
        CFI EndBlock cfiBlock2
//  246 
//  247 /*********************************************************************
//  248  * LOCAL FUNCTIONS
//  249  */
//  250 
//  251 /*********************************************************************
//  252  * @fn      SampleApp_MessageMSGCB
//  253  *
//  254  * @brief   Data message processor callback.  This function processes
//  255  *          any incoming data - probably from other devices.  So, based
//  256  *          on cluster ID, perform the intended action.
//  257  *
//  258  * @param   none
//  259  *
//  260  * @return  none
//  261  */

        RSEG BANKED_CODE:CODE:NOROOT(0)
//  262 void SampleApp_MessageMSGCB( afIncomingMSGPacket_t *pkt )
SampleApp_MessageMSGCB:
        CFI Block cfiBlock3 Using cfiCommon0
        CFI Function SampleApp_MessageMSGCB
        CODE
//  263 {
        ; Saved register size: 0
        ; Auto size: 0
//  264  
//  265   switch ( pkt->clusterId )
//  266   {
//  267   }
//  268 }
        LJMP    ?BRET
        CFI EndBlock cfiBlock3
//  269 
//  270 /*********************************************************************
//  271  * @fn      SampleApp_Send_P2P_Message
//  272  *
//  273  * @brief   point to point.
//  274  *
//  275  * @param   none
//  276  *
//  277  * @return  none
//  278  */

        RSEG BANKED_CODE:CODE:NOROOT(0)
//  279 void SampleApp_Send_P2P_Message( void )
SampleApp_Send_P2P_Message:
        CFI Block cfiBlock4 Using cfiCommon0
        CFI Function SampleApp_Send_P2P_Message
        CODE
//  280 {
        ; Saved register size: 0
        ; Auto size: 0
//  281   
//  282   
//  283 }
        LJMP    ?BRET
        CFI EndBlock cfiBlock4

        RSEG BANKED_CODE:CODE:NOROOT(0)
//  284 void UART_CallBack(uint8 port, uint8 event)//串口接收终端发送，启动该函数
UART_CallBack:
        CFI Block cfiBlock5 Using cfiCommon0
        CFI Function UART_CallBack
        CODE
//  285 {
        ; Saved register size: 0
        ; Auto size: 0
//  286 }
        LJMP    ?BRET
        CFI EndBlock cfiBlock5

        RSEG BANK_RELAYS:CODE:REORDER:NOROOT(0)
??SampleApp_Init?relay:
        LCALL   ?BDISPATCH
        DATA
        DC24    SampleApp_Init

        RSEG BANK_RELAYS:CODE:REORDER:NOROOT(0)
??SampleApp_ProcessEvent?relay:
        LCALL   ?BDISPATCH
        DATA
        DC24    SampleApp_ProcessEvent

        RSEG BANK_RELAYS:CODE:REORDER:NOROOT(0)
??SampleApp_HandleKeys?relay:
        LCALL   ?BDISPATCH
        DATA
        DC24    SampleApp_HandleKeys

        RSEG BANK_RELAYS:CODE:REORDER:NOROOT(0)
??SampleApp_MessageMSGCB?relay:
        LCALL   ?BDISPATCH
        DATA
        DC24    SampleApp_MessageMSGCB

        RSEG BANK_RELAYS:CODE:REORDER:NOROOT(0)
??SampleApp_Send_P2P_Message?relay:
        LCALL   ?BDISPATCH
        DATA
        DC24    SampleApp_Send_P2P_Message

        RSEG BANK_RELAYS:CODE:REORDER:NOROOT(0)
??UART_CallBack?relay:
        LCALL   ?BDISPATCH
        DATA
        DC24    UART_CallBack

        END
//  287 
//  288 /*********************************************************************
//  289 *********************************************************************/
//  290 
//  291 
// 
// 167 bytes in segment BANKED_CODE
//  36 bytes in segment BANK_RELAYS
//  14 bytes in segment XDATA_ROM_C
//  22 bytes in segment XDATA_Z
// 
// 203 bytes of CODE  memory
//  14 bytes of CONST memory
//  22 bytes of XDATA memory
//
//Errors: none
//Warnings: none
